 ConEmu64

 Timestamp is 5b0c6d7a (Mon May 28 23:58:34 2018)

 Preferred load address is 0000000140000000

 Start         Length     Name                   Class
 0001:00000000 000000e0H .text$di                CODE
 0001:000000e0 00138480H .text$mn                CODE
 0001:00138560 00000020H .text$mn$00             CODE
 0001:00138580 00002580H .text$x                 CODE
 0001:0013ab00 00000187H .text$yd                CODE
 0002:00000000 00000fe8H .idata$5                DATA
 0002:00000fe8 00000010H .00cfg                  DATA
 0002:00000ff8 00000008H .CRT$XCA                DATA
 0002:00001000 00000008H .CRT$XCAA               DATA
 0002:00001008 00000048H .CRT$XCU                DATA
 0002:00001050 00000008H .CRT$XCZ                DATA
 0002:00001058 00000008H .CRT$XIA                DATA
 0002:00001060 00000008H .CRT$XIAA               DATA
 0002:00001068 00000008H .CRT$XIAC               DATA
 0002:00001070 00000020H .CRT$XIC                DATA
 0002:00001090 00000008H .CRT$XIZ                DATA
 0002:00001098 00000008H .CRT$XLA                DATA
 0002:000010a0 00000008H .CRT$XLZ                DATA
 0002:000010a8 00000008H .CRT$XPA                DATA
 0002:000010b0 00000010H .CRT$XPX                DATA
 0002:000010c0 00000008H .CRT$XPXA               DATA
 0002:000010c8 00000008H .CRT$XPZ                DATA
 0002:000010d0 00000008H .CRT$XTA                DATA
 0002:000010d8 00000008H .CRT$XTZ                DATA
 0002:000010e0 00000000H .gfids$x                DATA
 0002:000010e0 00000000H .gfids$y                DATA
 0002:000010e0 0006d280H .rdata                  DATA
 0002:0006e360 00000030H .rdata$T                DATA
 0002:0006e390 00004424H .rdata$r                DATA
 0002:000727b4 000003ecH .rdata$zzzdbg           DATA
 0002:00072ba0 00000008H .rtc$IAA                DATA
 0002:00072ba8 00000008H .rtc$IZZ                DATA
 0002:00072bb0 00000008H .rtc$TAA                DATA
 0002:00072bb8 00000008H .rtc$TZZ                DATA
 0002:00072bc0 00000004H .tls                    DATA
 0002:00072bc4 00000004H .tls$                   DATA
 0002:00072bc8 00000008H .tls$ZZZ                DATA
 0002:00072bd0 00013e98H .xdata                  DATA
 0002:00086a68 000002bcH .xdata$x                DATA
 0002:00086d24 00000000H .edata                  DATA
 0002:00086d24 00000104H .idata$2                DATA
 0002:00086e28 00000018H .idata$3                DATA
 0002:00086e40 00000fe8H .idata$4                DATA
 0002:00087e28 00002354H .idata$6                DATA
 0003:00000000 00004ea0H .data                   DATA
 0003:00004ea0 00001480H .data$r                 DATA
 0003:00006320 00046818H .bss                    DATA
 0004:00000000 0000b784H .pdata                  DATA
 0005:00000000 00001250H .rsrc$01                DATA
 0005:00001250 00045768H .rsrc$02                DATA

  Address         Publics by Value              Rva+Base               Lib:Object

 0000:00000000       __dynamic_value_reloc_table 0000000000000000     <absolute>
 0000:00000000       __guard_iat_count          0000000000000000     <absolute>
 0000:00000000       __hybrid_code_map          0000000000000000     <absolute>
 0000:00000000       __hybrid_code_map_count    0000000000000000     <absolute>
 0000:00000000       __guard_longjmp_table      0000000000000000     <absolute>
 0000:00000000       __guard_longjmp_count      0000000000000000     <absolute>
 0000:00000000       __guard_iat_table          0000000000000000     <absolute>
 0000:00000000       __hybrid_auxiliary_iat     0000000000000000     <absolute>
 0000:00000000       __guard_fids_count         0000000000000000     <absolute>
 0000:00000000       __enclave_config           0000000000000000     <absolute>
 0000:00000000       ___safe_se_handler_table   0000000000000000     <absolute>
 0000:00000000       ___safe_se_handler_count   0000000000000000     <absolute>
 0000:00000000       __guard_fids_table         0000000000000000     <absolute>
 0000:00000100       __guard_flags              0000000000000100     <absolute>
 0000:00000000       __ImageBase                0000000140000000     <linker-defined>
 0001:000000e0       ??$SafeDelete@VCImgButtons@@@@YAXAEAPEAVCImgButtons@@@Z 00000001400010e0 f i AboutDlg.obj
 0001:00000128       ??$swprintf_c@$0BE@@@YAHAEAY0BE@_WPEB_WZZ 0000000140001128 f i AboutDlg.obj
 0001:00000154       ??$swprintf_c@$0BI@@@YAHAEAY0BI@_WPEB_WZZ 0000000140001154 f i AboutDlg.obj
 0001:00000180       ??$swprintf_c@$0CA@@@YAHAEAY0CA@_WPEB_WZZ 0000000140001180 f i AboutDlg.obj
 0001:000001ac       ??$swprintf_c@$0EBA@@@YAHAEAY0EBA@_WPEB_WZZ 00000001400011ac f i AboutDlg.obj
 0001:000001d8       ??$swprintf_c@$0IA@@@YAHAEAY0IA@_WPEB_WZZ 00000001400011d8 f i AboutDlg.obj
 0001:00000204       ??$ultow_s@$0CA@@@YAPEB_WIAEAY0CA@_WH@Z 0000000140001204 f i AboutDlg.obj
 0001:00000230       ?InitCommCtrls@ConEmuAbout@@YAXXZ 0000000140001230 f   AboutDlg.obj
 0001:00000264       ?LoadWindowsBuild@LoadStartupEnvEx@@KAPEA_WAEBU_OSVERSIONINFOEXW@@@Z 0000000140001264 f i AboutDlg.obj
 0001:000004f0       ?LogStartEnvInt@ConEmuAbout@@YAXPEB_W_J_N2@Z 00000001400014f0 f   AboutDlg.obj
 0001:00000590       ?OnInfo_About@ConEmuAbout@@YAXPEB_W@Z 0000000140001590 f   AboutDlg.obj
 0001:00000770       ?OnInfo_Donate@ConEmuAbout@@YAXXZ 0000000140001770 f   AboutDlg.obj
 0001:000007a0       ?OnInfo_DonateLink@ConEmuAbout@@YAXXZ 00000001400017a0 f   AboutDlg.obj
 0001:000007f4       ?OnInfo_DownloadPage@ConEmuAbout@@YAXXZ 00000001400017f4 f   AboutDlg.obj
 0001:00000848       ?OnInfo_FirstStartPage@ConEmuAbout@@YAXXZ 0000000140001848 f   AboutDlg.obj
 0001:0000089c       ?OnInfo_Help@ConEmuAbout@@YAXXZ 000000014000189c f   AboutDlg.obj
 0001:00000950       ?OnInfo_HomePage@ConEmuAbout@@YAXXZ 0000000140001950 f   AboutDlg.obj
 0001:000009a4       ?OnInfo_OnlineWiki@ConEmuAbout@@YAXPEB_W@Z 00000001400019a4 f   AboutDlg.obj
 0001:00000a88       ?OnInfo_ReportBug@ConEmuAbout@@YAXXZ 0000000140001a88 f   AboutDlg.obj
 0001:00000adc       ?OnInfo_ReportCrash@ConEmuAbout@@YAXPEB_W@Z 0000000140001adc f   AboutDlg.obj
 0001:00000b94       ?OnInfo_ThrowTrapException@ConEmuAbout@@YAX_N@Z 0000000140001b94 f   AboutDlg.obj
 0001:00000c38       ?OnInfo_WhatsNew@ConEmuAbout@@YAX_N@Z 0000000140001c38 f   AboutDlg.obj
 0001:00000d74       ?ReloadSysInfo@ConEmuAbout@@YAXXZ 0000000140001d74 f   AboutDlg.obj
 0001:00000dcc       ?StringCchCatW@@YAJPEA_W_KPEB_W@Z 0000000140001dcc f i AboutDlg.obj
 0001:00000e9c       ?StringCchCopyW@@YAJPEA_W_KPEB_W@Z 0000000140001e9c f i AboutDlg.obj
 0001:00000f14       ?StringCchVPrintfW@@YAJPEA_W_KPEB_WPEAD@Z 0000000140001f14 f i AboutDlg.obj
 0001:00000fb8       ?TabSelected@ConEmuAbout@@YAXPEAUHWND__@@H@Z 0000000140001fb8 f   AboutDlg.obj
 0001:000010dc       ?ToString@LoadStartupEnvEx@@SAXPEAUCEStartupEnv@@P6AXPEB_W_J_N3@Z2@Z 00000001400020dc f i AboutDlg.obj
 0001:000020a0       ?aboutProc@ConEmuAbout@@YA_JPEAUHWND__@@I_K_J@Z 00000001400030a0 f   AboutDlg.obj
 0001:000027cc       ?searchProc@ConEmuAbout@@YAXPEAUHWND__@@0_N@Z 00000001400037cc f   AboutDlg.obj
 0001:00002b08       __local_stdio_printf_options 0000000140003b08 f i AboutDlg.obj
 0001:00002b10       ??$swprintf_c@$0FA@@@YAHAEAY0FA@_WPEB_WZZ 0000000140003b10 f i AltNumpad.obj
 0001:00002b3c       ??$swprintf_c@$0HI@@@YAHAEAY0HI@_WPEB_WZZ 0000000140003b3c f i AltNumpad.obj
 0001:00002b68       ??0CAltNumpad@@QEAA@PEAVCConEmuMain@@@Z 0000000140003b68 f   AltNumpad.obj
 0001:00002b90       ?OnUseTheming@CConEmuMain@@MEAAX_N@Z 0000000140003b90 f   ConEmu.obj
 0001:00002b90       ?PostCreateThreadFinished@CDefTermBase@@MEAAXXZ 0000000140003b90 f   DefaultTerm.obj
 0001:00002b90       ?LogHookingStatus@CDefTermBase@@UEAAXKPEB_W@Z 0000000140003b90 f   DefaultTerm.obj
 0001:00002b90       ?OnUseGlass@CConEmuMain@@MEAAX_N@Z 0000000140003b90 f   ConEmu.obj
 0001:00002b90       ?PrintRecentStack@CTabBarClass@@QEAAXXZ 0000000140003b90 f   TabBar.obj
 0001:00002b90       ?ConhostLocker@CDefTermBase@@MEAAX_NAEA_N@Z 0000000140003b90 f   DefaultTerm.obj
 0001:00002b90       ?ResetOnStart@CVirtualConsole@@QEAAXXZ 0000000140003b90 f   VirtualConsole.obj
 0001:00002b90       ?ChCp@CStartEnvTitle@@UEAAXPEB_W@Z 0000000140003b90 f   common-user64:ProcessSetEnv.obj
 0001:00002b90       ?PreCreateThread@CDefTermBase@@MEAAXXZ 0000000140003b90 f   DefaultTerm.obj
 0001:00002b90       ?ExecuteProcessFinished@CConEmuMain@@IEAAX_N@Z 0000000140003b90 f   ConEmu.obj
 0001:00002b90       ??1CRConFiles@@QEAA@XZ     0000000140003b90 f   RConFiles.obj
 0001:00002b90       ?Alias@CStartEnvTitle@@UEAAXPEB_W0@Z 0000000140003b90 f   common-user64:ProcessSetEnv.obj
 0001:00002b90       _initialize_invalid_parameter_handler 0000000140003b90 f   LIBCMT:invalid_parameter_handler.obj
 0001:00002b90       _initialize_denormal_control 0000000140003b90 f   LIBCMT:denormal_control.obj
 0001:00002b90       ?Type@CStartEnvTitle@@UEAAXPEB_W0@Z 0000000140003b90 f   common-user64:ProcessSetEnv.obj
 0001:00002b90       ??1CAltNumpad@@QEAA@XZ     0000000140003b90 f   AltNumpad.obj
 0001:00002b90       ?OnUseDwm@CConEmuMain@@MEAAX_N@Z 0000000140003b90 f   ConEmu.obj
 0001:00002b90       ?DragFeedBack@CBaseDropTarget@@UEAAXK@Z 0000000140003b90 f   BaseDragDrops.obj
 0001:00002b90       ?Echo@CStartEnvTitle@@UEAAXPEB_W0@Z 0000000140003b90 f   common-user64:ProcessSetEnv.obj
 0001:00002b90       ?SyncWindowToConsole@CVConGroup@@SAXXZ 0000000140003b90 f   VConGroup.obj
 0001:00002b90       ??1HandleMonitor@@QEAA@XZ  0000000140003b90 f   GdiObjects.obj
 0001:00002b90       ?OnTaskbarCreated@CDragDropData@@QEAAXXZ 0000000140003b90 f   DragDropData.obj
 0001:00002b90       ?ResetCache@CRConFiles@@QEAAXXZ 0000000140003b90 f   RConFiles.obj
 0001:00002b90       ?DeleteKey@SettingsINI@@UEAAXPEB_W@Z 0000000140003b90 f   Registry.obj
 0001:00002b90       ?Save@SettingsINI@@UEAAXPEB_WPEBEKK@Z 0000000140003b90 f   Registry.obj
 0001:00002b90       ?OnPostLocalize@CSetPgBase@@UEAAXPEAUHWND__@@@Z 0000000140003b90 f   SetPgANSI.obj
 0001:00002b90       ??1CPushInfo@@QEAA@XZ      0000000140003b90 f   PushInfo.obj
 0001:00002b90       ?PostCreateThreadFinished@CDefaultTerminal@@MEAAXXZ 0000000140003b90 f   DefaultTerm.obj
 0001:00002b90       ?Set@CStartEnvTitle@@UEAAXPEB_W0@Z 0000000140003b90 f   common-user64:ProcessSetEnv.obj
 0001:00002b90       _guard_check_icall_nop     0000000140003b90 f   LIBCMT:guard_support.obj
 0001:00002b94       ?ClearAltNumber@CAltNumpad@@IEAAX_N@Z 0000000140003b94 f   AltNumpad.obj
 0001:00002c38       ?DumpAltNumber@CAltNumpad@@IEAA?AW4AltCharAction@@XZ 0000000140003c38 f   AltNumpad.obj
 0001:00002d64       ?DumpChars@CAltNumpad@@IEAAXPEA_W@Z 0000000140003d64 f   AltNumpad.obj
 0001:00002e28       ?DumpStatus@CAltNumpad@@IEAAXXZ 0000000140003e28 f   AltNumpad.obj
 0001:00002f94       ?GetChars@CAltNumpad@@IEAAHAEAY02_W@Z 0000000140003f94 f   AltNumpad.obj
 0001:00003020       ?OnKeyboard@CAltNumpad@@QEAA_NPEAUHWND__@@I_K_J@Z 0000000140004020 f   AltNumpad.obj
 0001:000033fc       ?StartCapture@CAltNumpad@@QEAAXII_N@Z 00000001400043fc f   AltNumpad.obj
 0001:0000350c       ?isAltNumpad@CAltNumpad@@IEAA_NXZ 000000014000450c f   AltNumpad.obj
 0001:00003594       ?isUseAltGrayPlus@CAltNumpad@@IEAA_NXZ 0000000140004594 f   AltNumpad.obj
 0001:00003610       ??$SafeDelete@VCDpiForDialog@@@@YAXAEAPEAVCDpiForDialog@@@Z 0000000140004610 f i Attach.obj
 0001:00003658       ??$SafeDelete@VCStatus@@@@YAXAEAPEAVCStatus@@@Z 0000000140004658 f i ConEmu.obj
 0001:00003658       ??$SafeDelete@VCRConPalette@@@@YAXAEAPEAVCRConPalette@@@Z 0000000140004658 f i RealConsole.obj
 0001:00003658       ??$SafeDelete@VCBackground@@@@YAXAEAPEAVCBackground@@@Z 0000000140004658 f i VirtualConsole.obj
 0001:00003658       ??$SafeDelete@VCFormatCopy@@@@YAXAEAPEAVCFormatCopy@@@Z 0000000140004658 f i RealBuffer.obj
 0001:00003658       ??$SafeDelete@VCTaskSchedulerBase@@@@YAXAEAPEAVCTaskSchedulerBase@@@Z 0000000140004658 f i TaskScheduler.obj
 0001:00003658       ??$SafeDelete@VCSettings@@@@YAXAEAPEAVCSettings@@@Z 0000000140004658 f i ConEmuApp.obj
 0001:00003658       ??$SafeDelete@VCSetPgBase@@@@YAXAEAPEAVCSetPgBase@@@Z 0000000140004658 f i OptionsClass.obj
 0001:00003658       ??$SafeDelete@VCConEmuInside@@@@YAXAEAPEAVCConEmuInside@@@Z 0000000140004658 f i ConEmu.obj
 0001:00003658       ??$SafeDelete@VCTabPanelBase@@@@YAXAEAPEAVCTabPanelBase@@@Z 0000000140004658 f i TabBar.obj
 0001:00003658       ??$SafeDelete@URConStartArgsEx@@@@YAXAEAPEAURConStartArgsEx@@@Z 0000000140004658 f i GuiServer.obj
 0001:00003658       ??$SafeDelete@VCToolTip@@@@YAXAEAPEAVCToolTip@@@Z 0000000140004658 f i ConEmu.obj
 0001:00003658       ??$SafeDelete@VCDynDialog@@@@YAXAEAPEAVCDynDialog@@@Z 0000000140004658 f i Attach.obj
 0001:00003658       ??$SafeDelete@VCVConGuard@@@@YAXAEAPEAVCVConGuard@@@Z 0000000140004658 f i VConGroup.obj
 0001:00003658       ??$SafeDelete@VMFileLog@@@@YAXAEAPEAVMFileLog@@@Z 0000000140004658 f i RealConsole.obj
 0001:00003658       ??$SafeDelete@VCTabBarClass@@@@YAXAEAPEAVCTabBarClass@@@Z 0000000140004658 f i ConEmu.obj
 0001:00003658       ??$SafeDelete@VMFileLogEx@@@@YAXAEAPEAVMFileLogEx@@@Z 0000000140004658 f i ConEmu.obj
 0001:0000368c       ??$swprintf_c@$0BAE@@@YAHAEAY0BAE@_WPEB_WZZ 000000014000468c f i Attach.obj
 0001:000036b8       ??$swprintf_c@$0CAD@@@YAHAEAY0CAD@_WPEB_WZZ 00000001400046b8 f i Attach.obj
 0001:000036e4       ??$swprintf_c@$0DAM@@@YAHAEAY0DAM@_WPEB_WZZ 00000001400046e4 f i Attach.obj
 0001:00003710       ??$swprintf_c@$0EAA@@@YAHAEAY0EAA@_WPEB_WZZ 0000000140004710 f i Attach.obj
 0001:0000373c       ??0CAttachDlg@@QEAA@XZ     000000014000473c f   Attach.obj
 0001:00003780       ??0CProcessData@@QEAA@XZ   0000000140004780 f i Attach.obj
 0001:000037f8       ??1?$MArray@UThreadHandle@CDefTermBase@@@@QEAA@XZ 00000001400047f8 f i DefaultTerm.obj
 0001:000037f8       ??1?$MArray@UGuiMacroArg@@@@QEAA@XZ 00000001400047f8 f i Macro.obj
 0001:000037f8       ??1?$MArray@PEAVCVConGroup@@@@QEAA@XZ 00000001400047f8 f i VConGroup.obj
 0001:000037f8       ??1?$MArray@UDragData@CDataObject@@@@QEAA@XZ 00000001400047f8 f i BaseDragDrops.obj
 0001:000037f8       ??1?$MArray@UFontHeightInfo@@@@QEAA@XZ 00000001400047f8 f i FontMgr.obj
 0001:000037f8       ??1?$MArray@UMonitorInfoCache@CConEmuSize@@@@QEAA@XZ 00000001400047f8 f i ConEmuSize.obj
 0001:000037f8       ??1?$MArray@UTabIconCache@CIconList@@@@QEAA@XZ 00000001400047f8 f i IconList.obj
 0001:000037f8       ??1?$MArray@D@@QEAA@XZ     00000001400047f8 f i Registry.obj
 0001:000037f8       ??1?$MArray@PEAVCTabID@@@@QEAA@XZ 00000001400047f8 f i TabBar.obj
 0001:000037f8       ??1?$MArray@UtagPROCESSENTRY32W@@@@QEAA@XZ 00000001400047f8 f i RealConsole.obj
 0001:000037f8       ??1?$MArray@USshAgent@CConEmuMain@@@@QEAA@XZ 00000001400047f8 f i ConEmu.obj
 0001:000037f8       ??1?$MArray@H@@QEAA@XZ     00000001400047f8 f i CmdHistory.obj
 0001:000037f8       ??1?$MArray@PEAUHWND__@@@@QEAA@XZ 00000001400047f8 f i ConEmu.obj
 0001:000037f8       ??1?$MArray@PEA_W@@QEAA@XZ 00000001400047f8 f i ConEmuCtrl.obj
 0001:000037f8       ??1?$MArray@PEAVCVConGuard@@@@QEAA@XZ 00000001400047f8 f i Macro.obj
 0001:000037f8       ??1?$MArray@PEB_W@@QEAA@XZ 00000001400047f8 f i ConEmu.obj
 0001:000037f8       ??1?$MArray@PEAUSwitch@@@@QEAA@XZ 00000001400047f8 f i SetPgIntegr.obj
 0001:000037f8       ??1?$MArray@URunQueueItem@CRunQueue@@@@QEAA@XZ 00000001400047f8 f i RunQueue.obj
 0001:000037f8       ??1?$MArray@PEAVCFont@@@@QEAA@XZ 00000001400047f8 f i FontMgr.obj
 0001:000037f8       ??1?$MArray@U_ThInfo@CDragDrop@@@@QEAA@XZ 00000001400047f8 f i DragDrop.obj
 0001:000037f8       ??1?$MArray@UCmdTaskPopupItem@CConEmuMenu@@@@QEAA@XZ 00000001400047f8 f i Menu.obj
 0001:000037f8       ??1?$MArray@URegFont@@@@QEAA@XZ 00000001400047f8 f i FontMgr.obj
 0001:000037f8       ??1?$MArray@UAttachParm@@@@QEAA@XZ 00000001400047f8 f i Attach.obj
 0001:000037f8       ??1?$MArray@UConProcess@@@@QEAA@XZ 00000001400047f8 f i RealConsole.obj
 0001:000037f8       ??1?$MArray@UVarDef@CVarDefs@FastConfig@@@@QEAA@XZ 00000001400047f8 f i OptionsFast.obj
 0001:000037f8       ??1?$MArray@UProcessInfo@CDefTermBase@@@@QEAA@XZ 00000001400047f8 f i DefaultTerm.obj
 0001:00003830       ??1CAttachDlg@@QEAA@XZ     0000000140004830 f   Attach.obj
 0001:00003848       ??1CProcessData@@QEAA@XZ   0000000140004848 f i Attach.obj
 0001:00003890       ?AttachDlg@CAttachDlg@@QEAAXXZ 0000000140004890 f   Attach.obj
 0001:00003948       ?AttachDlgEnumWin@CAttachDlg@@SAHPEAUHWND__@@_J@Z 0000000140004948 f   Attach.obj
 0001:00003b68       ?AttachDlgProc@CAttachDlg@@SA_JPEAUHWND__@@I_K_J@Z 0000000140004b68 f   Attach.obj
 0001:00004604       ?AttachFromMacro@CAttachDlg@@SA?AW4AttachMacroRet@1@K_N@Z 0000000140005604 f   Attach.obj
 0001:000048a0       ?CanAttachWindow@CAttachDlg@@KA_NPEAUHWND__@@KPEAVCProcessData@@AEAUAttachWndInfo@1@@Z 00000001400058a0 f   Attach.obj
 0001:00004d30       ?Close@CAttachDlg@@QEAAXXZ 0000000140005d30 f   Attach.obj
 0001:00004dd8       ?FindProcessName@CProcessData@@IEAA_NKPEA_WK@Z 0000000140005dd8 f i Attach.obj
 0001:00004ed4       ?GetHWND@CAttachDlg@@QEAAPEAUHWND__@@XZ 0000000140005ed4 f   Attach.obj
 0001:00004ee0       ?GetInternalProcessData@CProcessData@@IEAAHPEAXPEAUModuleData@1@AEAPEAUPROCESS_PARAMETERS@1@AEAPEAD_N@Z 0000000140005ee0 f i Attach.obj
 0001:00005064       ?GetOpenProcessData@CProcessData@@IEAAXPEAXPEA_WK1K1K@Z 0000000140006064 f i Attach.obj
 0001:00005250       ?GetProcessName@CProcessData@@QEAA_NKPEA_WK0KPEAH@Z 0000000140006250 f i Attach.obj
 0001:000054fc       ?LoadPerfData@CProcessData@@IEAA_NXZ 00000001400064fc f i Attach.obj
 0001:000057d4       ?OnStartAttach@CAttachDlg@@IEAA_NXZ 00000001400067d4 f   Attach.obj
 0001:00005b90       ?StartAttach@CAttachDlg@@KA_NPEAUHWND__@@KKW4AttachProcessType@@HH@Z 0000000140006b90 f   Attach.obj
 0001:0000625c       ?StartAttachThread@CAttachDlg@@SAKPEAUAttachParm@@@Z 000000014000725c f   Attach.obj
 0001:000062dc       ?addsize@?$MArray@ULngDefinition@CLngRc@@@@QEAAX_J@Z 00000001400072dc f i LngRc.obj
 0001:000062dc       ?addsize@?$MArray@H@@QEAAX_J@Z 00000001400072dc f i CmdHistory.obj
 0001:000062dc       ?addsize@?$MArray@ULngRcItem@CLngRc@@@@QEAAX_J@Z 00000001400072dc f i LngRc.obj
 0001:000062dc       ?addsize@?$MArray@UConProcess@@@@QEAAX_J@Z 00000001400072dc f i RealConsole.obj
 0001:000062dc       ?addsize@?$MArray@PEB_W@@QEAAX_J@Z 00000001400072dc f i ConEmu.obj
 0001:000062dc       ?addsize@?$MArray@UMonitorInfoCache@CConEmuSize@@@@QEAAX_J@Z 00000001400072dc f i ConEmuSize.obj
 0001:000062dc       ?addsize@?$MArray@UThreadHandle@CDefTermBase@@@@QEAAX_J@Z 00000001400072dc f i ConEmu.obj
 0001:000062dc       ?addsize@?$MArray@U_FindAllMonitorsItem@@@@QEAAX_J@Z 00000001400072dc f i common-user64:Monitors.obj
 0001:000062dc       ?addsize@?$MArray@UCmdTaskPopupItem@CConEmuMenu@@@@QEAAX_J@Z 00000001400072dc f i Menu.obj
 0001:000062dc       ?addsize@?$MArray@UFoundFile@FastConfig@@@@QEAAX_J@Z 00000001400072dc f i OptionsFast.obj
 0001:000062dc       ?addsize@?$MArray@PEAUHWND__@@@@QEAAX_J@Z 00000001400072dc f i ConEmu.obj
 0001:000062dc       ?addsize@?$MArray@UDlgItem@CDpiForDialog@@@@QEAAX_J@Z 00000001400072dc f i DpiAware.obj
 0001:000062dc       ?addsize@?$MArray@USshAgent@CConEmuMain@@@@QEAAX_J@Z 00000001400072dc f i ConEmu.obj
 0001:000062dc       ?addsize@?$MArray@UAppInfo@AppFoundList@FastConfig@@@@QEAAX_J@Z 00000001400072dc f i OptionsFast.obj
 0001:000062dc       ?addsize@?$MArray@UBtnInfo@@@@QEAAX_J@Z 00000001400072dc f i ImgButton.obj
 0001:000062dc       ?addsize@?$MArray@PEAVCVConGuard@@@@QEAAX_J@Z 00000001400072dc f i VConGroup.obj
 0001:000062dc       ?addsize@?$MArray@UProcessInfo@CDefTermBase@@@@QEAAX_J@Z 00000001400072dc f i ConEmu.obj
 0001:000062dc       ?addsize@?$MArray@URegFont@@@@QEAAX_J@Z 00000001400072dc f i FontMgr.obj
 0001:000062dc       ?addsize@?$MArray@PEA_W@@QEAAX_J@Z 00000001400072dc f i CmdHistory.obj
 0001:000062dc       ?addsize@?$MArray@UtagPROCESSENTRY32W@@@@QEAAX_J@Z 00000001400072dc f i RealConsole.obj
 0001:000062dc       ?addsize@?$MArray@D@@QEAAX_J@Z 00000001400072dc f i Registry.obj
 0001:000062dc       ?addsize@?$MArray@UTabIconCache@CIconList@@@@QEAAX_J@Z 00000001400072dc f i IconList.obj
 0001:000062dc       ?addsize@?$MArray@PEAVCustomFont@@@@QEAAX_J@Z 00000001400072dc f i CustomFonts.obj
 0001:000062dc       ?addsize@?$MArray@UAttachParm@@@@QEAAX_J@Z 00000001400072dc f i Attach.obj
 0001:000062dc       ?addsize@?$MArray@PEAVCTabID@@@@QEAAX_J@Z 00000001400072dc f i TabBar.obj
 0001:000062dc       ?addsize@?$MArray@PEAX@@QEAAX_J@Z 00000001400072dc f i TaskBar.obj
 0001:000062dc       ?addsize@?$MArray@UConEmuHotKey@@@@QEAAX_J@Z 00000001400072dc f i HotkeyList.obj
 0001:000062dc       ?addsize@?$MArray@UHighlightRect@CVirtualConsole@@@@QEAAX_J@Z 00000001400072dc f i VirtualConsole.obj
 0001:000062dc       ?addsize@?$MArray@PEAVCVConGroup@@@@QEAAX_J@Z 00000001400072dc f i VConGroup.obj
 0001:000062dc       ?addsize@?$MArray@PEAVCFont@@@@QEAAX_J@Z 00000001400072dc f i FontMgr.obj
 0001:000062dc       ?addsize@?$MArray@PEAUSwitch@@@@QEAAX_J@Z 00000001400072dc f i SetPgIntegr.obj
 0001:000062dc       ?addsize@?$MArray@URunQueueItem@CRunQueue@@@@QEAAX_J@Z 00000001400072dc f i RunQueue.obj
 0001:000062dc       ?addsize@?$MArray@UGuiMacroArg@@@@QEAAX_J@Z 00000001400072dc f i Macro.obj
 0001:000062dc       ?addsize@?$MArray@Utxt@CFormatCopy@@@@QEAAX_J@Z 00000001400072dc f i RealBuffer.obj
 0001:000062dc       ?addsize@?$MArray@PEAUCommand@CProcessEnvCmd@@@@QEAAX_J@Z 00000001400072dc f i common-user64:ProcessSetEnv.obj
 0001:000062dc       ?addsize@?$MArray@UDragData@CDataObject@@@@QEAAX_J@Z 00000001400072dc f i BaseDragDrops.obj
 0001:000062dc       ?addsize@?$MArray@UVarDef@CVarDefs@FastConfig@@@@QEAAX_J@Z 00000001400072dc f i OptionsFast.obj
 0001:000062dc       ?addsize@?$MArray@UItemInfo@CDynDialog@@@@QEAAX_J@Z 00000001400072dc f i DynDialog.obj
 0001:000062dc       ?addsize@?$MArray@U_ThInfo@CDragDrop@@@@QEAAX_J@Z 00000001400072dc f i DragDrop.obj
 0001:000062dc       ?addsize@?$MArray@UFontHeightInfo@@@@QEAAX_J@Z 00000001400072dc f i FontMgr.obj
 0001:000062dc       ?addsize@?$MArray@PEAVCBackgroundInfo@@@@QEAAX_J@Z 00000001400072dc f i Background.obj
 0001:00006370       ?fNtQueryInformationProcess@CProcessData@@KAJPEAXW4_PROCESSINFOCLASS@1@0KPEAK@Z 0000000140007370 f i Attach.obj
 0001:00006378       ?getModuleFileNameEx@CProcessData@@IEAAKPEAXPEAUHINSTANCE__@@PEA_WK@Z 0000000140007378 f i Attach.obj
 0001:0000642c       ?push_back@?$MArray@UAttachParm@@@@QEAA_JAEBUAttachParm@@@Z 000000014000742c f i Attach.obj
 0001:0000642c       ?push_back@?$MArray@UProcessInfo@CDefTermBase@@@@QEAA_JAEBUProcessInfo@CDefTermBase@@@Z 000000014000742c f i ConEmu.obj
 0001:0000642c       ?push_back@?$MArray@U_FindAllMonitorsItem@@@@QEAA_JAEBU_FindAllMonitorsItem@@@Z 000000014000742c f i common-user64:Monitors.obj
 0001:0000642c       ?push_back@?$MArray@UGuiMacroArg@@@@QEAA_JAEBUGuiMacroArg@@@Z 000000014000742c f i Macro.obj
 0001:000064a4       ??$SafeDelete@VMSection@@@@YAXAEAPEAVMSection@@@Z 00000001400074a4 f i Background.obj
 0001:000064ec       ??$swprintf_c@$0CAI@@@YAHAEAY0CAI@_WPEB_WZZ 00000001400074ec f i Background.obj
 0001:00006518       ??0CBackground@@QEAA@XZ    0000000140007518 f   Background.obj
 0001:00006574       ??0CBackgroundInfo@@IEAA@PEB_W@Z 0000000140007574 f   Background.obj
 0001:00006600       ??1CBackground@@UEAA@XZ    0000000140007600 f   Background.obj
 0001:000066b8       ??1CBackgroundInfo@@MEAA@XZ 00000001400076b8 f   Background.obj
 0001:00006788       ??1CRefRelease@@MEAA@XZ    0000000140007788 f i Background.obj
 0001:00006788       ??1CVConRelease@@UEAA@XZ   0000000140007788 f i VirtualConsole.obj
 0001:00006794       ??_ECBackground@@UEAAPEAXI@Z 0000000140007794 f i Background.obj
 0001:00006794       ??_GCBackground@@UEAAPEAXI@Z 0000000140007794 f i Background.obj
 0001:000067c8       ??_GCBackgroundInfo@@MEAAPEAXI@Z 00000001400077c8 f i Background.obj
 0001:000067c8       ??_ECBackgroundInfo@@MEAAPEAXI@Z 00000001400077c8 f i Background.obj
 0001:000067fc       ??_GCRefRelease@@MEAAPEAXI@Z 00000001400077fc f i Background.obj
 0001:000067fc       ??_ECRefRelease@@MEAAPEAXI@Z 00000001400077fc f i Background.obj
 0001:00006828       ?BgImage@CBackgroundInfo@@QEAAPEB_WXZ 0000000140007828 f   Background.obj
 0001:0000683c       ?CreateBackgroundObject@CBackgroundInfo@@SAPEAV1@PEB_W_N@Z 000000014000783c f   Background.obj
 0001:00006990       ?CreateField@CBackground@@QEAA_NHH@Z 0000000140007990 f   Background.obj
 0001:00006ac4       ?Destroy@CBackground@@AEAAXXZ 0000000140007ac4 f   Background.obj
 0001:00006b18       ?FillBackground@CBackground@@QEAA_NPEBUtagBITMAPFILEHEADER@@JJJJW4BackgroundOp@@_N@Z 0000000140007b18 f   Background.obj
 0001:00006fbc       ?FinalRelease@CTabID@@MEAAXXZ 0000000140007fbc f   TabID.obj
 0001:00006fbc       ?FinalRelease@CRConData@@MEAAXXZ 0000000140007fbc f   RConData.obj
 0001:00006fbc       ?FinalRelease@CBackgroundInfo@@UEAAXXZ 0000000140007fbc f   Background.obj
 0001:00006fbc       ?FinalRelease@CVConGroup@@MEAAXXZ 0000000140007fbc f   VConGroup.obj
 0001:00006fbc       ?FinalRelease@CFont@@MEAAXXZ 0000000140007fbc f   Font.obj
 0001:00006fd8       ?GetBgImgData@CBackgroundInfo@@QEAAPEBUtagBITMAPFILEHEADER@@XZ 0000000140007fd8 f   Background.obj
 0001:00006fe8       ?HasPluginBackgroundImage@CBackground@@QEAA_NPEAJ0@Z 0000000140007fe8 f   Background.obj
 0001:00007034       ?IsBackgroundValid@CBackground@@SAIPEBUCESERVER_REQ_SETBACKGROUND@@PEA_N@Z 0000000140008034 f   Background.obj
 0001:000070ac       ?LoadBackgroundFile@CBackgroundInfo@@QEAA_N_N@Z 00000001400080ac f   Background.obj
 0001:00007234       ?NeedBackgroundUpdate@CBackground@@QEAAXXZ 0000000140008234 f   Background.obj
 0001:00007240       ?PollBackgroundFile@CBackgroundInfo@@QEAA_NXZ 0000000140008240 f   Background.obj
 0001:0000733c       ?PrepareBackground@CBackground@@QEAA_NPEAVCVirtualConsole@@AEAPEAUHDC__@@AEAU_COORD@@@Z 000000014000833c f   Background.obj
 0001:00007798       ?PutPluginBackgroundImage@CBackground@@AEAA_NJJJJ@Z 0000000140008798 f   Background.obj
 0001:00007a8c       ?SetPluginBackgroundImageData@CBackground@@QEAAHPEAUCESERVER_REQ_SETBACKGROUND@@AEA_N@Z 0000000140008a8c f   Background.obj
 0001:00007c7c       ?push_back@?$MArray@PEAUCommand@CProcessEnvCmd@@@@QEAA_JAEBQEAUCommand@CProcessEnvCmd@@@Z 0000000140008c7c f i common-user64:ProcessSetEnv.obj
 0001:00007c7c       ?push_back@?$MArray@PEAVCustomFont@@@@QEAA_JAEBQEAVCustomFont@@@Z 0000000140008c7c f i CustomFonts.obj
 0001:00007c7c       ?push_back@?$MArray@PEAVCFont@@@@QEAA_JAEBQEAVCFont@@@Z 0000000140008c7c f i FontMgr.obj
 0001:00007c7c       ?push_back@?$MArray@PEAVCBackgroundInfo@@@@QEAA_JAEBQEAVCBackgroundInfo@@@Z 0000000140008c7c f i Background.obj
 0001:00007c7c       ?push_back@?$MArray@PEAUHWND__@@@@QEAA_JAEBQEAUHWND__@@@Z 0000000140008c7c f i ConEmu.obj
 0001:00007c7c       ?push_back@?$MArray@PEAVCVConGroup@@@@QEAA_JAEBQEAVCVConGroup@@@Z 0000000140008c7c f i VConGroup.obj
 0001:00007c7c       ?push_back@?$MArray@PEAVCTabID@@@@QEAA_JAEBQEAVCTabID@@@Z 0000000140008c7c f i TabBar.obj
 0001:00007c7c       ?push_back@?$MArray@URunQueueItem@CRunQueue@@@@QEAA_JAEBURunQueueItem@CRunQueue@@@Z 0000000140008c7c f i RunQueue.obj
 0001:00007c7c       ?push_back@?$MArray@PEA_W@@QEAA_JAEBQEA_W@Z 0000000140008c7c f i CmdHistory.obj
 0001:00007c7c       ?push_back@?$MArray@PEAVCVConGuard@@@@QEAA_JAEBQEAVCVConGuard@@@Z 0000000140008c7c f i VConGroup.obj
 0001:00007c7c       ?push_back@?$MArray@PEAUSwitch@@@@QEAA_JAEBQEAUSwitch@@@Z 0000000140008c7c f i SetPgIntegr.obj
 0001:00007c7c       ?push_back@?$MArray@PEB_W@@QEAA_JAEBQEB_W@Z 0000000140008c7c f i ConEmu.obj
 0001:00007c7c       ?push_back@?$MArray@PEAX@@QEAA_JAEBQEAX@Z 0000000140008c7c f i TaskBar.obj
 0001:00007cf0       ??0CBaseDropTarget@@QEAA@XZ 0000000140008cf0 f   BaseDragDrops.obj
 0001:00007d08       ??0CDataObject@@QEAA@PEAUtagFORMATETC@@PEAUtagSTGMEDIUM@@H@Z 0000000140008d08 f   BaseDragDrops.obj
 0001:00007e24       ??0CEnumFormatEtc@@QEAA@PEAUtagFORMATETC@@H@Z 0000000140008e24 f   BaseDragDrops.obj
 0001:00007ea8       ??1CBaseDropTarget@@UEAA@XZ 0000000140008ea8 f   BaseDragDrops.obj
 0001:00007eb4       ??1CDataObject@@UEAA@XZ    0000000140008eb4 f   BaseDragDrops.obj
 0001:00007f70       ??1CEnumFormatEtc@@UEAA@XZ 0000000140008f70 f   BaseDragDrops.obj
 0001:00007fe8       ??_GCBaseDropTarget@@UEAAPEAXI@Z 0000000140008fe8 f i BaseDragDrops.obj
 0001:00007fe8       ??_ECBaseDropTarget@@UEAAPEAXI@Z 0000000140008fe8 f i BaseDragDrops.obj
 0001:00008014       ??_ECDataObject@@UEAAPEAXI@Z 0000000140009014 f i BaseDragDrops.obj
 0001:00008014       ??_GCDataObject@@UEAAPEAXI@Z 0000000140009014 f i BaseDragDrops.obj
 0001:00008048       ??_GCDropSource@@UEAAPEAXI@Z 0000000140009048 f i BaseDragDrops.obj
 0001:00008048       ??_ECDropSource@@UEAAPEAXI@Z 0000000140009048 f i BaseDragDrops.obj
 0001:00008074       ??_ECEnumFormatEtc@@UEAAPEAXI@Z 0000000140009074 f i BaseDragDrops.obj
 0001:00008074       ??_GCEnumFormatEtc@@UEAAPEAXI@Z 0000000140009074 f i BaseDragDrops.obj
 0001:000080a8       ?AddRef@CEnumFormatEtc@@UEAAKXZ 00000001400090a8 f   BaseDragDrops.obj
 0001:000080a8       ?AddRef@CBaseDropTarget@@UEAAKXZ 00000001400090a8 f   BaseDragDrops.obj
 0001:000080a8       ?AddRef@CDataObject@@UEAAKXZ 00000001400090a8 f   BaseDragDrops.obj
 0001:000080b8       ?AddRef@CDropSource@@UEAAKXZ 00000001400090b8 f   BaseDragDrops.obj
 0001:000080c8       ?Clone@CEnumFormatEtc@@UEAAJPEAPEAUIEnumFORMATETC@@@Z 00000001400090c8 f   BaseDragDrops.obj
 0001:00008100       ?CreateDataObject@@YAJPEAUtagFORMATETC@@PEAUtagSTGMEDIUM@@IPEAPEAVCDataObject@@@Z 0000000140009100 f   BaseDragDrops.obj
 0001:00008180       ?CreateDropSource@@YAJPEAPEAUIDropSource@@PEAVCDragDropData@@@Z 0000000140009180 f   BaseDragDrops.obj
 0001:000081f0       ?CreateEnumFormatEtc@@YAJIPEAUtagFORMATETC@@PEAPEAUIEnumFORMATETC@@@Z 00000001400091f0 f   BaseDragDrops.obj
 0001:00008274       ?EnumDAdvise@CDataObject@@UEAAJPEAPEAUIEnumSTATDATA@@@Z 0000000140009274 f   BaseDragDrops.obj
 0001:00008274       ?DUnadvise@CDataObject@@UEAAJK@Z 0000000140009274 f   BaseDragDrops.obj
 0001:00008274       ?DAdvise@CDataObject@@UEAAJPEAUtagFORMATETC@@KPEAUIAdviseSink@@PEAK@Z 0000000140009274 f   BaseDragDrops.obj
 0001:000082cc       _get_startup_new_mode      00000001400092cc f   LIBCMT:new_mode.obj
 0001:000082cc       ?OnEditChanged@CSetPgBase@@UEAA_JPEAUHWND__@@G@Z 00000001400092cc f   SetPgBase.obj
 0001:000082cc       __scrt_initialize_winrt    00000001400092cc f   LIBCMT:utility_desktop.obj
 0001:000082cc       ?OnComboBox@CSetPgBase@@UEAA_JPEAUHWND__@@GG@Z 00000001400092cc f   SetPgBase.obj
 0001:000082cc       ?PageDlgProc@CSetPgBase@@UEAA_JPEAUHWND__@@I_K_J@Z 00000001400092cc f   SetPgANSI.obj
 0001:000082cc       ?GetPageType@CSetPgGeneral@@UEAA?AW4TabHwndIndex@@XZ 00000001400092cc f   SetPgGeneral.obj
 0001:000082cc       ?Drop@CBaseDropTarget@@UEAAJPEAUIDataObject@@KU_POINTL@@PEAK@Z 00000001400092cc f   BaseDragDrops.obj
 0001:000082cc       ?IsUnderline@BDFFont@@UEAAHXZ 00000001400092cc f   CustomFonts.obj
 0001:000082cc       _get_startup_thread_locale_mode 00000001400092cc f   LIBCMT:thread_locale.obj
 0001:000082cc       ?DragOver@CBaseDropTarget@@UEAAJKU_POINTL@@PEAK@Z 00000001400092cc f   BaseDragDrops.obj
 0001:000082cc       ?DragLeave@CBaseDropTarget@@UEAAJXZ 00000001400092cc f   BaseDragDrops.obj
 0001:000082cc       ?DragEnter@CBaseDropTarget@@UEAAJPEAUIDataObject@@KU_POINTL@@PEAK@Z 00000001400092cc f   BaseDragDrops.obj
 0001:000082cc       _get_startup_commit_mode   00000001400092cc f   LIBCMT:commit_mode.obj
 0001:000082cc       ?IsItalic@BDFFont@@UEAAHXZ 00000001400092cc f   CustomFonts.obj
 0001:000082cc       ?OnComboBox@CSetPgComspec@@UEAA_JPEAUHWND__@@GG@Z 00000001400092cc f   SetPgComspec.obj
 0001:000082cc       _matherr                   00000001400092cc f   LIBCMT:matherr.obj
 0001:000082d0       ?DupMem@@YAPEAXPEAX@Z      00000001400092d0 f   BaseDragDrops.obj
 0001:00008344       ?EnumFormatEtc@CDataObject@@UEAAJKPEAPEAUIEnumFORMATETC@@@Z 0000000140009344 f   BaseDragDrops.obj
 0001:000083f4       ?GetCanonicalFormatEtc@CDataObject@@UEAAJPEAUtagFORMATETC@@0@Z 00000001400093f4 f   BaseDragDrops.obj
 0001:00008400       ?GetData@CDataObject@@UEAAJPEAUtagFORMATETC@@PEAUtagSTGMEDIUM@@@Z 0000000140009400 f   BaseDragDrops.obj
 0001:000084d4       ?GetDataHere@CDataObject@@UEAAJPEAUtagFORMATETC@@PEAUtagSTGMEDIUM@@@Z 00000001400094d4 f   BaseDragDrops.obj
 0001:000084dc       ?GiveFeedback@CDropSource@@UEAAJK@Z 00000001400094dc f   BaseDragDrops.obj
 0001:0000859c       ?LookupFormatEtc@CDataObject@@AEAAHPEAUtagFORMATETC@@@Z 000000014000959c f   BaseDragDrops.obj
 0001:000085e8       ?Next@CEnumFormatEtc@@UEAAJKPEAUtagFORMATETC@@PEAK@Z 00000001400095e8 f   BaseDragDrops.obj
 0001:0000867c       ?QueryContinueDrag@CDropSource@@UEAAJHK@Z 000000014000967c f   BaseDragDrops.obj
 0001:000086f4       ?QueryGetData@CDataObject@@UEAAJPEAUtagFORMATETC@@@Z 00000001400096f4 f   BaseDragDrops.obj
 0001:00008714       ?QueryInterface@CBaseDropTarget@@UEAAJAEBU_GUID@@PEAPEAX@Z 0000000140009714 f   BaseDragDrops.obj
 0001:00008778       ?QueryInterface@CDataObject@@UEAAJAEBU_GUID@@PEAPEAX@Z 0000000140009778 f   BaseDragDrops.obj
 0001:000087dc       ?QueryInterface@CDropSource@@UEAAJAEBU_GUID@@PEAPEAX@Z 00000001400097dc f   BaseDragDrops.obj
 0001:00008840       ?QueryInterface@CEnumFormatEtc@@UEAAJAEBU_GUID@@PEAPEAX@Z 0000000140009840 f   BaseDragDrops.obj
 0001:000088a4       ?Release@CEnumFormatEtc@@UEAAKXZ 00000001400098a4 f   BaseDragDrops.obj
 0001:000088a4       ?Release@CBaseDropTarget@@UEAAKXZ 00000001400098a4 f   BaseDragDrops.obj
 0001:000088cc       ?Release@CDataObject@@UEAAKXZ 00000001400098cc f   BaseDragDrops.obj
 0001:000088f4       ?Release@CDropSource@@UEAAKXZ 00000001400098f4 f   BaseDragDrops.obj
 0001:0000891c       ?Reset@CEnumFormatEtc@@UEAAJXZ 000000014000991c f   BaseDragDrops.obj
 0001:00008924       ?SetData@CDataObject@@UEAAJPEAUtagFORMATETC@@PEAUtagSTGMEDIUM@@H@Z 0000000140009924 f   BaseDragDrops.obj
 0001:00008a2c       ?SetDataInt@CDataObject@@QEAAJPEB_WPEBXK@Z 0000000140009a2c f   BaseDragDrops.obj
 0001:00008ad8       ?Skip@CEnumFormatEtc@@UEAAJK@Z 0000000140009ad8 f   BaseDragDrops.obj
 0001:00008ae8       ?push_back@?$MArray@UDragData@CDataObject@@@@QEAA_JAEBUDragData@CDataObject@@@Z 0000000140009ae8 f i BaseDragDrops.obj
 0001:00008ae8       ?push_back@?$MArray@UItemInfo@CDynDialog@@@@QEAA_JAEBUItemInfo@CDynDialog@@@Z 0000000140009ae8 f i DynDialog.obj
 0001:00008b60       ??0CommandHistory@@QEAA@H@Z 0000000140009b60 f   CmdHistory.obj
 0001:00008b8c       ??1CommandHistory@@QEAA@XZ 0000000140009b8c f   CmdHistory.obj
 0001:00008bc8       ?Add@CommandHistory@@QEAAXPEB_W_N@Z 0000000140009bc8 f   CmdHistory.obj
 0001:00008d84       ?Compare@CommandHistory@@QEAAHHPEB_W@Z 0000000140009d84 f   CmdHistory.obj
 0001:00008dd4       ?CreateMSZ@CommandHistory@@QEAAIAEAPEA_W@Z 0000000140009dd4 f   CmdHistory.obj
 0001:00008f30       ?FreeItems@CommandHistory@@QEAAXXZ 0000000140009f30 f   CmdHistory.obj
 0001:00008f84       ?Get@CommandHistory@@QEAAPEB_WH@Z 0000000140009f84 f   CmdHistory.obj
 0001:00008fb0       ?ParseMSZ@CommandHistory@@QEAAXPEB_W@Z 0000000140009fb0 f   CmdHistory.obj
 0001:00009038       ?insert@?$MArray@PEAUCommand@CProcessEnvCmd@@@@QEAAX_JAEBQEAUCommand@CProcessEnvCmd@@@Z 000000014000a038 f i common-user64:ProcessSetEnv.obj
 0001:00009038       ?insert@?$MArray@PEA_W@@QEAAX_JAEBQEA_W@Z 000000014000a038 f i CmdHistory.obj
 0001:00009038       ?insert@?$MArray@PEAVCTabID@@@@QEAAX_JAEBQEAVCTabID@@@Z 000000014000a038 f i TabBar.obj
 0001:000090d8       ?push_back@?$MArray@H@@QEAA_JAEBH@Z 000000014000a0d8 f i CmdHistory.obj
 0001:0000914c       ??0ColorFix@@QEAA@K@Z      000000014000a14c f   ColorFix.obj
 0001:00009168       ??0ColorFix@@QEAA@XZ       000000014000a168 f   ColorFix.obj
 0001:0000917c       ??0dE00@@QEAA@UColorFix@@0NNN@Z 000000014000a17c f i ColorFix.obj
 0001:0000941c       ?DeltaE@ColorFix@@QEAANU1@@Z 000000014000a41c f   ColorFix.obj
 0001:00009468       ?DeltaE@ColorSpace@@YANUColorFix@@0@Z 000000014000a468 f   ColorFix.obj
 0001:000094e0       ?PerceivableColor@ColorFix@@QEAA_NKAEAU1@PEAN1@Z 000000014000a4e0 f   ColorFix.obj
 0001:000096a8       ?ToLab@ColorFix@@QEAAXXZ   000000014000a6a8 f   ColorFix.obj
 0001:000096f0       ?getDeltaE@dE00@@QEAANXZ   000000014000a6f0 f i ColorFix.obj
 0001:00009918       ?getDeltahPrime@dE00@@QEAANXZ 000000014000a918 f i ColorFix.obj
 0001:00009984       ?getRsubT@dE00@@QEAANXZ    000000014000a984 f i ColorFix.obj
 0001:00009a44       ?getT@dE00@@QEAANXZ        000000014000aa44 f i ColorFix.obj
 0001:00009b1c       ?lab2rgb@ColorSpace@@YAXNNNAEAK@Z 000000014000ab1c f   ColorFix.obj
 0001:00009bdc       ?lab2rgb@ColorSpace@@YAXNNNAEAN00@Z 000000014000abdc f   ColorFix.obj
 0001:00009e84       ?rgb2lab@ColorSpace@@YAXNNNAEAN00@Z 000000014000ae84 f   ColorFix.obj
 0001:0000a12c       ??$SafeDelete@UCEFindDlg@@@@YAXAEAPEAUCEFindDlg@@@Z 000000014000b12c f i ConEmu.obj
 0001:0000a15c       ??$SafeDelete@VCPushInfo@@@@YAXAEAPEAVCPushInfo@@@Z 000000014000b15c f i ConEmu.obj
 0001:0000a15c       ??$SafeDelete@VCRConFiles@@@@YAXAEAPEAVCRConFiles@@@Z 000000014000b15c f i RealConsole.obj
 0001:0000a15c       ??$SafeDelete@UHandleMonitor@@@@YAXAEAPEAUHandleMonitor@@@Z 000000014000b15c f i ConEmu.obj
 0001:0000a1a4       ??$SafeDelete@UMSectionLockSimple@@@@YAXAEAPEAUMSectionLockSimple@@@Z 000000014000b1a4 f i ConEmu.obj
 0001:0000a1ec       ??$SafeDelete@UMSectionSimple@@@@YAXAEAPEAUMSectionSimple@@@Z 000000014000b1ec f i ConEmu.obj
 0001:0000a234       ??$SafeDelete@VCAltNumpad@@@@YAXAEAPEAVCAltNumpad@@@Z 000000014000b234 f i ConEmu.obj
 0001:0000a27c       ??$SafeDelete@VCAttachDlg@@@@YAXAEAPEAVCAttachDlg@@@Z 000000014000b27c f i ConEmu.obj
 0001:0000a2c4       ??$SafeDelete@VCConEmuMenu@@@@YAXAEAPEAVCConEmuMenu@@@Z 000000014000b2c4 f i ConEmu.obj
 0001:0000a30c       ??$SafeDelete@VCDefaultTerminal@@@@YAXAEAPEAVCDefaultTerminal@@@Z 000000014000b30c f i ConEmu.obj
 0001:0000a344       ??$SafeDelete@VCDragDrop@@@@YAXAEAPEAVCDragDrop@@@Z 000000014000b344 f i ConEmu.obj
 0001:0000a37c       ??$SafeDelete@VCRecreateDlg@@@@YAXAEAPEAVCRecreateDlg@@@Z 000000014000b37c f i ConEmu.obj
 0001:0000a3c4       ??$SafeDelete@VCRunQueue@@@@YAXAEAPEAVCRunQueue@@@Z 000000014000b3c4 f i ConEmu.obj
 0001:0000a40c       ??$sprintf_c@$0CAA@@@YAHAEAY0CAA@DPEBDZZ 000000014000b40c f i ConEmu.obj
 0001:0000a438       ??$sprintf_c@$0GE@@@YAHAEAY0GE@DPEBDZZ 000000014000b438 f i ConEmu.obj
 0001:0000a464       ??$sprintf_c@$0IA@@@YAHAEAY0IA@DPEBDZZ 000000014000b464 f i ConEmu.obj
 0001:0000a490       ??$swprintf_c@$09@@YAHAEAY09_WPEB_WZZ 000000014000b490 f i ConEmu.obj
 0001:0000a4bc       ??$swprintf_c@$0BA@@@YAHAEAY0BA@_WPEB_WZZ 000000014000b4bc f i ConEmu.obj
 0001:0000a4e8       ??$swprintf_c@$0BFE@@@YAHAEAY0BFE@_WPEB_WZZ 000000014000b4e8 f i ConEmu.obj
 0001:0000a514       ??$swprintf_c@$0CAA@@@YAHAEAY0CAA@_WPEB_WZZ 000000014000b514 f i ConEmu.obj
 0001:0000a540       ??$swprintf_c@$0EA@@@YAHAEAY0EA@_WPEB_WZZ 000000014000b540 f i ConEmu.obj
 0001:0000a56c       ??$swprintf_c@$0GE@@@YAHAEAY0GE@_WPEB_WZZ 000000014000b56c f i ConEmu.obj
 0001:0000a598       ??$swprintf_c@$0IM@@@YAHAEAY0IM@_WPEB_WZZ 000000014000b598 f i ConEmu.obj
 0001:0000a5c4       ??$swprintf_c@$0KA@@@YAHAEAY0KA@_WPEB_WZZ 000000014000b5c4 f i ConEmu.obj
 0001:0000a5f0       ??$swprintf_c@$0MI@@@YAHAEAY0MI@_WPEB_WZZ 000000014000b5f0 f i ConEmu.obj
 0001:0000a61c       ??$swprintf_c@$0PP@@@YAHAEAY0PP@_WPEB_WZZ 000000014000b61c f i ConEmu.obj
 0001:0000a648       ??$ultow_s@$0BE@@@YAPEB_WIAEAY0BE@_WH@Z 000000014000b648 f i ConEmu.obj
 0001:0000a674       ??0CConEmuMain@@QEAA@XZ    000000014000b674 f   ConEmu.obj
 0001:0000b968       ??0MWow64Disable@@QEAA@XZ  000000014000c968 f i ConEmu.obj
 0001:0000b9dc       ??1?$MFileMapping@UConEmuGuiMapping@@@@QEAA@XZ 000000014000c9dc f i ConEmu.obj
 0001:0000b9dc       ??1?$MFileMapping@UCESERVER_CONSAVE_MAP@@@@QEAA@XZ 000000014000c9dc f i RealBuffer.obj
 0001:0000b9dc       ??1?$MFileMapping@$$CBUCEFAR_INFO_MAPPING@@@@QEAA@XZ 000000014000c9dc f i RealConsole.obj
 0001:0000b9dc       ??1?$MFileMapping@UPanelViewSetMapping@@@@QEAA@XZ 000000014000c9dc f i OptionsClass.obj
 0001:0000b9dc       ??1?$MFileMapping@UCESERVER_CONSAVE_MAPHDR@@@@QEAA@XZ 000000014000c9dc f i RealBuffer.obj
 0001:0000b9dc       ??1?$MFileMapping@Utag_DetectedDialog@@@@QEAA@XZ 000000014000c9dc f i VirtualConsole.obj
 0001:0000b9dc       ??1?$MFileMapping@UCESERVER_CONSOLE_APP_MAPPING@@@@QEAA@XZ 000000014000c9dc f i RealConsole.obj
 0001:0000b9dc       ??1?$MFileMapping@UCESERVER_CONSOLE_MAPPING_HDR@@@@QEAA@XZ 000000014000c9dc f i RealConsole.obj
 0001:0000ba34       ??1?$MMap@IPEBD$0A@@@QEAA@XZ 000000014000ca34 f i ConEmu.obj
 0001:0000ba34       ??1?$MMap@PEAVCVConGroup@@PEAVCVirtualConsole@@$0A@@@QEAA@XZ 000000014000ca34 f i TabBar.obj
 0001:0000ba34       ??1?$MMap@KH$0A@@@QEAA@XZ  000000014000ca34 f i RealConsole.obj
 0001:0000ba84       ??1CConEmuMain@@UEAA@XZ    000000014000ca84 f   ConEmu.obj
 0001:0000be8c       ??1MWow64Disable@@QEAA@XZ  000000014000ce8c f i ConEmu.obj
 0001:0000beb8       ??_ECConEmuMain@@WBCA@EAAPEAXI@Z 000000014000ceb8 f i ConEmu.obj
 0001:0000bec4       ??_ECConEmuMain@@WBJA@EAAPEAXI@Z 000000014000cec4 f i ConEmu.obj
 0001:0000bed0       ??_ECConEmuMain@@WBOA@EAAPEAXI@Z 000000014000ced0 f i ConEmu.obj
 0001:0000bedc       ??_ECConEmuMain@@WCCA@EAAPEAXI@Z 000000014000cedc f i ConEmu.obj
 0001:0000bee8       ??_ECConEmuMain@@WCGI@EAAPEAXI@Z 000000014000cee8 f i ConEmu.obj
 0001:0000bef4       ??_ECConEmuMain@@WEPA@EAAPEAXI@Z 000000014000cef4 f i ConEmu.obj
 0001:0000bf00       ??_ECConEmuMain@@UEAAPEAXI@Z 000000014000cf00 f i ConEmu.obj
 0001:0000bf00       ??_GCConEmuMain@@UEAAPEAXI@Z 000000014000cf00 f i ConEmu.obj
 0001:0000bf34       ?Activate@CConEmuMain@@QEAAHPEAVCVirtualConsole@@@Z 000000014000cf34 f   ConEmu.obj
 0001:0000bfa8       ?ActiveConNum@CConEmuMain@@QEAAHXZ 000000014000cfa8 f   ConEmu.obj
 0001:0000bfb0       ?AddPostGuiRConMacro@CConEmuMain@@QEAAXPEB_W@Z 000000014000cfb0 f   ConEmu.obj
 0001:0000bfbc       ?AppendExtraArgs@CConEmuMain@@QEAAXPEB_W0@Z 000000014000cfbc f   ConEmu.obj
 0001:0000c078       ?AppendHKL@CConEmuMain@@IEAAXPEA_W_KPEAPEAUHKL__@@H@Z 000000014000d078 f   ConEmu.obj
 0001:0000c11c       ?AppendRegisteredLayouts@CConEmuMain@@IEAAXPEA_W_K@Z 000000014000d11c f   ConEmu.obj
 0001:0000c1cc       ?AskChangeAlternative@CConEmuMain@@QEAAXXZ 000000014000d1cc f   ConEmu.obj
 0001:0000c268       ?AskChangeBufferHeight@CConEmuMain@@QEAAXXZ 000000014000d268 f   ConEmu.obj
 0001:0000c358       ?AttachToDialog@CConEmuMain@@QEAAXXZ 000000014000d358 f   ConEmu.obj
 0001:0000c3a8       ?CallMainThread@CConEmuMain@@QEAA_J_NP6A_J_J@Z1@Z 000000014000d3a8 f   ConEmu.obj
 0001:0000c4b4       ?CanSetChildFocus@CConEmuMain@@QEAA_NXZ 000000014000d4b4 f   ConEmu.obj
 0001:0000c4d0       ?ChangeWorkDir@CConEmuMain@@QEAA_NPEB_W@Z 000000014000d4d0 f   ConEmu.obj
 0001:0000c510       ?CheckActiveLayoutName@CConEmuMain@@IEAAXXZ 000000014000d510 f   ConEmu.obj
 0001:0000c6fc       ?CheckAllowAutoChildFocus@CConEmuMain@@QEAAXK@Z 000000014000d6fc f   ConEmu.obj
 0001:0000c7c8       ?CheckBaseDir@CConEmuMain@@AEAA_NXZ 000000014000d7c8 f   ConEmu.obj
 0001:0000c894       ?CheckDosBoxExists@CConEmuMain@@AEAAHXZ 000000014000d894 f   ConEmu.obj
 0001:0000c970       ?CheckFocus@CConEmuMain@@QEAAXPEB_W@Z 000000014000d970 f   ConEmu.obj
 0001:0000cc24       ?CheckForeground@CDefTermBase@@QEAA_NPEAUHWND__@@K_N1@Z 000000014000dc24 f i ConEmu.obj
 0001:0000d0d8       ?CheckNeedRepaint@CConEmuMain@@QEAAXXZ 000000014000e0d8 f   ConEmu.obj
 0001:0000d170       ?CheckNeedUpdateTitle@CConEmuMain@@QEAAXPEB_W@Z 000000014000e170 f   ConEmu.obj
 0001:0000d1b4       ?CheckPanelDrag@CConEmuMain@@QEAA?AW4DragPanelBorder@@U_COORD@@@Z 000000014000e1b4 f   ConEmu.obj
 0001:0000d480       ?CheckRequiredFiles@CConEmuMain@@QEAA_NXZ 000000014000e480 f   ConEmu.obj
 0001:0000d8e0       ?CheckShellWindow@CDefTermBase@@IEAA_NXZ 000000014000e8e0 f i ConEmu.obj
 0001:0000da80       ?CheckUpdates@CConEmuMain@@QEAA_NI@Z 000000014000ea80 f   ConEmu.obj
 0001:0000dae4       ?ClearProcessed@CDefTermBase@@IEAAX_N@Z 000000014000eae4 f i ConEmu.obj
 0001:0000dc1c       ?CloseConfirmFlags@CConEmuMain@@QEAAEXZ 000000014000ec1c f   ConEmu.obj
 0001:0000dc38       ?ConActivate@CConEmuMain@@QEAA_NH@Z 000000014000ec38 f   ConEmu.obj
 0001:0000dc40       ?ConActivateByName@CConEmuMain@@QEAA_NPEB_W@Z 000000014000ec40 f   ConEmu.obj
 0001:0000dc48       ?ConActivateNext@CConEmuMain@@QEAA_N_N@Z 000000014000ec48 f   ConEmu.obj
 0001:0000dc50       ?ConEmuCExeFull@CConEmuMain@@QEAAPEB_WPEB_W@Z 000000014000ec50 f   ConEmu.obj
 0001:0000e094       ?ConEmuIni@CConEmuMain@@QEAAPEA_WXZ 000000014000f094 f   ConEmu.obj
 0001:0000e1b4       ?ConEmuXml@CConEmuMain@@QEAAPEA_WPEA_N@Z 000000014000f1b4 f   ConEmu.obj
 0001:0000e2c0       ?CreateCon@CConEmuMain@@QEAAPEAVCVirtualConsole@@PEAURConStartArgsEx@@_N1@Z 000000014000f2c0 f   ConEmu.obj
 0001:0000e304       ?CreateConGroup@CConEmuMain@@QEAAPEAVCVirtualConsole@@PEB_W_N0PEBURConStartArgsEx@@@Z 000000014000f304 f   ConEmu.obj
 0001:0000e7d0       ?CreateGhostVCon@CConEmuMain@@QEAAXPEAVCVirtualConsole@@@Z 000000014000f7d0 f   ConEmu.obj
 0001:0000e7ec       ?CreateGuiAttachMapping@CConEmuMain@@QEAAXK@Z 000000014000f7ec f   ConEmu.obj
 0001:0000e8a0       ?CreateLog@CConEmuMain@@QEAA_NXZ 000000014000f8a0 f   ConEmu.obj
 0001:0000ea24       ?CreateMainWindow@CConEmuMain@@QEAAHXZ 000000014000fa24 f   ConEmu.obj
 0001:0000f184       ?CreateStartupConsoles@CConEmuMain@@IEAA_NXZ 0000000140010184 f   ConEmu.obj
 0001:0000f620       ?CreateWnd@CConEmuMain@@QEAA_NPEAURConStartArgsEx@@@Z 0000000140010620 f   ConEmu.obj
 0001:0000f990       ?CreateWorkWindow@CConEmuMain@@QEAAHXZ 0000000140010990 f   ConEmu.obj
 0001:0000faa4       ?CtrlWinAltSpace@CConEmuMain@@QEAAXXZ 0000000140010aa4 f   ConEmu.obj
 0001:0000fb00       ?DebugStep@CConEmuMain@@QEAAXPEB_WH@Z 0000000140010b00 f   ConEmu.obj
 0001:0000fbf0       ?DeinitOnDestroy@CConEmuMain@@AEAAXPEAUHWND__@@_N@Z 0000000140010bf0 f   ConEmu.obj
 0001:0000fdc0       ?DeleteVConMainThread@CConEmuMain@@QEAAXPEAVCVirtualConsole@@@Z 0000000140010dc0 f   ConEmu.obj
 0001:0000fddc       ?Destroy@CConEmuMain@@QEAAX_N@Z 0000000140010ddc f   ConEmu.obj
 0001:0000ff00       ?DestroyAllChildWindows@CConEmuMain@@AEAAXXZ 0000000140010f00 f   ConEmu.obj
 0001:0000ffac       ?DoFlashWindow@CConEmuMain@@QEAAXPEAUCESERVER_REQ_FLASHWINFO@@_N@Z 0000000140010fac f   ConEmu.obj
 0001:00010038       ?EnterAltNumpadMode@CConEmuMain@@QEAAXI@Z 0000000140011038 f   ConEmu.obj
 0001:0001008c       ?EnumKeysValues@?$MMap@IPEBD$0A@@@QEAA_NP6A_NAEBIAEBQEBD_J@Z2@Z 000000014001108c f i ConEmu.obj
 0001:00010150       ?EnumWindowsOverQuake@CConEmuMain@@KAHPEAUHWND__@@_J@Z 0000000140011150 f   ConEmu.obj
 0001:0001028c       ?ExecPostGuiMacro@CConEmuMain@@QEAAXXZ 000000014001128c f   ConEmu.obj
 0001:000103b4       ?Load@SettingsINI@@UEAA_NPEB_WPEA_WH@Z 00000001400113b4 f   Registry.obj
 0001:000103b4       ?NotifyHookingStatus@CDefTermBase@@MEAA_NKPEB_W@Z 00000001400113b4 f   DefaultTerm.obj
 0001:000103b4       ?Load@SettingsINI@@UEAA_NPEB_WPEAPEA_W@Z 00000001400113b4 f   Registry.obj
 0001:000103b4       ?Load@SettingsINI@@UEAA_NPEB_WPEAEK@Z 00000001400113b4 f   Registry.obj
 0001:000103b4       ?ExecuteProcessPrepare@CConEmuMain@@IEAA_NXZ 00000001400113b4 f   ConEmu.obj
 0001:000103b4       ?isLogging@CDefTermBase@@UEAA_NXZ 00000001400113b4 f   DefaultTerm.obj
 0001:000103b4       ?SelectNextItem@CSetPgBase@@UEAA_N_N0@Z 00000001400113b4 f   SetPgANSI.obj
 0001:00010484       ?FillConEmuMainFont@CConEmuMain@@AEAAXPEAUConEmuMainFont@@@Z 0000000140011484 f   ConEmu.obj
 0001:00010554       ?FindConEmuXml@CConEmuMain@@QEAAPEB_WAEAUCEStr@@@Z 0000000140011554 f   ConEmu.obj
 0001:00010750       ?FixWindowStyle@CConEmuMain@@QEAAKKW4ConEmuWindowMode@@@Z 0000000140011750 f   ConEmu.obj
 0001:00010878       ?ForceSelectionModifierPressed@CConEmuMain@@QEAAXK@Z 0000000140011878 f   ConEmu.obj
 0001:0001088c       ?ForceShowTabs@CConEmuMain@@QEAAXH@Z 000000014001188c f   ConEmu.obj
 0001:00010908       ?GetActiveKeyboardLayout@CConEmuMain@@QEAA_KXZ 0000000140011908 f   ConEmu.obj
 0001:00010918       ?GetActiveVCon@CConEmuMain@@QEAAHPEAVCVConGuard@@PEAH@Z 0000000140011918 f   ConEmu.obj
 0001:00010924       ?GetComSpecCopy@CConEmuMain@@QEAAXAEAUConEmuComspec@@@Z 0000000140011924 f   ConEmu.obj
 0001:0001093c       ?GetConCount@CConEmuMain@@QEAAHXZ 000000014001193c f   ConEmu.obj
 0001:00010944       ?GetCurrentVConIcon@CConEmuMain@@QEAAPEAUHICON__@@XZ 0000000140011944 f   ConEmu.obj
 0001:000109c0       ?GetDefaultTabLabel@CConEmuMain@@QEAAPEB_WXZ 00000001400119c0 f   ConEmu.obj
 0001:000109c8       ?GetDefaultTitle@CConEmuMain@@QEAAPEB_WXZ 00000001400119c8 f   ConEmu.obj
 0001:000109d0       ?GetFarPID@CConEmuMain@@QEAAK_N@Z 00000001400119d0 f   ConEmu.obj
 0001:000109d8       ?GetGuiInfo@CConEmuMain@@QEAAXAEAUConEmuGuiMapping@@@Z 00000001400119d8 f   ConEmu.obj
 0001:000109f0       ?GetLastTitle@CConEmuMain@@QEAAPEB_W_N@Z 00000001400119f0 f   ConEmu.obj
 0001:00010a1c       ?GetRegisteredMessage@CConEmuMain@@QEAAIPEBDPEB_W@Z 0000000140011a1c f   ConEmu.obj
 0001:00010a80       ?GetRootHWND@CConEmuMain@@QEAAPEAUHWND__@@XZ 0000000140011a80 f   ConEmu.obj
 0001:00010ab0       ?GetStartupStage@CConEmuMain@@QEBA?AW4StartupStage@1@XZ 0000000140011ab0 f   ConEmu.obj
 0001:00010ab8       ?GetWindowStyle@CConEmuMain@@QEAAKXZ 0000000140011ab8 f   ConEmu.obj
 0001:00010ad8       ?GetWindowStyleEx@CConEmuMain@@QEAAKXZ 0000000140011ad8 f   ConEmu.obj
 0001:00010b24       ?GlobalHotKeyChanged@CConEmuMain@@QEAAXXZ 0000000140011b24 f   ConEmu.obj
 0001:00010b5c       ?InCreateWindow@CConEmuMain@@QEAA_NXZ 0000000140011b5c f   ConEmu.obj
 0001:00010b68       ?InQuakeAnimation@CConEmuMain@@QEAA_NXZ 0000000140011b68 f   ConEmu.obj
 0001:00010b74       ?Init@?$MMap@IPEBD$0A@@@QEAA_N_K_N@Z 0000000140011b74 f i ConEmu.obj
 0001:00010be8       ?Init@CConEmuMain@@QEAAHXZ 0000000140011be8 f   ConEmu.obj
 0001:00010ca0       ?InitComSpecStr@CConEmuMain@@QEAAXAEAUConEmuComspec@@@Z 0000000140011ca0 f   ConEmu.obj
 0001:00010cec       ?InitInactiveDC@CConEmuMain@@QEAAXPEAVCVirtualConsole@@@Z 0000000140011cec f   ConEmu.obj
 0001:00010d08       ?InitName@?$MFileMapping@Utag_DetectedDialog@@@@QEAAPEB_WPEB_WKK@Z 0000000140011d08 f i VirtualConsole.obj
 0001:00010d08       ?InitName@?$MFileMapping@$$CBUCEFAR_INFO_MAPPING@@@@QEAAPEB_WPEB_WKK@Z 0000000140011d08 f i RealConsole.obj
 0001:00010d08       ?InitName@?$MFileMapping@UCESERVER_CONSAVE_MAP@@@@QEAAPEB_WPEB_WKK@Z 0000000140011d08 f i RealBuffer.obj
 0001:00010d08       ?InitName@?$MFileMapping@UAnnotationHeader@@@@QEAAPEB_WPEB_WKK@Z 0000000140011d08 f i RealConsole.obj
 0001:00010d08       ?InitName@?$MFileMapping@UCESERVER_CONSOLE_MAPPING_HDR@@@@QEAAPEB_WPEB_WKK@Z 0000000140011d08 f i RealConsole.obj
 0001:00010d08       ?InitName@?$MFileMapping@UCESERVER_CONSOLE_APP_MAPPING@@@@QEAAPEB_WPEB_WKK@Z 0000000140011d08 f i RealConsole.obj
 0001:00010d08       ?InitName@?$MFileMapping@UCESERVER_CONSAVE_MAPHDR@@@@QEAAPEB_WPEB_WKK@Z 0000000140011d08 f i RealBuffer.obj
 0001:00010d08       ?InitName@?$MFileMapping@UConEmuGuiMapping@@@@QEAAPEB_WPEB_WKK@Z 0000000140011d08 f i ConEmu.obj
 0001:00010d08       ?InitName@?$MFileMapping@UPanelViewSetMapping@@@@QEAAPEB_WPEB_WKK@Z 0000000140011d08 f i OptionsClass.obj
 0001:00010da4       ?InternalOpenCreate@?$MFileMapping@UConEmuGuiMapping@@@@IEAAPEAUConEmuGuiMapping@@HHH@Z 0000000140011da4 f i ConEmu.obj
 0001:00010f58       ?Invalidate@CConEmuMain@@QEAAXPEAUtagRECT@@H@Z 0000000140011f58 f   ConEmu.obj
 0001:00010f68       ?InvalidateAll@CConEmuMain@@QEAAXXZ 0000000140011f68 f   ConEmu.obj
 0001:00010fa8       ?InvalidateFrame@CConEmuMain@@QEAAXXZ 0000000140011fa8 f   ConEmu.obj
 0001:00011074       ?InvalidateGaps@CConEmuMain@@QEAAXXZ 0000000140012074 f   ConEmu.obj
 0001:00011094       ?IsActiveConAdmin@CConEmuMain@@QEAA_NXZ 0000000140012094 f   ConEmu.obj
 0001:000110f0       ?IsAllowSaveSettingsOnExit@CConEmuMain@@QEAA_NXZ 00000001400120f0 f   ConEmu.obj
 0001:0001111c       ?IsAppMonitored@CDefTermBase@@QEAA_NPEAUHWND__@@K_NPEAUtagPROCESSENTRY32W@@PEA_W@Z 000000014001211c f i ConEmu.obj
 0001:000113e0       ?IsChildFocusAllowed@CConEmuMain@@QEAA_NPEAUHWND__@@@Z 00000001400123e0 f   ConEmu.obj
 0001:00011478       ?IsConsoleBatchOrTask@CConEmuMain@@SA_WPEB_W@Z 0000000140012478 f   ConEmu.obj
 0001:00011540       ?IsFastSetupDisabled@CConEmuMain@@QEAA_NXZ 0000000140012540 f   ConEmu.obj
 0001:0001155c       ?IsKeyboardHookRegistered@CConEmuMain@@QEAA_NXZ 000000014001255c f   ConEmu.obj
 0001:00011568       ?IsQuakeVisible@CConEmuMain@@QEAAIXZ 0000000140012568 f   ConEmu.obj
 0001:00011710       ?IsResetBasicSettings@CConEmuMain@@QEAA_NXZ 0000000140012710 f   ConEmu.obj
 0001:00011720       ?LoadConEmuCD@CConEmuMain@@IEAAPEAUHINSTANCE__@@XZ 0000000140012720 f   ConEmu.obj
 0001:000117cc       ?LoadConsoleBatch@CConEmuMain@@QEAAPEA_WPEB_WPEAURConStartArgsEx@@@Z 00000001400127cc f   ConEmu.obj
 0001:000118d8       ?LoadConsoleBatch_Drops@CConEmuMain@@AEAAPEA_WPEB_W@Z 00000001400128d8 f   ConEmu.obj
 0001:00011d8c       ?LoadConsoleBatch_File@CConEmuMain@@AEAAPEA_WPEB_W@Z 0000000140012d8c f   ConEmu.obj
 0001:00011f90       ?LoadConsoleBatch_Task@CConEmuMain@@AEAAPEA_WPEB_WPEAURConStartArgsEx@@@Z 0000000140012f90 f   ConEmu.obj
 0001:0001236c       ?LoadIcons@CConEmuMain@@QEAAXXZ 000000014001336c f   ConEmu.obj
 0001:000127b4       ?LockConhostStart@CConEmuMain@@QEAA_NXZ 00000001400137b4 f   ConEmu.obj
 0001:0001280c       ?Log@ConEmuMsgLogger@@YAXAEBUtagMSG@@W4Source@1@@Z 000000014001380c f i ConEmu.obj
 0001:00012884       ?Log@SessionInfo@CConEmuMain@@QEAAX_K_J@Z 0000000140013884 f   ConEmu.obj
 0001:000128ec       ?LogFocusInfo@@YAXPEB_WH@Z 00000001400138ec f   ConEmu.obj
 0001:00012a1c       ?LogMessage@CConEmuMain@@QEAA_NPEAUHWND__@@I_K_J@Z 0000000140013a1c f   ConEmu.obj
 0001:00012e64       ?LogPos@ConEmuMsgLogger@@YAXAEBUtagMSG@@W4Source@1@@Z 0000000140013e64 f   ConEmu.obj
 0001:00013008       ?LogString@CConEmuMain@@QEAA_NPEBD_N1@Z 0000000140014008 f   ConEmu.obj
 0001:0001303c       ?LogString@CConEmuMain@@QEAA_NPEB_W_N1@Z 000000014001403c f   ConEmu.obj
 0001:0001306c       ?LogWindowPos@CConEmuMain@@QEAA_NPEB_WPEAUtagRECT@@@Z 000000014001406c f   ConEmu.obj
 0001:0001327c       ?MainWndProc@CConEmuMain@@SA_JPEAUHWND__@@I_K_J@Z 000000014001427c f   ConEmu.obj
 0001:000133b0       ?MakeConEmuStartArgs@CConEmuMain@@QEAAPEB_WAEAUCEStr@@PEB_W@Z 00000001400143b0 f   ConEmu.obj
 0001:000135d8       ?MemoryDumpActiveProcess@CConEmuMain@@QEAA_N_N@Z 00000001400145d8 f   ConEmu.obj
 0001:000136ac       ?MoveActiveTab@CConEmuMain@@QEAAXPEAVCVirtualConsole@@_N@Z 00000001400146ac f   ConEmu.obj
 0001:000136b8       ?OnActivateByMouse@CConEmuMain@@QEAA_JPEAUHWND__@@I_K_J@Z 00000001400146b8 f   ConEmu.obj
 0001:00013964       ?OnActivateSplitChanged@CConEmuMain@@QEAAXXZ 0000000140014964 f   ConEmu.obj
 0001:00013a00       ?OnActiveConWndStore@CConEmuMain@@QEAAXPEAUHWND__@@@Z 0000000140014a00 f   ConEmu.obj
 0001:00013a70       ?OnAllGhostClosed@CConEmuMain@@QEAAXXZ 0000000140014a70 f   ConEmu.obj
 0001:00013b18       ?OnAllVConClosed@CConEmuMain@@QEAAXXZ 0000000140014b18 f   ConEmu.obj
 0001:00013c20       ?OnAlwaysShowScrollbar@CConEmuMain@@QEAAX_N@Z 0000000140014c20 f   ConEmu.obj
 0001:00013c28       ?OnBufferHeight@CConEmuMain@@QEAAXXZ 0000000140014c28 f   ConEmu.obj
 0001:00013d1c       ?OnCreate@CConEmuMain@@QEAA_JPEAUHWND__@@PEAUtagCREATESTRUCTW@@@Z 0000000140014d1c f   ConEmu.obj
 0001:00013e7c       ?OnCreateFinished@CConEmuMain@@QEAAXXZ 0000000140014e7c f   ConEmu.obj
 0001:00013ff0       ?OnDefaultTermChanged@CConEmuMain@@QEAAXXZ 0000000140014ff0 f   ConEmu.obj
 0001:00014028       ?OnDestroy@CConEmuMain@@QEAA_JPEAUHWND__@@@Z 0000000140015028 f   ConEmu.obj
 0001:000140f0       ?OnFlashWindow@CConEmuMain@@QEAA_J_K_J@Z 00000001400150f0 f   ConEmu.obj
 0001:0001411c       ?OnFocus@CConEmuMain@@QEAA_JPEAUHWND__@@I_K_JPEB_W_N@Z 000000014001511c f   ConEmu.obj
 0001:00014d4c       ?OnGhostCreated@CConEmuMain@@QEAAXPEAVCVirtualConsole@@PEAUHWND__@@@Z 0000000140015d4c f   ConEmu.obj
 0001:00014e0c       ?OnGlobalSettingsChanged@CConEmuMain@@QEAAXXZ 0000000140015e0c f   ConEmu.obj
 0001:00014e30       ?OnHookedListChanged@CDefTermBase@@QEAAXXZ 0000000140015e30 f i ConEmu.obj
 0001:00014ea4       ?OnKeyboard@CConEmuMain@@QEAA_JPEAUHWND__@@I_K_J@Z 0000000140015ea4 f   ConEmu.obj
 0001:0001557c       ?OnKeyboardHook@CConEmuMain@@QEAA_JK@Z 000000014001657c f   ConEmu.obj
 0001:00015644       ?OnKeyboardIme@CConEmuMain@@QEAA_JPEAUHWND__@@I_K_J@Z 0000000140016644 f   ConEmu.obj
 0001:0001588c       ?OnLangChange@CConEmuMain@@QEAA_JI_K_J@Z 000000014001688c f   ConEmu.obj
 0001:00015aa0       ?OnLangChangeConsole@CConEmuMain@@QEAA_JPEAVCVirtualConsole@@K@Z 0000000140016aa0 f   ConEmu.obj
 0001:000160cc       ?OnMainCreateFinished@CConEmuMain@@IEAAXXZ 00000001400170cc f   ConEmu.obj
 0001:00016358       ?OnMouse@CConEmuMain@@QEAA_JPEAUHWND__@@I_K_J@Z 0000000140017358 f   ConEmu.obj
 0001:0001736c       ?OnMouse_LBtnDblClk@CConEmuMain@@QEAA_JPEAVCVirtualConsole@@PEAUHWND__@@AEAI_K_JUtagPOINT@@U_COORD@@@Z 000000014001836c f   ConEmu.obj
 0001:000174f0       ?OnMouse_LBtnDown@CConEmuMain@@QEAA_JPEAVCVirtualConsole@@PEAUHWND__@@I_K_JUtagPOINT@@U_COORD@@@Z 00000001400184f0 f   ConEmu.obj
 0001:00017794       ?OnMouse_LBtnUp@CConEmuMain@@QEAA_JPEAVCVirtualConsole@@PEAUHWND__@@I_K_JUtagPOINT@@U_COORD@@@Z 0000000140018794 f   ConEmu.obj
 0001:00017858       ?OnMouse_Move@CConEmuMain@@QEAA_JPEAVCVirtualConsole@@PEAUHWND__@@I_K_JUtagPOINT@@U_COORD@@@Z 0000000140018858 f   ConEmu.obj
 0001:00017d20       ?OnMouse_NCBtnDblClk@CConEmuMain@@QEAAHPEAUHWND__@@AEAI_K_J@Z 0000000140018d20 f   ConEmu.obj
 0001:00017d74       ?OnMouse_RBtnDown@CConEmuMain@@QEAA_JPEAVCVirtualConsole@@PEAUHWND__@@I_K_JUtagPOINT@@U_COORD@@@Z 0000000140018d74 f   ConEmu.obj
 0001:00018030       ?OnMouse_RBtnUp@CConEmuMain@@QEAA_JPEAVCVirtualConsole@@PEAUHWND__@@I_K_JUtagPOINT@@U_COORD@@@Z 0000000140019030 f   ConEmu.obj
 0001:000186a8       ?OnOurDialogClosed@CConEmuMain@@QEAAXXZ 00000001400196a8 f   ConEmu.obj
 0001:000186b0       ?OnOurDialogOpened@CConEmuMain@@QEAAXXZ 00000001400196b0 f   ConEmu.obj
 0001:000186b8       ?OnPanelViewSettingsChanged@CConEmuMain@@QEAAXH@Z 00000001400196b8 f   ConEmu.obj
 0001:000187f4       ?OnQueryEndSession@CConEmuMain@@QEAA_JPEAUHWND__@@I_K_J@Z 00000001400197f4 f   ConEmu.obj
 0001:000188d4       ?OnRConStartedSuccess@CConEmuMain@@QEAAXPEAVCRealConsole@@@Z 00000001400198d4 f   ConEmu.obj
 0001:000188e8       ?OnScClose@CConEmuMain@@QEAA_NXZ 00000001400198e8 f   ConEmu.obj
 0001:00018938       ?OnSessionChanged@CConEmuMain@@QEAA_JPEAUHWND__@@I_K_J@Z 0000000140019938 f   ConEmu.obj
 0001:00018b30       ?OnSetCursor@CConEmuMain@@QEAA_J_K_J@Z 0000000140019b30 f   ConEmu.obj
 0001:00019088       ?OnShellHook@CConEmuMain@@QEAA_J_K_J@Z 000000014001a088 f   ConEmu.obj
 0001:000191b4       ?OnSwitchGuiFocus@CConEmuMain@@QEAAXW4SwitchGuiFocusOp@@@Z 000000014001a1b4 f   ConEmu.obj
 0001:000192a8       ?OnTabbarActivated@CConEmuMain@@QEAAX_N0@Z 000000014001a2a8 f   ConEmu.obj
 0001:00019538       ?OnTaskbarButtonCreated@CConEmuMain@@QEAAXXZ 000000014001a538 f   ConEmu.obj
 0001:000195dc       ?OnTaskbarCreated@CConEmuMain@@QEAAXXZ 000000014001a5dc f   ConEmu.obj
 0001:00019644       ?OnTaskbarSettingsChanged@CConEmuMain@@QEAAXXZ 000000014001a644 f   ConEmu.obj
 0001:00019728       ?OnTimer@CConEmuMain@@QEAA_J_K_J@Z 000000014001a728 f   ConEmu.obj
 0001:00019830       ?OnTimer_ActivateSplit@CConEmuMain@@QEAAXXZ 000000014001a830 f   ConEmu.obj
 0001:00019a44       ?OnTimer_AdmShield@CConEmuMain@@QEAAXXZ 000000014001aa44 f   ConEmu.obj
 0001:00019af8       ?OnTimer_Background@CConEmuMain@@QEAAXXZ 000000014001aaf8 f   ConEmu.obj
 0001:00019b30       ?OnTimer_ConRedraw@CConEmuMain@@QEAAXPEAVCVirtualConsole@@@Z 000000014001ab30 f   ConEmu.obj
 0001:00019b60       ?OnTimer_FrameAppearDisappear@CConEmuMain@@QEAAX_K@Z 000000014001ab60 f   ConEmu.obj
 0001:00019bac       ?OnTimer_Main@CConEmuMain@@QEAAXPEAVCVirtualConsole@@@Z 000000014001abac f   ConEmu.obj
 0001:0001a12c       ?OnTimer_QuakeFocus@CConEmuMain@@QEAAXXZ 000000014001b12c f   ConEmu.obj
 0001:0001a1f8       ?OnTransparent@CConEmuMain@@QEAAXXZ 000000014001b1f8 f   ConEmu.obj
 0001:0001a22c       ?OnTransparent@CConEmuMain@@QEAAX_N0@Z 000000014001b22c f   ConEmu.obj
 0001:0001a374       ?OnTransparentSeparate@CConEmuMain@@QEAAX_N@Z 000000014001b374 f   ConEmu.obj
 0001:0001a3c4       ?OnUpdateScrollInfo@CConEmuMain@@QEAA_JH@Z 000000014001b3c4 f   ConEmu.obj
 0001:0001a3f4       ?OnVConCreated@CConEmuMain@@QEAAXPEAVCVirtualConsole@@PEBURConStartArgsEx@@@Z 000000014001b3f4 f   ConEmu.obj
 0001:0001a468       ?OnWmHotkey@CConEmuMain@@QEAAX_KK@Z 000000014001b468 f   ConEmu.obj
 0001:0001a628       ?ParseScriptLineOptions@CConEmuMain@@QEAAPEB_WPEB_WPEA_NPEAURConStartArgsEx@@@Z 000000014001b628 f   ConEmu.obj
 0001:0001a9e4       ?PatchMouseEvent@CConEmuMain@@IEAA_NIAEAUtagPOINT@@0_KAEA_N@Z 000000014001b9e4 f   ConEmu.obj
 0001:0001ad04       ?PostChangeCurPalette@CConEmuMain@@QEAAXPEB_W_N1@Z 000000014001bd04 f   ConEmu.obj
 0001:0001ad58       ?PostCheckThread@CDefTermBase@@KAKPEAX@Z 000000014001bd58 f i ConEmu.obj
 0001:0001adac       ?PostCreate@CConEmuMain@@QEAAX_N@Z 000000014001bdac f   ConEmu.obj
 0001:0001b29c       ?PostCreateCon@CConEmuMain@@QEAAXPEAURConStartArgsEx@@@Z 000000014001c29c f   ConEmu.obj
 0001:0001b2dc       ?PostCreateView@CConEmuMain@@QEAAPEAUHWND__@@PEAVCConEmuChild@@@Z 000000014001c2dc f   ConEmu.obj
 0001:0001b328       ?PostDisplayRConError@CConEmuMain@@QEAAXPEAVCRealConsole@@PEA_W@Z 000000014001c328 f   ConEmu.obj
 0001:0001b378       ?PostDragCopy@CConEmuMain@@QEAAX_N0@Z 000000014001c378 f   ConEmu.obj
 0001:0001b3f0       ?PostFontSetSize@CConEmuMain@@QEAAXHH@Z 000000014001c3f0 f   ConEmu.obj
 0001:0001b40c       ?PostMacro@CConEmuMain@@QEAAXPEB_W@Z 000000014001c40c f   ConEmu.obj
 0001:0001b478       ?PostMacroFontSetName@CConEmuMain@@QEAAXPEA_WGGH@Z 000000014001c478 f   ConEmu.obj
 0001:0001b50c       ?PostScClose@CConEmuMain@@QEAAXXZ 000000014001c50c f   ConEmu.obj
 0001:0001b528       ?PreWndProc@CConEmuMain@@QEAAXI@Z 000000014001c528 f   ConEmu.obj
 0001:0001b530       ?RecheckForegroundWindow@CConEmuMain@@IEAA_NPEB_WPEAPEAUHWND__@@PEAU2@@Z 000000014001c530 f   ConEmu.obj
 0001:0001b8f8       ?RecreateAction@CConEmuMain@@QEAA_NW4RecreateActionParm@@HW4RConBoolArg@@@Z 000000014001c8f8 f   ConEmu.obj
 0001:0001bc60       ?RecreateDlg@CConEmuMain@@QEAAHPEAURConStartArgsEx@@_N@Z 000000014001cc60 f   ConEmu.obj
 0001:0001bd28       ?RefreshWindowStyles@CConEmuMain@@QEAAXXZ 000000014001cd28 f   ConEmu.obj
 0001:0001c07c       ?RegisterGlobalHotKeys@CConEmuMain@@IEAAX_N@Z 000000014001d07c f   ConEmu.obj
 0001:0001c25c       ?RegisterHooks@CConEmuMain@@QEAAXXZ 000000014001d25c f   ConEmu.obj
 0001:0001c470       ?RegisterHotKeys@CConEmuMain@@IEAAXXZ 000000014001d470 f   ConEmu.obj
 0001:0001c4c4       ?RegisterMessage@CConEmuMain@@AEAAIPEBDPEB_W@Z 000000014001d4c4 f   ConEmu.obj
 0001:0001c51c       ?RegisterMessages@CConEmuMain@@AEAAXXZ 000000014001d51c f   ConEmu.obj
 0001:0001c8f4       ?RegisterMinRestore@CConEmuMain@@QEAAX_N@Z 000000014001d8f4 f   ConEmu.obj
 0001:0001cc5c       ?RegisterSshAgent@CConEmuMain@@QEAAXK@Z 000000014001dc5c f   ConEmu.obj
 0001:0001cd70       ?ReleaseConhostDelay@CConEmuMain@@QEAAXXZ 000000014001dd70 f   ConEmu.obj
 0001:0001cd78       ?ReportOldCmdVersion@CConEmuMain@@QEAAXKKHKPEAXK@Z 000000014001dd78 f   ConEmu.obj
 0001:0001d15c       ?RequestPostUpdateTabs@CConEmuMain@@QEAAXXZ 000000014001e15c f   ConEmu.obj
 0001:0001d194       ?RightClickingPaint@CConEmuMain@@QEAAXPEAUHDC__@@PEAVCVirtualConsole@@@Z 000000014001e194 f   ConEmu.obj
 0001:0001d610       ?RightClickingProc@CConEmuMain@@KA_JPEAUHWND__@@I_K_J@Z 000000014001e610 f   ConEmu.obj
 0001:0001d688       ?RunSingleInstance@CConEmuMain@@QEAAHPEAUHWND__@@PEB_W@Z 000000014001e688 f   ConEmu.obj
 0001:0001dc6c       ?Set@?$MMap@IPEBD$0A@@@QEAA_NAEBIAEBQEBD@Z 000000014001ec6c f i ConEmu.obj
 0001:0001dc6c       ?Set@?$MMap@HPEAV?$MArray@UDlgItem@CDpiForDialog@@@@$0A@@@QEAA_NAEBHAEBQEAV?$MArray@UDlgItem@CDpiForDialog@@@@@Z 000000014001ec6c f i DpiAware.obj
 0001:0001ddb4       ?SetAppID@CConEmuMain@@QEAAXPEB_W@Z 000000014001edb4 f   ConEmu.obj
 0001:0001e0bc       ?SetConfigFile@CConEmuMain@@QEAA_NPEB_W_N1@Z 000000014001f0bc f   ConEmu.obj
 0001:0001e3c8       ?SetDragCursor@CConEmuMain@@QEAAXPEAUHICON__@@@Z 000000014001f3c8 f   ConEmu.obj
 0001:0001e3ec       ?SetForceUseRegistry@CConEmuMain@@QEAAXXZ 000000014001f3ec f   ConEmu.obj
 0001:0001e3f4       ?SetKillTimer@CConEmuMain@@QEAA_K_NII@Z 000000014001f3f4 f   ConEmu.obj
 0001:0001e42c       ?SetParent@CConEmuMain@@QEAA_NPEAUHWND__@@@Z 000000014001f42c f   ConEmu.obj
 0001:0001e49c       ?SetPostGuiMacro@CConEmuMain@@QEAAXPEB_W@Z 000000014001f49c f   ConEmu.obj
 0001:0001e4a8       ?SetScClosePending@CConEmuMain@@QEAAX_N@Z 000000014001f4a8 f   ConEmu.obj
 0001:0001e4b0       ?SetSessionNotification@SessionInfo@CConEmuMain@@QEAAX_N@Z 000000014001f4b0 f   ConEmu.obj
 0001:0001e5a8       ?SetSkipMouseEvent@CConEmuMain@@QEAAXIII@Z 000000014001f5a8 f   ConEmu.obj
 0001:0001e5c0       ?SetSkipOnFocus@CConEmuMain@@QEAA_N_N@Z 000000014001f5c0 f   ConEmu.obj
 0001:0001e5d0       ?SetTaskbarIcon@CConEmuMain@@QEAAXPEAUHICON__@@@Z 000000014001f5d0 f   ConEmu.obj
 0001:0001e6c0       ?SetTitle@CConEmuMain@@QEAAXPEAUHWND__@@PEB_W_N@Z 000000014001f6c0 f   ConEmu.obj
 0001:0001e88c       ?SetTitleTemplate@CConEmuMain@@QEAAXPEB_W@Z 000000014001f88c f   ConEmu.obj
 0001:0001e8b4       ?SetTransparent@CConEmuMain@@QEAA_NPEAUHWND__@@I_NK1@Z 000000014001f8b4 f   ConEmu.obj
 0001:0001eba0       ?SetWindowIcon@CConEmuMain@@QEAAXPEB_W@Z 000000014001fba0 f   ConEmu.obj
 0001:0001ecdc       ?SetWindowStyle@CConEmuMain@@QEAAXK@Z 000000014001fcdc f   ConEmu.obj
 0001:0001ecf4       ?SetWindowStyle@CConEmuMain@@QEAAXPEAUHWND__@@K@Z 000000014001fcf4 f   ConEmu.obj
 0001:0001ed04       ?SetWindowStyleEx@CConEmuMain@@QEAAXK@Z 000000014001fd04 f   ConEmu.obj
 0001:0001ed14       ?SetWindowStyleEx@CConEmuMain@@QEAAXPEAUHWND__@@K@Z 000000014001fd14 f   ConEmu.obj
 0001:0001edc4       ?StartDebugActiveProcess@CConEmuMain@@QEAA_NXZ 000000014001fdc4 f   ConEmu.obj
 0001:0001ee84       ?StartDebugLogConsole@CConEmuMain@@QEAA_NXZ 000000014001fe84 f   ConEmu.obj
 0001:0001f018       ?StartDefTermHooker@CDefTermBase@@AEAAHKAEAPEAXAEAKPEB_W1@Z 0000000140020018 f i ConEmu.obj
 0001:0001f3a0       ?StartRightClickingPaint@CConEmuMain@@IEAAXXZ 00000001400203a0 f   ConEmu.obj
 0001:0001f3ec       ?StopRightClickingPaint@CConEmuMain@@IEAAXXZ 00000001400203ec f   ConEmu.obj
 0001:0001f444       ?StoreLayoutName@CConEmuMain@@IEAAXHKPEAUHKL__@@@Z 0000000140020444 f   ConEmu.obj
 0001:0001f584       ?StoreWorkDir@CConEmuMain@@QEAAXPEB_W@Z 0000000140020584 f   ConEmu.obj
 0001:0001f79c       ?StringCchVPrintfA@@YAJPEAD_KPEBD0@Z 000000014002079c f i ConEmu.obj
 0001:0001f844       ?SwitchKeyboardLayout@CConEmuMain@@QEAAX_K@Z 0000000140020844 f   ConEmu.obj
 0001:0001fa2c       ?SyncExecMacro@CConEmuMain@@QEAA_J_K_J@Z 0000000140020a2c f   ConEmu.obj
 0001:0001fa48       ?SyncNtvdm@CConEmuMain@@QEAAXXZ 0000000140020a48 f   ConEmu.obj
 0001:0001fa5c       ?TerminateSshAgents@CConEmuMain@@IEAAXXZ 0000000140020a5c f   ConEmu.obj
 0001:0001fbe0       ?TrackMouse@CConEmuMain@@QEAAHXZ 0000000140020be0 f   ConEmu.obj
 0001:0001fc34       ?UnRegisterHooks@CConEmuMain@@QEAAX_N@Z 0000000140020c34 f   ConEmu.obj
 0001:0001fcb4       ?UnlockConhostStart@CConEmuMain@@QEAAXXZ 0000000140020cb4 f   ConEmu.obj
 0001:0001fcd8       ?Update@CConEmuMain@@QEAAX_N@Z 0000000140020cd8 f   ConEmu.obj
 0001:0001fce0       ?UpdateActiveGhost@CConEmuMain@@QEAAXPEAVCVirtualConsole@@@Z 0000000140020ce0 f   ConEmu.obj
 0001:0001fd54       ?UpdateCaretPos@CConEmuMain@@QEAAXAEAVCVirtualConsole@@AEBUtagRECT@@@Z 0000000140020d54 f   ConEmu.obj
 0001:0001fdc4       ?UpdateCursorInfo@CConEmuMain@@QEAAXPEBUConsoleInfoArg@@@Z 0000000140020dc4 f   ConEmu.obj
 0001:0001fe94       ?UpdateGuiInfoMapping@CConEmuMain@@AEAAXXZ 0000000140020e94 f   ConEmu.obj
 0001:00020454       ?UpdateGuiInfoMappingActive@CConEmuMain@@AEAAX_N0@Z 0000000140021454 f   ConEmu.obj
 0001:000205bc       ?UpdateImeComposition@CConEmuMain@@IEAAXXZ 00000001400215bc f   ConEmu.obj
 0001:00020754       ?UpdateProcessDisplay@CConEmuMain@@QEAAX_N@Z 0000000140021754 f   ConEmu.obj
 0001:00020a78       ?UpdateProgress@CConEmuMain@@QEAAXXZ 0000000140021a78 f   ConEmu.obj
 0001:00020dbc       ?UpdateSizes@CConEmuMain@@QEAAXXZ 0000000140021dbc f   ConEmu.obj
 0001:00020fc0       ?UpdateTitle@CConEmuMain@@QEAAXXZ 0000000140021fc0 f   ConEmu.obj
 0001:00021100       ?UpdateWinHookSettings@CConEmuMain@@QEAAXXZ 0000000140022100 f   ConEmu.obj
 0001:00021164       ?UpdateWindowChild@CConEmuMain@@QEAAXPEAVCVirtualConsole@@@Z 0000000140022164 f   ConEmu.obj
 0001:0002116c       ?WndProc@CConEmuMain@@QEAA_JPEAUHWND__@@I_K_J@Z 000000014002216c f   ConEmu.obj
 0001:00022600       ?WorkDir@CConEmuMain@@QEAAPEB_WPEB_W@Z 0000000140023600 f   ConEmu.obj
 0001:00022630       ?WorkWndProc@CConEmuMain@@SA_JPEAUHWND__@@I_K_J@Z 0000000140023630 f   ConEmu.obj
 0001:000227cc       ?isCloseConfirmed@CConEmuMain@@QEAA_NXZ 00000001400237cc f   ConEmu.obj
 0001:00022800       ?isDestroyOnClose@CConEmuMain@@QEAA_N_N@Z 0000000140023800 f   ConEmu.obj
 0001:0002297c       ?isDialogMessage@CConEmuMain@@QEAAHAEAUtagMSG@@@Z 000000014002397c f   ConEmu.obj
 0001:00022a40       ?isDragging@CConEmuMain@@QEAA_NXZ 0000000140023a40 f   ConEmu.obj
 0001:00022a78       ?isFirstInstance@CConEmuMain@@QEAA_N_N@Z 0000000140023a78 f   ConEmu.obj
 0001:00022c20       ?isInImeComposition@CConEmuMain@@QEAA_NXZ 0000000140023c20 f   ConEmu.obj
 0001:00022c28       ?isInputGrouped@CConEmuMain@@QEBA_NXZ 0000000140023c28 f   ConEmu.obj
 0001:00022c30       ?isInside@CConEmuMain@@QEAA_NXZ 0000000140023c30 f   ConEmu.obj
 0001:00022c4c       ?isInsideInvalid@CConEmuMain@@QEAA_NXZ 0000000140023c4c f   ConEmu.obj
 0001:00022c88       ?isMSysStartup@CConEmuMain@@QEAA_NXZ 0000000140023c88 f   ConEmu.obj
 0001:00022c94       ?isMeForeground@CConEmuMain@@QEAA_N_N0PEAPEAUHWND__@@@Z 0000000140023c94 f   ConEmu.obj
 0001:00022cdc       ?isMenuActive@CConEmuMain@@QEAA_NXZ 0000000140023cdc f   ConEmu.obj
 0001:00022cf8       ?isMingwMode@CConEmuMain@@QEAA_NXZ 0000000140023cf8 f   ConEmu.obj
 0001:00022d04       ?isMouseOverFrame@CConEmuMain@@QEAA_N_N@Z 0000000140023d04 f   ConEmu.obj
 0001:00022e88       ?isNtvdm@CConEmuMain@@QEAA_NH@Z 0000000140023e88 f   ConEmu.obj
 0001:00022e90       ?isOurConsoleWindow@CConEmuMain@@QEAA_NPEAUHWND__@@@Z 0000000140023e90 f   ConEmu.obj
 0001:00022e98       ?isPictureView@CConEmuMain@@QEAA_NXZ 0000000140023e98 f   ConEmu.obj
 0001:00022ea0       ?isProcessCreated@CConEmuMain@@QEAA_NXZ 0000000140023ea0 f   ConEmu.obj
 0001:00022ea8       ?isRightClickingPaint@CConEmuMain@@QEAA_NXZ 0000000140023ea8 f   ConEmu.obj
 0001:00022eb0       ?isSelectionModifierPressed@CConEmuMain@@QEAAK_N@Z 0000000140023eb0 f   ConEmu.obj
 0001:00022fa8       ?isSkipNcMessage@CConEmuMain@@QEAA_NAEBUtagMSG@@@Z 0000000140023fa8 f   ConEmu.obj
 0001:00023054       ?isTabsShown@CConEmuMain@@QEAA_NXZ 0000000140024054 f   ConEmu.obj
 0001:00023088       ?isUpdateAllowed@CConEmuMain@@QEAA_NXZ 0000000140024088 f   ConEmu.obj
 0001:00023094       ?isVConExists@CConEmuMain@@QEAA_NH@Z 0000000140024094 f   ConEmu.obj
 0001:0002309c       ?isVConValid@CConEmuMain@@QEAAHPEAVCVirtualConsole@@@Z 000000014002409c f   ConEmu.obj
 0001:000230b8       ?isValid@CConEmuMain@@QEAA_NPEAVCRealConsole@@@Z 00000001400240b8 f   ConEmu.obj
 0001:000230c0       ?isValid@CConEmuMain@@QEAA_NPEAVCVirtualConsole@@@Z 00000001400240c0 f   ConEmu.obj
 0001:000230c8       ?push_back@?$MArray@Utxt@CFormatCopy@@@@QEAA_JAEBUtxt@CFormatCopy@@@Z 00000001400240c8 f i RealBuffer.obj
 0001:000230c8       ?push_back@?$MArray@USshAgent@CConEmuMain@@@@QEAA_JAEBUSshAgent@CConEmuMain@@@Z 00000001400240c8 f i ConEmu.obj
 0001:000230c8       ?push_back@?$MArray@UVarDef@CVarDefs@FastConfig@@@@QEAA_JAEBUVarDef@CVarDefs@FastConfig@@@Z 00000001400240c8 f i OptionsFast.obj
 0001:000230c8       ?push_back@?$MArray@U_ThInfo@CDragDrop@@@@QEAA_JAEBU_ThInfo@CDragDrop@@@Z 00000001400240c8 f i DragDrop.obj
 0001:000230c8       ?push_back@?$MArray@UTabIconCache@CIconList@@@@QEAA_JAEBUTabIconCache@CIconList@@@Z 00000001400240c8 f i IconList.obj
 0001:000230c8       ?push_back@?$MArray@UThreadHandle@CDefTermBase@@@@QEAA_JAEBUThreadHandle@CDefTermBase@@@Z 00000001400240c8 f i ConEmu.obj
 0001:00023140       ?setFocus@CConEmuMain@@QEAAXXZ 0000000140024140 f   ConEmu.obj
 0001:00023288       ??$SafeDelete@VCConEmuMain@@@@YAXAEAPEAVCConEmuMain@@@Z 0000000140024288 f i ConEmuApp.obj
 0001:000232c0       ??$SafeDelete@VCConEmuUpdate@@@@YAXAEAPEAVCConEmuUpdate@@@Z 00000001400242c0 f i ConEmuApp.obj
 0001:00023308       ??$SafeDelete@VCFontMgr@@@@YAXAEAPEAVCFontMgr@@@Z 0000000140024308 f i ConEmuApp.obj
 0001:00023350       ??$SafeDelete@VCLngRc@@@@YAXAEAPEAVCLngRc@@@Z 0000000140024350 f i ConEmuApp.obj
 0001:00023398       ??$SafeDelete@VConEmuHotKeyList@@@@YAXAEAPEAVConEmuHotKeyList@@@Z 0000000140024398 f i ConEmuApp.obj
 0001:00023400       ??$swprintf_c@$0BAA@@@YAHAEAY0BAA@_WPEB_WZZ 0000000140024400 f i ConEmuApp.obj
 0001:0002342c       ??$ultow_s@$0BA@@@YAPEB_WIAEAY0BA@_WH@Z 000000014002442c f i ConEmuApp.obj
 0001:00023458       ??0DontEnable@@QEAA@_N@Z   0000000140024458 f   ConEmuApp.obj
 0001:000234a0       ??1DontEnable@@QEAA@XZ     00000001400244a0 f   ConEmuApp.obj
 0001:000234b8       ?AppWndProc@@YA_JPEAUHWND__@@I_K_J@Z 00000001400244b8 f   ConEmuApp.obj
 0001:000235a4       ?AssertBox@@YAXPEB_W0IPEAU_EXCEPTION_POINTERS@@@Z 00000001400245a4 f   ConEmuApp.obj
 0001:00023adc       ?CenterInParent@@YA?AUtagRECT@@U1@PEAUHWND__@@@Z 0000000140024adc f   ConEmuApp.obj
 0001:00023c10       ?CheckCreateAppWindow@@YAHXZ 0000000140024c10 f   ConEmuApp.obj
 0001:00023e10       ?CheckForDebugArgs@@YAHPEB_W@Z 0000000140024e10 f   ConEmuApp.obj
 0001:00023ffc       ?CheckZoneIdentifiers@@YAH_N@Z 0000000140024ffc f   ConEmuApp.obj
 0001:000244c8       ?Create@LoadStartupEnvEx@@SAPEAUCEStartupEnv@@XZ 00000001400254c8 f i ConEmuApp.obj
 0001:00024714       ?CreateDumpForReport@@YAKPEAU_EXCEPTION_POINTERS@@AEAY0EAA@_WAEAY0BEE@_WPEA_W@Z 0000000140025714 f   ConEmuApp.obj
 0001:00024bf8       ?CreateDumpOnException@@YAJPEAU_EXCEPTION_POINTERS@@@Z 0000000140025bf8 f   ConEmuApp.obj
 0001:00024d64       ?CreateNullIcon@@YAPEAUHICON__@@XZ 0000000140025d64 f   ConEmuApp.obj
 0001:00024df8       ?DisplayLastError@@YAHPEB_WKK0PEAUHWND__@@@Z 0000000140025df8 f   ConEmuApp.obj
 0001:00024f70       ?DupCygwinPath@@YAPEB_WPEB_W_N0AEAUCEStr@@@Z 0000000140025f70 f   ConEmuApp.obj
 0001:000251a0       ?EscapeChar@@YAX_NAEAPEB_WAEAPEA_W@Z 00000001400261a0 f   ConEmuApp.obj
 0001:000251b8       ?FindProcessWindow@@YAPEAUHWND__@@K@Z 00000001400261b8 f   ConEmuApp.obj
 0001:00025238       ?FindTopExplorerWindow@@YAPEAUHWND__@@XZ 0000000140026238 f   ConEmuApp.obj
 0001:000252e4       ?FixDirEndSlash@@YA_NPEA_W@Z 00000001400262e4 f   ConEmuApp.obj
 0001:00025340       ?GetColorRef@@YA_NPEB_WPEAK@Z 0000000140026340 f   ConEmuApp.obj
 0001:0002558c       ?GetDlgItemSigned@@YA_NPEAUHWND__@@GAEAHHH@Z 000000014002658c f   ConEmuApp.obj
 0001:000255e8       ?GetDlgItemTextPtr@@YAPEA_WPEAUHWND__@@G@Z 00000001400265e8 f   ConEmuApp.obj
 0001:00025610       ?GetWindowModeName@@YAPEB_WW4ConEmuWindowMode@@@Z 0000000140026610 f   ConEmuApp.obj
 0001:00025664       ?Init@?$MMap@HUCEIconDrawHandles@@$0A@@@QEAA_N_K_N@Z 0000000140026664 f i SearchCtrl.obj
 0001:00025664       ?Init@?$MMap@PEAUHWND__@@PEAVCDynDialog@@$0A@@@QEAA_N_K_N@Z 0000000140026664 f i DynDialog.obj
 0001:00025664       ?Init@?$MMap@PEAVCVConGroup@@PEAVCVirtualConsole@@$0A@@@QEAA_N_K_N@Z 0000000140026664 f i TabBar.obj
 0001:00025664       ?Init@?$MMap@PEAUHWND__@@PEAVCVirtualConsole@@$0A@@@QEAA_N_K_N@Z 0000000140026664 f i ConEmuApp.obj
 0001:000256d8       ?IntFromString@@YA_NAEAHPEB_WHPEAPEB_W@Z 00000001400266d8 f   ConEmuApp.obj
 0001:00025784       ?Load@LoadStartupEnv@@KA_N_KAEAPEAUCEStartupEnv@@AEAPEAE@Z 0000000140026784 f i ConEmuApp.obj
 0001:00025dbc       ?LoadAutoruns@LoadStartupEnvEx@@KAPEA_WXZ 0000000140026dbc f i ConEmuApp.obj
 0001:00025eb8       ?LoadAutorunsKey@LoadStartupEnvEx@@KAXAEAPEAUHKEY__@@AEAPEA_WPEB_W@Z 0000000140026eb8 f i ConEmuApp.obj
 0001:00025fb0       ?LoadFonts@LoadStartupEnvEx@@KAPEA_WXZ 0000000140026fb0 f i ConEmuApp.obj
 0001:000261c8       ?LoadStartupEnv_FillMonitors@LoadStartupEnvEx@@KAHPEAUHMONITOR__@@PEAUHDC__@@PEAUtagRECT@@_J@Z 00000001400271c8 f i ConEmuApp.obj
 0001:00026330       ?LogString@@YA_NPEB_W_N1@Z 0000000140027330 f   ConEmuApp.obj
 0001:00026348       ?MakeStraightSlashPath@@YAPEA_WPEB_W@Z 0000000140027348 f   ConEmuApp.obj
 0001:00026384       ?MakeWinPath@@YAPEB_WPEB_W0AEAUCEStr@@@Z 0000000140027384 f   ConEmuApp.obj
 0001:00026520       ?MessageLoop@@YAXXZ        0000000140027520 f   ConEmuApp.obj
 0001:00026570       ?MoveWindowRect@@YAHPEAUHWND__@@AEBUtagRECT@@H@Z 0000000140027570 f   ConEmuApp.obj
 0001:000265fc       ?MsgBox@@YAHPEB_WI0PEAUHWND__@@_N@Z 00000001400275fc f   ConEmuApp.obj
 0001:00026798       ?MyGetDlgItemText@@YA_KPEAUHWND__@@GAEA_KAEAPEA_W@Z 0000000140027798 f   ConEmuApp.obj
 0001:00026858       ?MySetDlgItemText@@YAHPEAUHWND__@@HPEB_W@Z 0000000140027858 f   ConEmuApp.obj
 0001:00026860       ?PatchMsgBoxIcon@@YAXPEAUHWND__@@I_K_J@Z 0000000140027860 f   ConEmuApp.obj
 0001:00026954       ?ProcessCmdArg@@YAHPEB_W_N1AEAUCEStr@@AEA_N@Z 0000000140027954 f   ConEmuApp.obj
 0001:00026b94       ?ProcessMessage@@YA_NAEAUtagMSG@@@Z 0000000140027b94 f   ConEmuApp.obj
 0001:00026d20       ?PtMouseDblClickTest@@YA_NAEBUtagMSG@@U1@@Z 0000000140027d20 f   ConEmuApp.obj
 0001:00026e58       ?RaiseTestException@@YAXXZ 0000000140027e58 f   ConEmuApp.obj
 0001:00026e60       ?SelectFile@@YAPEA_WPEB_W00PEAUHWND__@@0KPEAVCRealConsole@@@Z 0000000140027e60 f   ConEmuApp.obj
 0001:00027074       ?SelectFolder@@YAPEA_WPEB_W0PEAUHWND__@@KPEAVCRealConsole@@@Z 0000000140028074 f   ConEmuApp.obj
 0001:0002727c       ?ShutdownGuiStep@@YAXPEB_WHHHH@Z 000000014002827c f   ConEmuApp.obj
 0001:0002735c       ?SkipOneShowWindow@@YAXXZ  000000014002835c f   ConEmuApp.obj
 0001:000275b0       ?SkipShowWindowProc@@YA_JPEAUHWND__@@I_K_J@Z 00000001400285b0 f   ConEmuApp.obj
 0001:0002764c       ?StripLines@@YAXPEA_WPEB_W@Z 000000014002864c f   ConEmuApp.obj
 0001:00027758       ?StripWords@@YAXPEA_WPEB_W@Z 0000000140028758 f   ConEmuApp.obj
 0001:0002789c       ?UpdateAppUserModelID@@YAJXZ 000000014002889c f   ConEmuApp.obj
 0001:00027c80       ?UpdateWin7TaskList@@YA_N_N0@Z 0000000140028c80 f   ConEmuApp.obj
 0001:00028344       ?WarnCreateWindowFail@@YAXPEB_WPEAUHWND__@@K@Z 0000000140029344 f   ConEmuApp.obj
 0001:00028540       ?_CreateSeparatorLink@@YAJPEAPEAUIShellLinkW@@@Z 0000000140029540 f   ConEmuApp.obj
 0001:00028d38       ?getFocusedExplorerWindowPath@@YAPEA_WXZ 0000000140029d38 f   ConEmuApp.obj
 0001:0002901c       ?getForegroundWindow@@YAPEAUHWND__@@XZ 000000014002a01c f   ConEmuApp.obj
 0001:00029070       ?isDontEnable@DontEnable@@SA_NXZ 000000014002a070 f   ConEmuApp.obj
 0001:0002907c       ?isKey@@YA_NKK@Z           000000014002a07c f   ConEmuApp.obj
 0001:000290c0       ?isMainThread@@YA_NXZ      000000014002a0c0 f   ConEmuApp.obj
 0001:000290d8       WinMain                    000000014002a0d8 f   ConEmuApp.obj
 0001:0002a1dc       ??0CConEmuCtrl@@QEAA@XZ    000000014002b1dc f   ConEmuCtrl.obj
 0001:0002a214       ??1CConEmuCtrl@@UEAA@XZ    000000014002b214 f   ConEmuCtrl.obj
 0001:0002a220       ??_GCConEmuCtrl@@UEAAPEAXI@Z 000000014002b220 f i ConEmuCtrl.obj
 0001:0002a220       ??_ECConEmuCtrl@@UEAAPEAXI@Z 000000014002b220 f i ConEmuCtrl.obj
 0001:0002a24c       ?ChooseTabFromMenu@CConEmuCtrl@@SAXHUtagPOINT@@K@Z 000000014002b24c f   ConEmuCtrl.obj
 0001:0002a3bc       ?ChordFromVk@CConEmuCtrl@@QEAA?AUConEmuChord@@K@Z 000000014002b3bc f   ConEmuCtrl.obj
 0001:0002a42c       ?DoEndFindText@CConEmuCtrl@@SAXPEAVCRealConsole@@@Z 000000014002b42c f   ConEmuCtrl.obj
 0001:0002a490       ?DoFindText@CConEmuCtrl@@SAXHPEAVCRealConsole@@@Z 000000014002b490 f   ConEmuCtrl.obj
 0001:0002a500       ?FixSingleModifier@CConEmuCtrl@@QEAAXKPEAVCRealConsole@@@Z 000000014002b500 f   ConEmuCtrl.obj
 0001:0002a564       ?GetControlKeyState@CConEmuCtrl@@QEAAK_J@Z 000000014002b564 f   ConEmuCtrl.obj
 0001:0002a574       ?GetOpenedPanels@CConEmuCtrl@@SA_KAEAPEA_WAEAH1@Z 000000014002b574 f   ConEmuCtrl.obj
 0001:0002a798       ?GetOpenedTabs@CConEmuCtrl@@SA_KAEAPEAUTabInfo@CESERVER_REQ_GETALLTABS@@@Z 000000014002b798 f   ConEmuCtrl.obj
 0001:0002aa54       ?MakeScreenshot@CConEmuCtrl@@SAX_N@Z 000000014002ba54 f   ConEmuCtrl.obj
 0001:0002ac60       ?ProcessHotKey@CConEmuCtrl@@QEAAPEBUConEmuHotKey@@AEBUConEmuChord@@_NPEB_WPEAVCRealConsole@@@Z 000000014002bc60 f   ConEmuCtrl.obj
 0001:0002ae44       ?ProcessHotKeyMsg@CConEmuCtrl@@QEAA_NI_K_JPEB_WPEAVCRealConsole@@@Z 000000014002be44 f   ConEmuCtrl.obj
 0001:0002b188       ?SkipOneAppsRelease@CConEmuCtrl@@QEAAX_N@Z 000000014002c188 f   ConEmuCtrl.obj
 0001:0002b214       ?SkipOneAppsReleaseHook@CConEmuCtrl@@CA_JH_K_J@Z 000000014002c214 f   ConEmuCtrl.obj
 0001:0002b250       ?StatusCommand@CConEmuCtrl@@SAXW4ConEmuStatusCommand@@HPEB_WPEAVCRealConsole@@@Z 000000014002c250 f   ConEmuCtrl.obj
 0001:0002b374       ?TabCommand@CConEmuCtrl@@SAXW4ConEmuTabCommand@@@Z 000000014002c374 f   ConEmuCtrl.obj
 0001:0002b458       ?UpdateControlKeyState@CConEmuCtrl@@QEAAXXZ 000000014002c458 f   ConEmuCtrl.obj
 0001:0002b5c4       ?key_AlternativeBuffer@CConEmuCtrl@@SA_NAEBUConEmuChord@@_NPEBUConEmuHotKey@@PEAVCRealConsole@@@Z 000000014002c5c4 f   ConEmuCtrl.obj
 0001:0002b5e0       ?key_AlwaysOnTop@CConEmuCtrl@@SA_NAEBUConEmuChord@@_NPEBUConEmuHotKey@@PEAVCRealConsole@@@Z 000000014002c5e0 f   ConEmuCtrl.obj
 0001:0002b618       ?key_BufferScroll@CConEmuCtrl@@SA_N_NEPEAVCRealConsole@@@Z 000000014002c618 f   ConEmuCtrl.obj
 0001:0002b6bc       ?key_BufferScrollDown@CConEmuCtrl@@SA_NAEBUConEmuChord@@_NPEBUConEmuHotKey@@PEAVCRealConsole@@@Z 000000014002c6bc f   ConEmuCtrl.obj
 0001:0002b6d4       ?key_BufferScrollPgDn@CConEmuCtrl@@SA_NAEBUConEmuChord@@_NPEBUConEmuHotKey@@PEAVCRealConsole@@@Z 000000014002c6d4 f   ConEmuCtrl.obj
 0001:0002b6ec       ?key_BufferScrollPgUp@CConEmuCtrl@@SA_NAEBUConEmuChord@@_NPEBUConEmuHotKey@@PEAVCRealConsole@@@Z 000000014002c6ec f   ConEmuCtrl.obj
 0001:0002b704       ?key_BufferScrollUp@CConEmuCtrl@@SA_NAEBUConEmuChord@@_NPEBUConEmuHotKey@@PEAVCRealConsole@@@Z 000000014002c704 f   ConEmuCtrl.obj
 0001:0002b71c       ?key_CTSVkBlockStart@CConEmuCtrl@@SA_NAEBUConEmuChord@@_NPEBUConEmuHotKey@@PEAVCRealConsole@@@Z 000000014002c71c f   ConEmuCtrl.obj
 0001:0002b750       ?key_CTSVkTextStart@CConEmuCtrl@@SA_NAEBUConEmuChord@@_NPEBUConEmuHotKey@@PEAVCRealConsole@@@Z 000000014002c750 f   ConEmuCtrl.obj
 0001:0002b784       ?key_ChildSystemMenu@CConEmuCtrl@@SA_NAEBUConEmuChord@@_NPEBUConEmuHotKey@@PEAVCRealConsole@@@Z 000000014002c784 f   ConEmuCtrl.obj
 0001:0002b7dc       ?key_ConsoleNum@CConEmuCtrl@@SA_NAEBUConEmuChord@@_NPEBUConEmuHotKey@@PEAVCRealConsole@@@Z 000000014002c7dc f   ConEmuCtrl.obj
 0001:0002b890       ?key_CtrlShiftTab@CConEmuCtrl@@SA_NAEBUConEmuChord@@_NPEBUConEmuHotKey@@PEAVCRealConsole@@@Z 000000014002c890 f   ConEmuCtrl.obj
 0001:0002b890       ?key_CtrlTab@CConEmuCtrl@@SA_NAEBUConEmuChord@@_NPEBUConEmuHotKey@@PEAVCRealConsole@@@Z 000000014002c890 f   ConEmuCtrl.obj
 0001:0002b8fc       ?key_CtrlTab_Prev@CConEmuCtrl@@SA_NAEBUConEmuChord@@_NPEBUConEmuHotKey@@PEAVCRealConsole@@@Z 000000014002c8fc f   ConEmuCtrl.obj
 0001:0002b8fc       ?key_CtrlTab_Next@CConEmuCtrl@@SA_NAEBUConEmuChord@@_NPEBUConEmuHotKey@@PEAVCRealConsole@@@Z 000000014002c8fc f   ConEmuCtrl.obj
 0001:0002b96c       ?key_DeleteWordToLeft@CConEmuCtrl@@SA_NAEBUConEmuChord@@_NPEBUConEmuHotKey@@PEAVCRealConsole@@@Z 000000014002c96c f   ConEmuCtrl.obj
 0001:0002b9b8       ?key_DuplicateRoot@CConEmuCtrl@@SA_NAEBUConEmuChord@@_NPEBUConEmuHotKey@@PEAVCRealConsole@@@Z 000000014002c9b8 f   ConEmuCtrl.obj
 0001:0002b9ec       ?key_FindTextDlg@CConEmuCtrl@@SA_NAEBUConEmuChord@@_NPEBUConEmuHotKey@@PEAVCRealConsole@@@Z 000000014002c9ec f   ConEmuCtrl.obj
 0001:0002ba48       ?key_ForcedFullScreen@CConEmuCtrl@@SA_NAEBUConEmuChord@@_NPEBUConEmuHotKey@@PEAVCRealConsole@@@Z 000000014002ca48 f   ConEmuCtrl.obj
 0001:0002ba6c       ?key_GlobalRestore@CConEmuCtrl@@SA_NAEBUConEmuChord@@_NPEBUConEmuHotKey@@PEAVCRealConsole@@@Z 000000014002ca6c f   ConEmuCtrl.obj
 0001:0002ba94       ?key_GuiMacro@CConEmuCtrl@@SA_NAEBUConEmuChord@@_NPEBUConEmuHotKey@@PEAVCRealConsole@@@Z 000000014002ca94 f   ConEmuCtrl.obj
 0001:0002bb04       ?key_MinimizeByEsc@CConEmuCtrl@@SA_NAEBUConEmuChord@@_NPEBUConEmuHotKey@@PEAVCRealConsole@@@Z 000000014002cb04 f   ConEmuCtrl.obj
 0001:0002bb78       ?key_MinimizeRestore@CConEmuCtrl@@SA_NAEBUConEmuChord@@_NPEBUConEmuHotKey@@PEAVCRealConsole@@@Z 000000014002cb78 f   ConEmuCtrl.obj
 0001:0002bb9c       ?key_MoveTabLeft@CConEmuCtrl@@SA_NAEBUConEmuChord@@_NPEBUConEmuHotKey@@PEAVCRealConsole@@@Z 000000014002cb9c f   ConEmuCtrl.obj
 0001:0002bbcc       ?key_MoveTabRight@CConEmuCtrl@@SA_NAEBUConEmuChord@@_NPEBUConEmuHotKey@@PEAVCRealConsole@@@Z 000000014002cbcc f   ConEmuCtrl.obj
 0001:0002bbfc       ?key_MultiBuffer@CConEmuCtrl@@SA_NAEBUConEmuChord@@_NPEBUConEmuHotKey@@PEAVCRealConsole@@@Z 000000014002cbfc f   ConEmuCtrl.obj
 0001:0002bc18       ?key_MultiCmd@CConEmuCtrl@@SA_NAEBUConEmuChord@@_NPEBUConEmuHotKey@@PEAVCRealConsole@@@Z 000000014002cc18 f   ConEmuCtrl.obj
 0001:0002bcc0       ?key_MultiNewAttach@CConEmuCtrl@@SA_NAEBUConEmuChord@@_NPEBUConEmuHotKey@@PEAVCRealConsole@@@Z 000000014002ccc0 f   ConEmuCtrl.obj
 0001:0002bcf8       ?key_MultiNewPopupMenu2@CConEmuCtrl@@SA_NAEBUConEmuChord@@_NPEBUConEmuHotKey@@PEAVCRealConsole@@@Z 000000014002ccf8 f   ConEmuCtrl.obj
 0001:0002bd24       ?key_MultiNewPopupMenu@CConEmuCtrl@@SA_NAEBUConEmuChord@@_NPEBUConEmuHotKey@@PEAVCRealConsole@@@Z 000000014002cd24 f   ConEmuCtrl.obj
 0001:0002bd50       ?key_MultiNext@CConEmuCtrl@@SA_NAEBUConEmuChord@@_NPEBUConEmuHotKey@@PEAVCRealConsole@@@Z 000000014002cd50 f   ConEmuCtrl.obj
 0001:0002bd70       ?key_MultiPrev@CConEmuCtrl@@SA_NAEBUConEmuChord@@_NPEBUConEmuHotKey@@PEAVCRealConsole@@@Z 000000014002cd70 f   ConEmuCtrl.obj
 0001:0002bd90       ?key_MultiRecreate@CConEmuCtrl@@SA_NAEBUConEmuChord@@_NPEBUConEmuHotKey@@PEAVCRealConsole@@@Z 000000014002cd90 f   ConEmuCtrl.obj
 0001:0002bdb8       ?key_PasteFirstLine@CConEmuCtrl@@SA_NAEBUConEmuChord@@_NPEBUConEmuHotKey@@PEAVCRealConsole@@@Z 000000014002cdb8 f   ConEmuCtrl.obj
 0001:0002be18       ?key_PasteFirstLineAllApp@CConEmuCtrl@@SA_NAEBUConEmuChord@@_NPEBUConEmuHotKey@@PEAVCRealConsole@@@Z 000000014002ce18 f   ConEmuCtrl.obj
 0001:0002becc       ?key_PasteText@CConEmuCtrl@@SA_NAEBUConEmuChord@@_NPEBUConEmuHotKey@@PEAVCRealConsole@@@Z 000000014002cecc f   ConEmuCtrl.obj
 0001:0002bf2c       ?key_PasteTextAllApp@CConEmuCtrl@@SA_NAEBUConEmuChord@@_NPEBUConEmuHotKey@@PEAVCRealConsole@@@Z 000000014002cf2c f   ConEmuCtrl.obj
 0001:0002bfd0       ?key_RenameTab@CConEmuCtrl@@SA_NAEBUConEmuChord@@_NPEBUConEmuHotKey@@PEAVCRealConsole@@@Z 000000014002cfd0 f   ConEmuCtrl.obj
 0001:0002bfec       ?key_RunTask@CConEmuCtrl@@SA_NAEBUConEmuChord@@_NPEBUConEmuHotKey@@PEAVCRealConsole@@@Z 000000014002cfec f   ConEmuCtrl.obj
 0001:0002c090       ?key_Screenshot@CConEmuCtrl@@SA_NAEBUConEmuChord@@_NPEBUConEmuHotKey@@PEAVCRealConsole@@@Z 000000014002d090 f   ConEmuCtrl.obj
 0001:0002c0a8       ?key_ScreenshotFull@CConEmuCtrl@@SA_NAEBUConEmuChord@@_NPEBUConEmuHotKey@@PEAVCRealConsole@@@Z 000000014002d0a8 f   ConEmuCtrl.obj
 0001:0002c0c0       ?key_ShowCaption@CConEmuCtrl@@SA_NAEBUConEmuChord@@_NPEBUConEmuHotKey@@PEAVCRealConsole@@@Z 000000014002d0c0 f   ConEmuCtrl.obj
 0001:0002c148       ?key_ShowRealConsole@CConEmuCtrl@@SA_NAEBUConEmuChord@@_NPEBUConEmuHotKey@@PEAVCRealConsole@@@Z 000000014002d148 f   ConEmuCtrl.obj
 0001:0002c168       ?key_ShowStatusBar@CConEmuCtrl@@SA_NAEBUConEmuChord@@_NPEBUConEmuHotKey@@PEAVCRealConsole@@@Z 000000014002d168 f   ConEmuCtrl.obj
 0001:0002c188       ?key_ShowTabBar@CConEmuCtrl@@SA_NAEBUConEmuChord@@_NPEBUConEmuHotKey@@PEAVCRealConsole@@@Z 000000014002d188 f   ConEmuCtrl.obj
 0001:0002c1a0       ?key_ShowTabsList@CConEmuCtrl@@SA_NAEBUConEmuChord@@_NPEBUConEmuHotKey@@PEAVCRealConsole@@@Z 000000014002d1a0 f   ConEmuCtrl.obj
 0001:0002c280       ?key_SwitchGuiFocus@CConEmuCtrl@@SA_NAEBUConEmuChord@@_NPEBUConEmuHotKey@@PEAVCRealConsole@@@Z 000000014002d280 f   ConEmuCtrl.obj
 0001:0002c2cc       ?key_SystemMenu@CConEmuCtrl@@SA_NAEBUConEmuChord@@_NPEBUConEmuHotKey@@PEAVCRealConsole@@@Z 000000014002d2cc f   ConEmuCtrl.obj
 0001:0002c344       ?key_TabMenu@CConEmuCtrl@@SA_NAEBUConEmuChord@@_NPEBUConEmuHotKey@@PEAVCRealConsole@@@Z 000000014002d344 f   ConEmuCtrl.obj
 0001:0002c404       ?Filter@?$MToolHelp@UtagPROCESSENTRY32W@@$1?Process32FirstW@@YAHPEAXPEAU1@@Z$1?Process32NextW@@YAH01@Z@@MEAA_NPEAUtagPROCESSENTRY32W@@@Z 000000014002d404 f   common-kernel64:MProcess.obj
 0001:0002c404       _should_initialize_environment 000000014002d404 f   LIBCMT:env_mode.obj
 0001:0002c404       __acrt_uninitialize_command_line 000000014002d404 f   libucrt:argv_data.obj
 0001:0002c404       ?QueryDialogCancel@CSetPgBase@@UEAA_NXZ 000000014002d404 f   SetPgANSI.obj
 0001:0002c404       ?key_WinDragStart@CConEmuCtrl@@SA_NAEBUConEmuChord@@_NPEBUConEmuHotKey@@PEAVCRealConsole@@@Z 000000014002d404 f   ConEmuCtrl.obj
 0001:0002c408       ?key_WinHeightDec@CConEmuCtrl@@SA_NAEBUConEmuChord@@_NPEBUConEmuHotKey@@PEAVCRealConsole@@@Z 000000014002d408 f   ConEmuCtrl.obj
 0001:0002c418       ?key_WinHeightInc@CConEmuCtrl@@SA_NAEBUConEmuChord@@_NPEBUConEmuHotKey@@PEAVCRealConsole@@@Z 000000014002d418 f   ConEmuCtrl.obj
 0001:0002c428       ?key_WinSize@CConEmuCtrl@@SA_NE@Z 000000014002d428 f   ConEmuCtrl.obj
 0001:0002c5c8       ?key_WinWidthDec@CConEmuCtrl@@SA_NAEBUConEmuChord@@_NPEBUConEmuHotKey@@PEAVCRealConsole@@@Z 000000014002d5c8 f   ConEmuCtrl.obj
 0001:0002c5d8       ?key_WinWidthInc@CConEmuCtrl@@SA_NAEBUConEmuChord@@_NPEBUConEmuHotKey@@PEAVCRealConsole@@@Z 000000014002d5d8 f   ConEmuCtrl.obj
 0001:0002c5e8       ??0CConEmuPipe@@QEAA@KK@Z  000000014002d5e8 f   ConEmuPipe.obj
 0001:0002c650       ??1CConEmuPipe@@QEAA@XZ    000000014002d650 f   ConEmuPipe.obj
 0001:0002c668       ?Close@CConEmuPipe@@QEAAXXZ 000000014002d668 f   ConEmuPipe.obj
 0001:0002c6d0       ?Execute@CConEmuPipe@@QEAAHHPEBXI@Z 000000014002d6d0 f   ConEmuPipe.obj
 0001:0002ca18       ?GetPtr@CConEmuPipe@@QEAAPEAEPEAK@Z 000000014002da18 f   ConEmuPipe.obj
 0001:0002ca4c       ?Init@CConEmuPipe@@QEAAHPEB_WH@Z 000000014002da4c f   ConEmuPipe.obj
 0001:0002caec       ?Read@CConEmuPipe@@QEAAHPEAXKPEAK@Z 000000014002daec f   ConEmuPipe.obj
 0001:0002cba8       ??$swprintf_c@$0BBI@@@YAHAEAY0BBI@_WPEB_WZZ 000000014002dba8 f i ConEmuSize.obj
 0001:0002cbd4       ??$swprintf_c@$0CI@@@YAHAEAY0CI@_WPEB_WZZ 000000014002dbd4 f i ConEmuSize.obj
 0001:0002cc00       ??$swprintf_c@$0NM@@@YAHAEAY0NM@_WPEB_WZZ 000000014002dc00 f i ConEmuSize.obj
 0001:0002cc2c       ??0CConEmuSize@@QEAA@XZ    000000014002dc2c f   ConEmuSize.obj
 0001:0002ce5c       ??1CConEmuSize@@UEAA@XZ    000000014002de5c f   ConEmuSize.obj
 0001:0002cebc       ??1NestedCallCounter@@QEAA@XZ 000000014002debc f i ConEmuSize.obj
 0001:0002cec4       ??_GCConEmuSize@@UEAAPEAXI@Z 000000014002dec4 f i ConEmuSize.obj
 0001:0002cec4       ??_ECConEmuSize@@UEAAPEAXI@Z 000000014002dec4 f i ConEmuSize.obj
 0001:0002cef8       ?AddMargins@CConEmuSize@@SAXAEAUtagRECT@@AEBU2@W4RectOperations@@@Z 000000014002def8 f   ConEmuSize.obj
 0001:0002cfc4       ?AnimateWindow@CConEmuSize@@IEAAHKK@Z 000000014002dfc4 f   ConEmuSize.obj
 0001:0002d118       ?AutoSizeFont@CConEmuSize@@QEAAXUtagRECT@@W4ConEmuRect@@@Z 000000014002e118 f   ConEmuSize.obj
 0001:0002d2a4       ?BeginSizing@CConEmuSize@@QEAAXXZ 000000014002e2a4 f   ConEmuSize.obj
 0001:0002d300       ?CalcMargins@CConEmuSize@@QEAA?AUtagRECT@@KW4ConEmuWindowMode@@@Z 000000014002e300 f   ConEmuSize.obj
 0001:0002d468       ?CalcMargins_FrameCaption@CConEmuSize@@IEAA?AUtagRECT@@KW4ConEmuWindowMode@@@Z 000000014002e468 f   ConEmuSize.obj
 0001:0002d66c       ?CalcMargins_InvisibleFrame@CConEmuSize@@IEAA?AUtagRECT@@XZ 000000014002e66c f   ConEmuSize.obj
 0001:0002d6e4       ?CalcMargins_Padding@CConEmuSize@@IEAA?AUtagRECT@@XZ 000000014002e6e4 f   ConEmuSize.obj
 0001:0002d71c       ?CalcMargins_Scrolling@CConEmuSize@@IEAA?AUtagRECT@@XZ 000000014002e71c f   ConEmuSize.obj
 0001:0002d758       ?CalcMargins_StatusBar@CConEmuSize@@IEAA?AUtagRECT@@XZ 000000014002e758 f   ConEmuSize.obj
 0001:0002d78c       ?CalcMargins_TabBar@CConEmuSize@@IEAA?AUtagRECT@@K@Z 000000014002e78c f   ConEmuSize.obj
 0001:0002d8a0       ?CalcMargins_VisibleFrame@CConEmuSize@@IEAA?AUtagRECT@@PEAU2@@Z 000000014002e8a0 f   ConEmuSize.obj
 0001:0002d9d4       ?CalcMargins_Win10Frame@CConEmuSize@@IEAA?AUtagRECT@@XZ 000000014002e9d4 f   ConEmuSize.obj
 0001:0002da7c       ?CalcRect@CConEmuSize@@QEAA?AUtagRECT@@W4ConEmuRect@@AEBU2@0PEAVCVirtualConsole@@W4ConEmuMargins@@@Z 000000014002ea7c f   ConEmuSize.obj
 0001:0002dfe4       ?CalcRect@CConEmuSize@@QEAA?AUtagRECT@@W4ConEmuRect@@PEAVCVirtualConsole@@@Z 000000014002efe4 f   ConEmuSize.obj
 0001:0002e220       ?CascadedPosFix@CConEmuSize@@QEAAXXZ 000000014002f220 f   ConEmuSize.obj
 0001:0002e47c       ?ChandeTileMode@CConEmuSize@@QEAA_NW4ConEmuWindowCommand@@@Z 000000014002f47c f   ConEmuSize.obj
 0001:0002e8e0       ?CheckDpiOnMoving@CConEmuSize@@IEAA_NPEAUtagWINDOWPOS@@@Z 000000014002f8e0 f   ConEmuSize.obj
 0001:0002ea40       ?CheckQuakeRect@CConEmuSize@@IEAA_NPEAUtagRECT@@@Z 000000014002fa40 f   ConEmuSize.obj
 0001:0002ec84       ?CheckTopMostState@CConEmuSize@@QEAAXXZ 000000014002fc84 f   ConEmuSize.obj
 0001:0002edd4       ?CreateWindowRgn@CConEmuSize@@QEAAPEAUHRGN__@@XZ 000000014002fdd4 f   ConEmuSize.obj
 0001:0002f1b8       ?CreateWindowRgn@CConEmuSize@@QEAAPEAUHRGN__@@_NHHHH@Z 00000001400301b8 f   ConEmuSize.obj
 0001:0002f478       ?DoAlwaysOnTopSwitch@CConEmuSize@@QEAAXXZ 0000000140030478 f   ConEmuSize.obj
 0001:0002f574       ?DoBringHere@CConEmuSize@@QEAAXXZ 0000000140030574 f   ConEmuSize.obj
 0001:0002f688       ?DoDesktopModeSwitch@CConEmuSize@@QEAAXXZ 0000000140030688 f   ConEmuSize.obj
 0001:0002f768       ?DoForcedFullScreen@CConEmuSize@@QEAAX_N@Z 0000000140030768 f   ConEmuSize.obj
 0001:0002f938       ?DoFullScreen@CConEmuSize@@QEAAXXZ 0000000140030938 f   ConEmuSize.obj
 0001:0002f9cc       ?DoMaximizeRestore@CConEmuSize@@QEAAXXZ 00000001400309cc f   ConEmuSize.obj
 0001:0002fa28       ?DoMinimizeRestore@CConEmuSize@@QEAAXW4SingleInstanceShowHideType@@@Z 0000000140030a28 f   ConEmuSize.obj
 0001:00030584       ?EndSizing@CConEmuSize@@QEAAXI@Z 0000000140031584 f   ConEmuSize.obj
 0001:000306a8       ?EvalNewNormalPos@CConEmuSize@@IEAAXAEBUtagMONITORINFO@@PEAUHMONITOR__@@0AEBUtagRECT@@AEAU4@@Z 00000001400316a8 f   ConEmuSize.obj
 0001:00030824       ?EvalTileMode@CConEmuSize@@QEAA?AW4ConEmuWindowCommand@@AEBUtagRECT@@PEAUtagMONITORINFO@@@Z 0000000140031824 f   ConEmuSize.obj
 0001:00030a48       ?EvalVConCreateSize@CConEmuSize@@QEAAXPEAVCVirtualConsole@@AEAI1@Z 0000000140031a48 f   ConEmuSize.obj
 0001:00030ac8       ?FindInitialMonitor@CConEmuSize@@AEAAPEAUHMONITOR__@@PEAUtagMONITORINFO@@@Z 0000000140031ac8 f   ConEmuSize.obj
 0001:00030bf0       ?FindNextSiblingApp@CConEmuSize@@QEAAPEAUHWND__@@_N@Z 0000000140031bf0 f   ConEmuSize.obj
 0001:00030ce0       ?FixPosByStartupMonitor@CConEmuSize@@IEAA_NQEAUHMONITOR__@@@Z 0000000140031ce0 f   ConEmuSize.obj
 0001:00030ffc       ?FixWindowRect@CConEmuSize@@IEAA_NAEAUtagRECT@@K_N@Z 0000000140031ffc f   ConEmuSize.obj
 0001:0003154c       ?FormatTileMode@CConEmuSize@@SAPEB_WW4ConEmuWindowCommand@@PEA_W_K@Z 000000014003254c f   ConEmuSize.obj
 0001:0003165c       ?GetDefaultRect@CConEmuSize@@QEAA?AUtagRECT@@XZ 000000014003265c f   ConEmuSize.obj
 0001:00031960       ?GetDefaultSize@CConEmuSize@@QEAA?AUtagSIZE@@_NPEBTCESize@@1PEAUHMONITOR__@@@Z 0000000140032960 f   ConEmuSize.obj
 0001:00031f50       ?GetIdealRect@CConEmuSize@@QEAA?AUtagRECT@@XZ 0000000140032f50 f   ConEmuSize.obj
 0001:00032008       ?GetInitialDpi@CConEmuSize@@QEAAHPEAUDpiValue@@@Z 0000000140033008 f   ConEmuSize.obj
 0001:0003207c       ?GetNearestMonitor@CConEmuSize@@QEAAPEAUHMONITOR__@@PEAUtagMONITORINFO@@PEBUtagRECT@@@Z 000000014003307c f   ConEmuSize.obj
 0001:0003221c       ?GetSelfFrameWidth@CConEmuSize@@QEAAIXZ 000000014003321c f   ConEmuSize.obj
 0001:000322f8       ?GetTileMode@CConEmuSize@@QEAA?AW4ConEmuWindowCommand@@_NPEAUtagMONITORINFO@@@Z 00000001400332f8 f   ConEmuSize.obj
 0001:000324bc       ?GetTileRect@CConEmuSize@@QEAA?AUtagRECT@@W4ConEmuWindowCommand@@AEBUtagMONITORINFO@@@Z 00000001400334bc f   ConEmuSize.obj
 0001:00032600       ?GetWindowMode@CConEmuSize@@QEAA?AW4ConEmuWindowMode@@XZ 0000000140033600 f   ConEmuSize.obj
 0001:00032620       ?InMinimizing@CConEmuSize@@QEAA_NPEAUtagWINDOWPOS@@@Z 0000000140033620 f   ConEmuSize.obj
 0001:0003269c       ?IsSizeFree@CConEmuSize@@QEAA_NW4ConEmuWindowMode@@@Z 000000014003369c f   ConEmuSize.obj
 0001:000326f8       ?IsSizePosFree@CConEmuSize@@QEAA_NW4ConEmuWindowMode@@@Z 00000001400336f8 f   ConEmuSize.obj
 0001:00032748       ?IsWindowModeChanging@CConEmuSize@@QEAA_NXZ 0000000140033748 f   ConEmuSize.obj
 0001:00032768       ?JumpNextMonitor@CConEmuSize@@QEAA_NPEAUHWND__@@PEAUHMONITOR__@@_NUtagRECT@@PEAU4@@Z 0000000140033768 f   ConEmuSize.obj
 0001:00032b8c       ?JumpNextMonitor@CConEmuSize@@QEAA_N_N@Z 0000000140033b8c f   ConEmuSize.obj
 0001:00032d08       ?LogMinimizeRestoreSkip@CConEmuSize@@QEAAXPEB_WKKK@Z 0000000140033d08 f   ConEmuSize.obj
 0001:00032d60       ?LogTileModeChange@CConEmuSize@@IEAAXPEB_WW4ConEmuWindowCommand@@_NAEBUtagRECT@@PEAU3@PEAUHMONITOR__@@@Z 0000000140033d60 f   ConEmuSize.obj
 0001:00032f60       ?NearestMonitorInfo@CConEmuSize@@QEAA?AUMonitorInfoCache@1@AEBUtagRECT@@@Z 0000000140033f60 f   ConEmuSize.obj
 0001:00032f9c       ?NearestMonitorInfo@CConEmuSize@@QEAA?AUMonitorInfoCache@1@PEAUHMONITOR__@@@Z 0000000140033f9c f   ConEmuSize.obj
 0001:000330e8       ?OnConsoleResize@CConEmuSize@@QEAAX_N@Z 00000001400340e8 f   ConEmuSize.obj
 0001:000332a4       ?OnDisplayChanged@CConEmuSize@@QEAA_JIII@Z 00000001400342a4 f   ConEmuSize.obj
 0001:00033304       ?OnDpiChanged@CConEmuSize@@QEAA_JIIPEAUtagRECT@@_NW4DpiChangeSource@@@Z 0000000140034304 f   ConEmuSize.obj
 0001:000336d0       ?OnDpiChangedCall@CConEmuSize@@KA_J_J@Z 00000001400346d0 f   ConEmuSize.obj
 0001:00033708       ?OnGetMinMaxInfo@CConEmuSize@@QEAA_JPEAUtagMINMAXINFO@@@Z 0000000140034708 f   ConEmuSize.obj
 0001:00033c28       ?OnMoving@CConEmuSize@@QEAA_JPEAUtagRECT@@_N@Z 0000000140034c28 f   ConEmuSize.obj
 0001:00034184       ?OnSize@CConEmuSize@@QEAA_J_N_K@Z 0000000140035184 f   ConEmuSize.obj
 0001:00034350       ?OnSizePanels@CConEmuSize@@QEAAXU_COORD@@@Z 0000000140035350 f   ConEmuSize.obj
 0001:00034724       ?OnSizing@CConEmuSize@@QEAA_J_K_J@Z 0000000140035724 f   ConEmuSize.obj
 0001:00034a50       ?OnWindowPosChanged@CConEmuSize@@QEAA_JPEAUHWND__@@I_K_J@Z 0000000140035a50 f   ConEmuSize.obj
 0001:00034f24       ?OnWindowPosChanging@CConEmuSize@@QEAA_JPEAUHWND__@@I_K_J@Z 0000000140035f24 f   ConEmuSize.obj
 0001:00035534       ?ReSize@CConEmuSize@@QEAAX_N@Z 0000000140036534 f   ConEmuSize.obj
 0001:00035740       ?RealPosFromVisual@CConEmuSize@@IEAA?AUtagPOINT@@HH@Z 0000000140036740 f   ConEmuSize.obj
 0001:0003578c       ?RecreateControls@CConEmuSize@@QEAAX_N00PEAUtagRECT@@@Z 000000014003678c f   ConEmuSize.obj
 0001:000358cc       ?ReloadMonitorInfo@CConEmuSize@@QEAAXXZ 00000001400368cc f   ConEmuSize.obj
 0001:0003625c       ?Set@CESize@@QEAA_N_NW4CESizeStyle@@H@Z 000000014003725c f i ConEmuSize.obj
 0001:000362d8       ?SetFromString@CESize@@QEAA_N_NPEB_W@Z 00000001400372d8 f i ConEmuSize.obj
 0001:00036370       ?SetIgnoreQuakeActivation@CConEmuSize@@QEAAX_N@Z 0000000140037370 f   ConEmuSize.obj
 0001:00036390       ?SetNormalWindowSize@CConEmuSize@@IEAA?AUtagRECT@@XZ 0000000140037390 f   ConEmuSize.obj
 0001:00036460       ?SetQuakeMode@CConEmuSize@@QEAA_NEW4ConEmuWindowMode@@_N@Z 0000000140037460 f   ConEmuSize.obj
 0001:00036798       ?SetRequestedMonitor@CConEmuSize@@QEAAXPEAUHMONITOR__@@@Z 0000000140037798 f   ConEmuSize.obj
 0001:0003680c       ?SetTileMode@CConEmuSize@@IEAAXW4ConEmuWindowCommand@@@Z 000000014003780c f   ConEmuSize.obj
 0001:000368c4       ?SetWindowMode@CConEmuSize@@QEAA_NW4ConEmuWindowMode@@_N1@Z 00000001400378c4 f   ConEmuSize.obj
 0001:00037664       ?SetWindowPosSize@CConEmuSize@@QEAA_NPEB_W000@Z 0000000140038664 f   ConEmuSize.obj
 0001:00037b50       ?SetWindowPosSizeParam@CConEmuSize@@QEAAX_WPEB_W@Z 0000000140038b50 f   ConEmuSize.obj
 0001:00037c4c       ?ShowMainWindow@CConEmuSize@@QEAA_NH_N@Z 0000000140038c4c f   ConEmuSize.obj
 0001:00037ec0       ?SizeWindow@CConEmuSize@@QEAA_NTCESize@@0@Z 0000000140038ec0 f   ConEmuSize.obj
 0001:00038044       ?StartForceShowFrame@CConEmuSize@@QEAAXXZ 0000000140039044 f   ConEmuSize.obj
 0001:000380ac       ?StopForceShowFrame@CConEmuSize@@QEAAXXZ 00000001400390ac f   ConEmuSize.obj
 0001:00038110       ?StoreNormalRect@CConEmuSize@@IEAAXPEBUtagRECT@@@Z 0000000140039110 f   ConEmuSize.obj
 0001:000385b4       ?StorePreMinimizeMonitor@CConEmuSize@@QEAAXXZ 00000001400395b4 f   ConEmuSize.obj
 0001:000385e8       ?UpdateInsideRect@CConEmuSize@@QEAAXUtagRECT@@@Z 00000001400395e8 f   ConEmuSize.obj
 0001:0003861c       ?UpdateWindowRgn@CConEmuSize@@QEAAXXZ 000000014003961c f   ConEmuSize.obj
 0001:000387b8       ?VisualPosFromReal@CConEmuSize@@IEAA?AUtagPOINT@@HH@Z 00000001400397b8 f   ConEmuSize.obj
 0001:00038804       ?isCaptionHidden@CConEmuSize@@QEAA_NW4ConEmuWindowMode@@@Z 0000000140039804 f   ConEmuSize.obj
 0001:00038874       ?isFullScreen@CConEmuSize@@QEAA_NXZ 0000000140039874 f   ConEmuSize.obj
 0001:000388b4       ?isIconic@CConEmuSize@@QEAA_N_N@Z 00000001400398b4 f   ConEmuSize.obj
 0001:00038990       ?isSelfFrame@CConEmuSize@@QEAA_NXZ 0000000140039990 f   ConEmuSize.obj
 0001:00038a28       ?isSizing@CConEmuSize@@QEAA_NI@Z 0000000140039a28 f   ConEmuSize.obj
 0001:00038a80       ?isWindowNormal@CConEmuSize@@QEAA_NXZ 0000000140039a80 f   ConEmuSize.obj
 0001:00038ad4       ?isZoomed@CConEmuSize@@QEAA_NXZ 0000000140039ad4 f   ConEmuSize.obj
 0001:00038b14       ?push_back@?$MArray@UMonitorInfoCache@CConEmuSize@@@@QEAA_JAEBUMonitorInfoCache@CConEmuSize@@@Z 0000000140039b14 f i ConEmuSize.obj
 0001:00038b8c       ?setWindowPos@CConEmuSize@@QEAA_NPEAUHWND__@@HHHHI@Z 0000000140039b8c f   ConEmuSize.obj
 0001:00038d58       ??$swprintf_c@$0BCE@@@YAHAEAY0BCE@_WPEB_WZZ 0000000140039d58 f i ConEmuStart.obj
 0001:00038d84       ??0CConEmuStart@@QEAA@PEAVCConEmuMain@@@Z 0000000140039d84 f   ConEmuStart.obj
 0001:00038e48       ??0StartOptions@CConEmuStart@@QEAA@XZ 0000000140039e48 f i ConEmuStart.obj
 0001:00039140       ??1CConEmuStart@@UEAA@XZ   000000014003a140 f   ConEmuStart.obj
 0001:0003917c       ??1CESwitch@@QEAA@XZ       000000014003a17c f   ConEmuStart.obj
 0001:00039194       ??1StartOptions@CConEmuStart@@QEAA@XZ 000000014003a194 f i ConEmuStart.obj
 0001:000393a0       ??BCESwitch@@QEAA_NXZ      000000014003a3a0 f   ConEmuStart.obj
 0001:000393a0       ?GetBool@CESwitch@@QEAA_NXZ 000000014003a3a0 f   ConEmuStart.obj
 0001:000393b0       ??_ECConEmuStart@@UEAAPEAXI@Z 000000014003a3b0 f i ConEmuStart.obj
 0001:000393b0       ??_GCConEmuStart@@UEAAPEAXI@Z 000000014003a3b0 f i ConEmuStart.obj
 0001:000393e4       ?Clear@CESwitch@@QEAAXXZ   000000014003a3e4 f   ConEmuStart.obj
 0001:00039414       ?FindBashLocation@CConEmuStart@@QEAA_NAEAUCEStr@@@Z 000000014003a414 f   ConEmuStart.obj
 0001:00039530       ?GetCfgParm@CConEmuStart@@IEAA_NAEAPEB_WAEAUCESwitch@@H_N@Z 000000014003a530 f   ConEmuStart.obj
 0001:000396e8       ?GetCmd@CConEmuStart@@QEAAPEB_WPEA_N_N@Z 000000014003a6e8 f   ConEmuStart.obj
 0001:00039a10       ?GetCurCmd@CConEmuStart@@QEAAPEB_WPEA_N@Z 000000014003aa10 f   ConEmuStart.obj
 0001:00039a64       ?GetDefaultCmd@CConEmuStart@@QEAAPEB_WXZ 000000014003aa64 f   ConEmuStart.obj
 0001:00039a6c       ?GetDefaultTask@CConEmuStart@@QEAAPEB_WXZ 000000014003aa6c f   ConEmuStart.obj
 0001:00039ad4       ?GetInt@CESwitch@@QEAAHXZ  000000014003aad4 f   ConEmuStart.obj
 0001:00039ae4       ?GetStr@CESwitch@@QEAAPEB_WXZ 000000014003aae4 f   ConEmuStart.obj
 0001:00039b08       ?ParseCommandLine@CConEmuStart@@QEAA_NPEB_WAEAH@Z 000000014003ab08 f   ConEmuStart.obj
 0001:0003c20c       ?ProcessConEmuArgsVar@CConEmuStart@@IEAAXXZ 000000014003d20c f   ConEmuStart.obj
 0001:0003c2ec       ?ResetCmdArg@CConEmuStart@@QEAAXXZ 000000014003d2ec f   ConEmuStart.obj
 0001:0003c320       ?ResetConman@CConEmuStart@@QEAAXXZ 000000014003d320 f   ConEmuStart.obj
 0001:0003c398       ?SetCurCmd@CConEmuStart@@QEAAXPEB_W_N@Z 000000014003d398 f   ConEmuStart.obj
 0001:0003c3cc       ?SetDefaultCmd@CConEmuStart@@QEAAXPEB_W@Z 000000014003d3cc f   ConEmuStart.obj
 0001:0003c4d8       ?SetInt@CESwitch@@QEAAXH@Z 000000014003d4d8 f   ConEmuStart.obj
 0001:0003c4ec       ?SetInt@CESwitch@@QEAAXPEB_WH@Z 000000014003d4ec f   ConEmuStart.obj
 0001:0003c524       ?SetStr@CESwitch@@QEAAXPEB_WW4CESwitchType@@@Z 000000014003d524 f   ConEmuStart.obj
 0001:0003c590       ?ConfirmCloseConsoles@@YAHAEBUConfirmCloseParam@@@Z 000000014003d590 f   ConfirmDlg.obj
 0001:0003cbd4       ?ConfirmDialog@@YAHPEB_W000IPEAUHWND__@@000000@Z 000000014003dbd4 f   ConfirmDlg.obj
 0001:0003d334       ?TaskDialog@@YAJPEAU_TASKDIALOGCONFIG@@PEAH1PEA_N@Z 000000014003e334 f   ConfirmDlg.obj
 0001:0003d510       ??1CAdjustProcessToken@@QEAA@XZ 000000014003e510 f i CreateProcess.obj
 0001:0003d544       ?CreateProcessDemoted@@YAHPEA_WPEAU_SECURITY_ATTRIBUTES@@1HKPEAXPEB_WPEAU_STARTUPINFOW@@PEAU_PROCESS_INFORMATION@@PEAK@Z 000000014003e544 f   CreateProcess.obj
 0001:0003d770       ?CreateProcessInteractive@@YAHKPEB_WPEA_WPEAU_SECURITY_ATTRIBUTES@@2HKPEAX0PEAU_STARTUPINFOW@@PEAU_PROCESS_INFORMATION@@PEAK@Z 000000014003e770 f   CreateProcess.obj
 0001:0003dbf8       ?CreateProcessRestricted@@YAHPEB_WPEA_WPEAU_SECURITY_ATTRIBUTES@@2HKPEAX0PEAU_STARTUPINFOW@@PEAU_PROCESS_INFORMATION@@PEAK@Z 000000014003ebf8 f   CreateProcess.obj
 0001:0003dd84       ?CreateProcessSystem@@YAHKPEA_WPEAU_SECURITY_ATTRIBUTES@@1HKPEAXPEB_WPEAU_STARTUPINFOW@@PEAU_PROCESS_INFORMATION@@PEAK@Z 000000014003ed84 f   CreateProcess.obj
 0001:0003ddf8       ?Enable@CAdjustProcessToken@@QEAAHHZZ 000000014003edf8 f i CreateProcess.obj
 0001:0003de74       ?Enable@CAdjustProcessToken@@QEAAHPEAPEB_WH@Z 000000014003ee74 f i CreateProcess.obj
 0001:0003df98       ?Release@CAdjustProcessToken@@QEAAXXZ 000000014003ef98 f i CreateProcess.obj
 0001:0003e008       ??0CEDC@@QEAA@PEAUHDC__@@@Z 000000014003f008 f   CustomFonts.obj
 0001:0003e080       ??1CachedSolidBrush@@QEAA@XZ 000000014003f080 f   CustomFonts.obj
 0001:0003e098       ??1CustomFontFamily@@QEAA@XZ 000000014003f098 f   CustomFonts.obj
 0001:0003e0e4       ??_EBDFFont@@UEAAPEAXI@Z   000000014003f0e4 f i CustomFonts.obj
 0001:0003e0e4       ??_GBDFFont@@UEAAPEAXI@Z   000000014003f0e4 f i CustomFonts.obj
 0001:0003e154       ??_ECustomFont@@UEAAPEAXI@Z 000000014003f154 f i CustomFonts.obj
 0001:0003e154       ??_GCustomFont@@UEAAPEAXI@Z 000000014003f154 f i CustomFonts.obj
 0001:0003e180       ?AddFont@CustomFontFamily@@QEAAXPEAVCustomFont@@@Z 000000014003f180 f   CustomFonts.obj
 0001:0003e200       ?BDF_GetFamilyName@@YAHPEB_WAEAY0CA@_W@Z 000000014003f200 f   CustomFonts.obj
 0001:0003e244       ?BDF_Load@@YAPEAVCustomFont@@PEB_W@Z 000000014003f244 f   CustomFonts.obj
 0001:0003e24c       ?Create@CEDC@@QEAA_NII@Z   000000014003f24c f   CustomFonts.obj
 0001:0003e434       ?CreateBitmap@BDFFont@@AEAAXXZ 000000014003f434 f i CustomFonts.obj
 0001:0003e564       ?Delete@CEDC@@QEAAXXZ      000000014003f564 f   CustomFonts.obj
 0001:0003e5d0       ?Get@CachedSolidBrush@@QEAAPEAUHBRUSH__@@K@Z 000000014003f5d0 f   CustomFonts.obj
 0001:0003e608       ?GetBoundingBox@BDFFont@@UEAAXPEAJ0@Z 000000014003f608 f i CustomFonts.obj
 0001:0003e614       ?GetFamilyName@BDFFont@@SA_NPEB_WAEAY0CA@_W@Z 000000014003f614 f i CustomFonts.obj
 0001:0003e7a8       ?GetFont@CustomFontFamily@@QEAAPEAVCustomFont@@HHHH@Z 000000014003f7a8 f   CustomFonts.obj
 0001:0003e8c8       ?GetSize@BDFFont@@UEAAHXZ  000000014003f8c8 f i CustomFonts.obj
 0001:0003e8e8       ?HasBorders@BDFFont@@UEAAHXZ 000000014003f8e8 f i CustomFonts.obj
 0001:0003e8ec       ?HasUnicode@BDFFont@@UEAAHXZ 000000014003f8ec f i CustomFonts.obj
 0001:0003e8f0       ?IsBold@BDFFont@@UEAAHXZ   000000014003f8f0 f i CustomFonts.obj
 0001:0003e8f4       ?GetPageType@CSetPgFonts@@UEAA?AW4TabHwndIndex@@XZ 000000014003f8f4 f i SetPgFonts.obj
 0001:0003e8f4       ?IsMonospace@BDFFont@@UEAAHXZ 000000014003f8f4 f i CustomFonts.obj
 0001:0003e8f4       _get_startup_argv_mode     000000014003f8f4 f i LIBCMT:argv_mode.obj
 0001:0003e8fc       ?Load@BDFFont@@SAPEAV1@PEB_W@Z 000000014003f8fc f i CustomFonts.obj
 0001:0003eedc       ?LoadBuffer@BDFFont@@SAPEADPEB_WAEAPEAD1@Z 000000014003fedc f i CustomFonts.obj
 0001:0003efd8       ?NextLine@BDFFont@@SA_KAEAPEAD0@Z 000000014003ffd8 f i CustomFonts.obj
 0001:0003f04c       ?Reset@CEDC@@AEAAXXZ       000000014004004c f   CustomFonts.obj
 0001:0003f088       ?SelectFont@CEDC@@QEAAXPEAVCFont@@@Z 0000000140040088 f   CustomFonts.obj
 0001:0003f138       ?SetBkColor@CEDC@@QEAAXK@Z 0000000140040138 f   CustomFonts.obj
 0001:0003f18c       ?SetBkMode@CEDC@@QEAAXH@Z  000000014004018c f   CustomFonts.obj
 0001:0003f1e0       ?SetTextColor@CEDC@@QEAAXK@Z 00000001400401e0 f   CustomFonts.obj
 0001:0003f234       ?TextDraw@BDFFont@@UEAAXPEAK_KKKPEB_WI@Z 0000000140040234 f i CustomFonts.obj
 0001:0003f380       ?TextDraw@BDFFont@@UEAAXPEAUHDC__@@HHPEB_WI@Z 0000000140040380 f i CustomFonts.obj
 0001:0003f428       ?TextDraw@CEDC@@QEAA_NHHIPEBUtagRECT@@PEB_WIPEBH@Z 0000000140040428 f   CustomFonts.obj
 0001:0003f654       ?TextDrawOem@CEDC@@QEAA_NHHIPEBUtagRECT@@PEBDIPEBH@Z 0000000140040654 f   CustomFonts.obj
 0001:0003f7a8       ?TextExtentPoint@CEDC@@QEAA_NPEB_WHPEAUtagSIZE@@@Z 00000001400407a8 f   CustomFonts.obj
 0001:0003f880       ??0CDefTermBase@@QEAA@_N@Z 0000000140040880 f i DefaultTerm.obj
 0001:0003f990       ??0CDefaultTerminal@@QEAA@XZ 0000000140040990 f   DefaultTerm.obj
 0001:0003f9bc       ??1CDefTermBase@@UEAA@XZ   00000001400409bc f i DefaultTerm.obj
 0001:0003fa28       ??1CDefaultTerminal@@UEAA@XZ 0000000140040a28 f   DefaultTerm.obj
 0001:0003fa78       ??1CEDefTermOpt@@QEAA@XZ   0000000140040a78 f i DefaultTerm.obj
 0001:0003fae4       ??_ECDefTermBase@@UEAAPEAXI@Z 0000000140040ae4 f i DefaultTerm.obj
 0001:0003fae4       ??_GCDefTermBase@@UEAAPEAXI@Z 0000000140040ae4 f i DefaultTerm.obj
 0001:0003fb18       ??_GCDefaultTerminal@@UEAAPEAXI@Z 0000000140040b18 f i DefaultTerm.obj
 0001:0003fb18       ??_ECDefaultTerminal@@UEAAPEAXI@Z 0000000140040b18 f i DefaultTerm.obj
 0001:0003fb4c       ?ApplyAndSave@CDefaultTerminal@@QEAAX_N0@Z 0000000140040b4c f   DefaultTerm.obj
 0001:0003fb84       ?AutoClearThreads@CDefTermBase@@MEAAXXZ 0000000140040b84 f i DefaultTerm.obj
 0001:0003fb8c       ?AutoClearThreads@CDefaultTerminal@@MEAAXXZ 0000000140040b8c f   DefaultTerm.obj
 0001:0003fbb0       ?CheckRegisterOsStartup@CDefaultTerminal@@QEAAXXZ 0000000140040bb0 f   DefaultTerm.obj
 0001:0003fddc       ?ClearThreads@CDefTermBase@@IEAAX_N@Z 0000000140040ddc f i DefaultTerm.obj
 0001:0003feec       ?ConhostLocker@CDefaultTerminal@@MEAAX_NAEA_N@Z 0000000140040eec f   DefaultTerm.obj
 0001:0003ff28       ?DisplayLastError@CDefaultTerminal@@MEAAHPEB_WKK0PEAUHWND__@@@Z 0000000140040f28 f   DefaultTerm.obj
 0001:0003ff50       ?_Getal@?$_Vector_alloc@U?$_Vec_base_types@V?$_List_unchecked_iterator@V?$_List_val@U?$_List_simple_types@U?$pair@$$CBHG@std@@@std@@@std@@@std@@V?$allocator@V?$_List_unchecked_iterator@V?$_List_val@U?$_List_simple_types@U?$pair@$$CBHG@std@@@std@@@std@@@std@@@2@@std@@@std@@QEAAAEAV?$allocator@V?$_List_unchecked_iterator@V?$_List_val@U?$_List_simple_types@U?$pair@$$CBHG@std@@@std@@@std@@@std@@@2@XZ 0000000140040f50 f   Font.obj
 0001:0003ff50       ?GetInterface@CDefaultTerminal@@MEAAPEAVCDefTermBase@@XZ 0000000140040f50 f   DefaultTerm.obj
 0001:0003ff54       ?Initialize@CDefTermBase@@IEAAX_N00@Z 0000000140040f54 f i DefaultTerm.obj
 0001:00040154       ?IsRegisteredOsStartup@CDefaultTerminal@@QEAA_NPEAUCEStr@@PEA_N@Z 0000000140041154 f   DefaultTerm.obj
 0001:00040250       ?LogHookingStatus@CDefaultTerminal@@UEAAXKPEB_W@Z 0000000140041250 f   DefaultTerm.obj
 0001:0004030c       ?NotifyHookingStatus@CDefaultTerminal@@MEAA_NKPEB_W@Z 000000014004130c f   DefaultTerm.obj
 0001:000403e8       ?OnTaskbarCreated@CDefaultTerminal@@QEAAXXZ 00000001400413e8 f   DefaultTerm.obj
 0001:0004040c       ?PostCreatedThread@CDefTermBase@@KAKPEAX@Z 000000014004140c f i DefaultTerm.obj
 0001:00040440       ?PreCreateThread@CDefaultTerminal@@MEAAXXZ 0000000140041440 f   DefaultTerm.obj
 0001:00040464       ?ReloadSettings@CDefaultTerminal@@MEAAXXZ 0000000140041464 f   DefaultTerm.obj
 0001:000405c4       ?Serialize@CEDefTermOpt@@QEAA_N_N@Z 00000001400415c4 f i DefaultTerm.obj
 0001:00040bc8       ?ShowTrayIconError@CDefaultTerminal@@MEAAXPEB_W@Z 0000000140041bc8 f   DefaultTerm.obj
 0001:00040bdc       ?StartGuiDefTerm@CDefaultTerminal@@QEAAX_N0@Z 0000000140041bdc f   DefaultTerm.obj
 0001:00040c40       ?StopHookers@CDefTermBase@@MEAAXXZ 0000000140041c40 f i DefaultTerm.obj
 0001:00040c74       ?isDefaultTerminalAllowed@CDefaultTerminal@@UEAA_N_N@Z 0000000140041c74 f   DefaultTerm.obj
 0001:00040c9c       ?isLogging@CDefaultTerminal@@UEAA_NXZ 0000000140041c9c f   DefaultTerm.obj
 0001:00040cbc       ?GetNumber@CDlgItemHelper@@SAHPEAUHWND__@@GHH@Z 0000000140041cbc f   DlgItemHelper.obj
 0001:00040d84       ?GetString@CDlgItemHelper@@SA_JPEAUHWND__@@GPEAPEA_WPEB_W_N@Z 0000000140041d84 f   DlgItemHelper.obj
 0001:00040f30       ?InvalidateCtrl@CDlgItemHelper@@SAXPEAUHWND__@@H@Z 0000000140041f30 f   DlgItemHelper.obj
 0001:00040f3c       ?OpenHyperlink@CDlgItemHelper@@SA_NAEAUCEStr@@PEAUHWND__@@@Z 0000000140041f3c f   DlgItemHelper.obj
 0001:00040f9c       ?ProcessHyperlinkCtrl@CDlgItemHelper@@SA_NPEAUHWND__@@G@Z 0000000140041f9c f   DlgItemHelper.obj
 0001:000410d0       ?checkDlgButton@CDlgItemHelper@@SA_NPEAUHWND__@@GI@Z 00000001400420d0 f   DlgItemHelper.obj
 0001:000410e8       ?checkRadioButton@CDlgItemHelper@@SA_NPEAUHWND__@@HHH@Z 00000001400420e8 f   DlgItemHelper.obj
 0001:000410fc       ?enableDlgItem@CDlgItemHelper@@SAXPEAUHWND__@@G_N@Z 00000001400420fc f   DlgItemHelper.obj
 0001:00041120       ?enableDlgItems@CDlgItemHelper@@SAXPEAUHWND__@@PEAI_J_N@Z 0000000140042120 f   DlgItemHelper.obj
 0001:000411d4       ?isChecked2@CDlgItemHelper@@SA_NPEAUHWND__@@G@Z 00000001400421d4 f   DlgItemHelper.obj
 0001:000411e8       ?isChecked@CDlgItemHelper@@SAEPEAUHWND__@@G@Z 00000001400421e8 f   DlgItemHelper.obj
 0001:00041214       ?isHyperlinkCtrl@CDlgItemHelper@@SA_NG@Z 0000000140042214 f   DlgItemHelper.obj
 0001:00041244       ??0CDpiForDialog@@IEAA@XZ  0000000140042244 f   DpiAware.obj
 0001:000412d4       ??0DpiValue@@QEAA@HH@Z     00000001400422d4 f   DpiAware.obj
 0001:000412e0       ??0DpiValue@@QEAA@XZ       00000001400422e0 f   DpiAware.obj
 0001:000412f0       ??1CDpiForDialog@@QEAA@XZ  00000001400422f0 f   DpiAware.obj
 0001:00041350       ?Attach@CDpiForDialog@@QEAA_NPEAUHWND__@@0PEAVCDynDialog@@@Z 0000000140042350 f   DpiAware.obj
 0001:000415d4       ?CenterDialog@CDpiAware@@SAXPEAUHWND__@@@Z 00000001400425d4 f   DpiAware.obj
 0001:000416c4       ?Create@CDpiForDialog@@SA_NAEAPEAV1@@Z 00000001400426c4 f   DpiAware.obj
 0001:00041718       ?Detach@CDpiForDialog@@QEAAXXZ 0000000140042718 f   DpiAware.obj
 0001:000417d4       ?FromWParam@DpiValue@@SA?AU1@_K@Z 00000001400427d4 f   DpiAware.obj
 0001:00041800       ?GetCenteredRect@CDpiAware@@SAXPEAUHWND__@@AEAUtagRECT@@PEAUHMONITOR__@@@Z 0000000140042800 f   DpiAware.obj
 0001:000418bc       ?GetCurDpi@CDpiForDialog@@QEBAAEBUDpiValue@@XZ 00000001400428bc f   DpiAware.obj
 0001:000418c4       ?GetFontSizeForDpi@CDpiForDialog@@IEAAHPEAUHDC__@@H@Z 00000001400428c4 f   DpiAware.obj
 0001:000418f8       ?GetNext@?$MMap@HPEAV?$MArray@UDlgItem@CDpiForDialog@@@@$0A@@@QEAA_NPEBHPEAHPEAPEAV?$MArray@UDlgItem@CDpiForDialog@@@@@Z 00000001400428f8 f i DpiAware.obj
 0001:000419b4       ?IsPerMonitorDpi@CDpiAware@@SA_NXZ 00000001400429b4 f   DpiAware.obj
 0001:00041a90       ?LoadDialogItems@CDpiForDialog@@KAPEAV?$MArray@UDlgItem@CDpiForDialog@@@@PEAUHWND__@@@Z 0000000140042a90 f   DpiAware.obj
 0001:00041bec       ?ProcessDpiMessages@CDpiForDialog@@QEAA_NPEAUHWND__@@I_K_J@Z 0000000140042bec f   DpiAware.obj
 0001:00041c44       ?QueryDpi@CDpiAware@@SAHPEAUHWND__@@PEAUDpiValue@@@Z 0000000140042c44 f   DpiAware.obj
 0001:00041c9c       ?QueryDpiForMonitor@CDpiAware@@SAHPEAUHMONITOR__@@PEAUDpiValue@@W4MonitorDpiType@@@Z 0000000140042c9c f   DpiAware.obj
 0001:00041e10       ?QueryDpiForRect@CDpiAware@@SAHAEBUtagRECT@@PEAUDpiValue@@W4MonitorDpiType@@@Z 0000000140042e10 f   DpiAware.obj
 0001:00041e44       ?QueryDpiForWindow@CDpiAware@@SAHPEAUHWND__@@PEAUDpiValue@@@Z 0000000140042e44 f   DpiAware.obj
 0001:00041ed0       ?SetDialogDPI@CDpiForDialog@@QEAA_NAEBUDpiValue@@PEAUtagRECT@@@Z 0000000140042ed0 f   DpiAware.obj
 0001:000426a8       ?SetDpi@DpiValue@@QEAAXAEBU1@@Z 00000001400436a8 f   DpiAware.obj
 0001:000426b8       ?SetDpi@DpiValue@@QEAAXHH@Z 00000001400436b8 f   DpiAware.obj
 0001:000426c0       ?UpdateStartupInfo@CDpiAware@@SAXPEAUCEStartupEnv@@@Z 00000001400436c0 f   DpiAware.obj
 0001:00042778       ?push_back@?$MArray@ULngDefinition@CLngRc@@@@QEAA_JAEBULngDefinition@CLngRc@@@Z 0000000140043778 f i LngRc.obj
 0001:00042778       ?push_back@?$MArray@UFoundFile@FastConfig@@@@QEAA_JAEBUFoundFile@FastConfig@@@Z 0000000140043778 f i OptionsFast.obj
 0001:00042778       ?push_back@?$MArray@UDlgItem@CDpiForDialog@@@@QEAA_JAEBUDlgItem@CDpiForDialog@@@Z 0000000140043778 f i DpiAware.obj
 0001:00042778       ?push_back@?$MArray@UHighlightRect@CVirtualConsole@@@@QEAA_JAEBUHighlightRect@CVirtualConsole@@@Z 0000000140043778 f i VirtualConsole.obj
 0001:000427f0       ?setProcessDPIAwareness@CDpiAware@@SAJXZ 00000001400437f0 f   DpiAware.obj
 0001:00042864       ??$SafeDelete@U_ShlOpInfo@CDragDrop@@@@YAXAEAPEAU_ShlOpInfo@CDragDrop@@@Z 0000000140043864 f i DragDrop.obj
 0001:00042894       ??0CDragDrop@@QEAA@XZ      0000000140043894 f   DragDrop.obj
 0001:0004296c       ??1CDragDrop@@UEAA@XZ      000000014004396c f   DragDrop.obj
 0001:00042bf4       ??_ECDragDrop@@WBA@EAAPEAXI@Z 0000000140043bf4 f i DragDrop.obj
 0001:00042c00       ??_GCDragDrop@@UEAAPEAXI@Z 0000000140043c00 f i DragDrop.obj
 0001:00042c00       ??_ECDragDrop@@UEAAPEAXI@Z 0000000140043c00 f i DragDrop.obj
 0001:00042c34       ?CreateLink@CDragDrop@@QEAAJPEB_W00@Z 0000000140043c34 f   DragDrop.obj
 0001:00042cfc       ?Drag@CDragDrop@@QEAAXHU_COORD@@@Z 0000000140043cfc f   DragDrop.obj
 0001:00042dec       ?DragEnter@CDragDrop@@UEAAJPEAUIDataObject@@KU_POINTL@@PEAK@Z 0000000140043dec f   DragDrop.obj
 0001:00042f2c       ?DragLeave@CDragDrop@@UEAAJXZ 0000000140043f2c f   DragDrop.obj
 0001:00042f5c       ?DragOver@CDragDrop@@UEAAJKU_POINTL@@PEAK@Z 0000000140043f5c f   DragDrop.obj
 0001:00043008       ?DragOverInt@CDragDrop@@IEAAJKU_POINTL@@PEAK@Z 0000000140044008 f   DragDrop.obj
 0001:000432c8       ?DragStart@CDragDrop@@IEAAKPEAUIDropSource@@KAEAK@Z 00000001400442c8 f   DragDrop.obj
 0001:000433e0       ?Drop@CDragDrop@@UEAAJPEAUIDataObject@@KU_POINTL@@PEAK@Z 00000001400443e0 f   DragDrop.obj
 0001:000436c8       ?DropFromStream@CDragDrop@@IEAAJPEAUIDataObject@@H@Z 00000001400446c8 f   DragDrop.obj
 0001:00043efc       ?DropFromText@CDragDrop@@IEAAJPEAUIDataObject@@@Z 0000000140044efc f   DragDrop.obj
 0001:00044004       ?DropLinks@CDragDrop@@IEAAJPEAUHDROP__@@HH@Z 0000000140045004 f   DragDrop.obj
 0001:00044224       ?DropNames@CDragDrop@@IEAAJPEAUHDROP__@@HH@Z 0000000140045224 f   DragDrop.obj
 0001:00044998       ?DropShellOp@CDragDrop@@IEAAJPEAUIDataObject@@PEAKAEAUtagSTGMEDIUM@@HH@Z 0000000140045998 f   DragDrop.obj
 0001:00044e14       ?FileCreateName@CDragDrop@@IEAAPEA_WHHPEB_W0@Z 0000000140045e14 f   DragDrop.obj
 0001:0004530c       ?FileStart@CDragDrop@@IEAAPEAXPEB_W@Z 000000014004630c f   DragDrop.obj
 0001:00045424       ?FileWrite@CDragDrop@@IEAAJPEAXK0@Z 0000000140046424 f   DragDrop.obj
 0001:00045568       ?ReportUnknownData@CDragDrop@@IEAAXPEAUIDataObject@@PEB_W@Z 0000000140046568 f   DragDrop.obj
 0001:00045704       ?ShellOpThreadProc@CDragDrop@@KAKPEAX@Z 0000000140046704 f   DragDrop.obj
 0001:000458bc       swprintf_s                 00000001400468bc f i DragDrop.obj
 0001:00045910       ??$PidlDump@PEFBU_ITEMIDLIST@@@@YAXPEFBU_ITEMIDLIST@@PEAX@Z 0000000140046910 f i DragDropData.obj
 0001:00045ae8       ??0CDragDropData@@QEAA@XZ  0000000140046ae8 f   DragDropData.obj
 0001:00045bb4       ??1CDragDropData@@UEAA@XZ  0000000140046bb4 f   DragDropData.obj
 0001:00045c58       ??_GCDragDropData@@UEAAPEAXI@Z 0000000140046c58 f i DragDropData.obj
 0001:00045c58       ??_ECDragDropData@@UEAAPEAXI@Z 0000000140046c58 f i DragDropData.obj
 0001:00045c8c       ?AddFmt_DragImageBits@CDragDropData@@AEAAHPEA_WIH@Z 0000000140046c8c f   DragDropData.obj
 0001:00045e34       ?AddFmt_HDROP@CDragDropData@@AEAAHPEA_WIH@Z 0000000140046e34 f   DragDropData.obj
 0001:00045f14       ?AddFmt_InShellDragLoop@CDragDropData@@AEAAHPEA_WIH@Z 0000000140046f14 f   DragDropData.obj
 0001:00045f4c       ?AddFmt_PREFERREDDROPEFFECT@CDragDropData@@AEAAHPEA_WIH@Z 0000000140046f4c f   DragDropData.obj
 0001:00045fac       ?AddFmt_SHELLIDLIST@CDragDropData@@AEAAHPEA_WIH@Z 0000000140046fac f   DragDropData.obj
 0001:00046250       ?CheckIsUpdatePackage@CDragDropData@@IEAA_NPEAUIDataObject@@@Z 0000000140047250 f   DragDropData.obj
 0001:00046368       ?DragFeedBack@CDragDropData@@QEAAXK@Z 0000000140047368 f   DragDropData.obj
 0001:000463dc       ?DrawImageBits@CDragDropData@@IEAAHPEAUHDC__@@PEA_WPEAHH2@Z 00000001400473dc f   DragDropData.obj
 0001:00046614       ?EnumDragFormats@CDragDropData@@IEAAXPEAUIDataObject@@PEAX@Z 0000000140047614 f   DragDropData.obj
 0001:00046e3c       ?ForwardMessage@CDragDropData@@QEAAHI_K_J@Z 0000000140047e3c f   DragDropData.obj
 0001:00046e9c       ?InDragDrop@CDragDropData@@QEAAHXZ 0000000140047e9c f   DragDropData.obj
 0001:00046eb4       ?IsDragStarting@CDragDropData@@QEAAHXZ 0000000140047eb4 f   DragDropData.obj
 0001:00046efc       ?NeedRefreshToInfo@CDragDropData@@QEAA_NU_POINTL@@@Z 0000000140047efc f   DragDropData.obj
 0001:00046fa4       ?PaintDragImageBits@CDragDropData@@IEAAHPEA_WAEAPEAUHDC__@@AEAPEAUHBITMAP__@@2HHPEAH3PEAUtagPOINT@@_NK@Z 0000000140047fa4 f   DragDropData.obj
 0001:0004745c       ?PrepareDrag@CDragDropData@@QEAAHHU_COORD@@PEAK@Z 000000014004845c f   DragDropData.obj
 0001:00047694       ?Register@CDragDropData@@QEAAHXZ 0000000140048694 f   DragDropData.obj
 0001:000476fc       ?RetrieveDragFromInfo@CDragDropData@@AEAAHHU_COORD@@PEAPEA_WPEAI@Z 00000001400486fc f   DragDropData.obj
 0001:00047a50       ?RetrieveDragToInfo@CDragDropData@@QEAAXU_POINTL@@@Z 0000000140048a50 f   DragDropData.obj
 0001:00047c5c       ?SetDragToInfo@CDragDropData@@QEAAXPEBUForwardedPanelInfo@@_KPEAVCRealConsole@@@Z 0000000140048c5c f   DragDropData.obj
 0001:00047e54       ?StringCbCopyW@@YAJPEA_W_KPEB_W@Z 0000000140048e54 f i DragDropData.obj
 0001:00047ed0       ?TerminateDrag@CDragDropData@@IEAAXXZ 0000000140048ed0 f   DragDropData.obj
 0001:00048024       ?UseSourceHelper@CDragDropData@@IEAA_NXZ 0000000140049024 f   DragDropData.obj
 0001:000480dc       ?UseTargetHelper@CDragDropData@@IEAA_N_N@Z 00000001400490dc f   DragDropData.obj
 0001:00048194       ??0CDwmHelper@@QEAA@XZ     0000000140049194 f   DwmHelper.obj
 0001:000481c8       ??1CDwmHelper@@UEAA@XZ     00000001400491c8 f   DwmHelper.obj
 0001:000482d0       ??_ECDwmHelper@@UEAAPEAXI@Z 00000001400492d0 f i DwmHelper.obj
 0001:000482d0       ??_GCDwmHelper@@UEAAPEAXI@Z 00000001400492d0 f i DwmHelper.obj
 0001:00048304       ?AdjustWindowRectExForDpi@CDwmHelper@@QEAAHPEAUtagRECT@@KHKI@Z 0000000140049304 f   DwmHelper.obj
 0001:0004834c       ?DrawType@CDwmHelper@@QEAA?AW4FrameDrawStyle@@XZ 000000014004934c f   DwmHelper.obj
 0001:000483bc       ?DwmDefWindowProc@CDwmHelper@@QEAAHPEAUHWND__@@I_K_JPEA_J@Z 00000001400493bc f   DwmHelper.obj
 0001:00048404       ?DwmGetWindowAttribute@CDwmHelper@@QEAAJPEAUHWND__@@KPEAXK@Z 0000000140049404 f   DwmHelper.obj
 0001:00048434       ?DwmInvalidateIconicBitmaps@CDwmHelper@@QEAAJPEAUHWND__@@@Z 0000000140049434 f   DwmHelper.obj
 0001:00048454       ?DwmSetIconicLivePreviewBitmap@CDwmHelper@@QEAAJPEAUHWND__@@PEAUHBITMAP__@@PEAUtagPOINT@@@Z 0000000140049454 f   DwmHelper.obj
 0001:00048490       ?DwmSetIconicThumbnail@CDwmHelper@@QEAAJPEAUHWND__@@PEAUHBITMAP__@@@Z 0000000140049490 f   DwmHelper.obj
 0001:000484bc       ?ExtendWindowFrame@CDwmHelper@@QEAA_NPEAUHWND__@@AEBUtagRECT@@@Z 00000001400494bc f   DwmHelper.obj
 0001:00048530       ?ExtendWindowFrame@CDwmHelper@@QEAA_NXZ 0000000140049530 f   DwmHelper.obj
 0001:00048564       ?ForceSetIconic@CDwmHelper@@QEAAXPEAUHWND__@@@Z 0000000140049564 f   DwmHelper.obj
 0001:000485d4       ?GetDwmClientRectTopOffset@CDwmHelper@@QEAAHXZ 00000001400495d4 f   DwmHelper.obj
 0001:000485e0       ?InitDwm@CDwmHelper@@AEAAXXZ 00000001400495e0 f   DwmHelper.obj
 0001:00048a58       ?IsDwm@CDwmHelper@@QEAA_NXZ 0000000140049a58 f   DwmHelper.obj
 0001:00048a8c       ?IsGlass@CDwmHelper@@QEAA_NXZ 0000000140049a8c f   DwmHelper.obj
 0001:00048ab8       ?IsThemed@CDwmHelper@@QEAA_NXZ 0000000140049ab8 f   DwmHelper.obj
 0001:00048af4       ??1CDynDialog@@UEAA@XZ     0000000140049af4 f   DynDialog.obj
 0001:00048c20       ??_GCDynDialog@@UEAAPEAXI@Z 0000000140049c20 f i DynDialog.obj
 0001:00048c20       ??_ECDynDialog@@UEAAPEAXI@Z 0000000140049c20 f i DynDialog.obj
 0001:00048c54       ?DynDialogBox@CDynDialog@@KA_JPEAUHWND__@@I_K_J@Z 0000000140049c54 f   DynDialog.obj
 0001:00048d68       ?ExecuteDialog@CDynDialog@@SA_JIPEAUHWND__@@P6A_J0I_K_J@Z2@Z 0000000140049d68 f   DynDialog.obj
 0001:00048e8c       ?Get@?$MMap@PEAUHWND__@@PEAVCVirtualConsole@@$0A@@@QEAA_NAEBQEAUHWND__@@PEAPEAVCVirtualConsole@@_N@Z 0000000140049e8c f i VConChild.obj
 0001:00048e8c       ?Get@?$MMap@PEAUHWND__@@PEAVCFindPanel@@$0A@@@QEAA_NAEBQEAUHWND__@@PEAPEAVCFindPanel@@_N@Z 0000000140049e8c f i FindPanel.obj
 0001:00048e8c       ?Get@?$MMap@PEAUHWND__@@P6A_JPEAU1@I_K_J@Z$0A@@@QEAA_NAEBQEAUHWND__@@PEAP6A_JPEAU2@I_K_J@Z_N@Z 0000000140049e8c f i SetDlgColors.obj
 0001:00048e8c       ?Get@?$MMap@PEAUHWND__@@PEAVCDynDialog@@$0A@@@QEAA_NAEBQEAUHWND__@@PEAPEAVCDynDialog@@_N@Z 0000000140049e8c f i DynDialog.obj
 0001:00048f0c       ?GetDlgClass@CDynDialog@@SAPEAV1@PEAUHWND__@@@Z 0000000140049f0c f   DynDialog.obj
 0001:00048f60       ?GetFontPointSize@CDynDialog@@QEAAIXZ 0000000140049f60 f   DynDialog.obj
 0001:00048f7c       ?LoadTemplate@CDynDialog@@QEAA_NXZ 0000000140049f7c f   DynDialog.obj
 0001:000491a8       ?LocalizeControl@CDynDialog@@SAHPEAUHWND__@@_J@Z 000000014004a1a8 f   DynDialog.obj
 0001:000492cc       ?LocalizeDialog@CDynDialog@@SAXPEAUHWND__@@I@Z 000000014004a2cc f   DynDialog.obj
 0001:00049328       ?ParseDialog@CDynDialog@@IEAA_NAEA_K@Z 000000014004a328 f   DynDialog.obj
 0001:00049428       ?ParseDialogEx@CDynDialog@@IEAA_NAEA_K@Z 000000014004a428 f   DynDialog.obj
 0001:00049558       ?ParseItem@CDynDialog@@IEAA_NAEA_K@Z 000000014004a558 f   DynDialog.obj
 0001:0004963c       ?ParseItemEx@CDynDialog@@IEAA_NAEA_K@Z 000000014004a63c f   DynDialog.obj
 0001:00049724       ?PrepareDlg@CDynDialog@@IEAAXP6A_JPEAUHWND__@@I_K_J@Z@Z 000000014004a724 f   DynDialog.obj
 0001:00049788       ?Set@?$MMap@PEAUHWND__@@PEAVCVirtualConsole@@$0A@@@QEAA_NAEBQEAUHWND__@@AEBQEAVCVirtualConsole@@@Z 000000014004a788 f i VConChild.obj
 0001:00049788       ?Set@?$MMap@PEAUHWND__@@PEAVCDynDialog@@$0A@@@QEAA_NAEBQEAUHWND__@@AEBQEAVCDynDialog@@@Z 000000014004a788 f i DynDialog.obj
 0001:00049788       ?Set@?$MMap@PEAUHWND__@@P6A_JPEAU1@I_K_J@Z$0A@@@QEAA_NAEBQEAUHWND__@@AEBQ6A_JPEAU2@I_K_J@Z@Z 000000014004a788 f i SetDlgColors.obj
 0001:00049788       ?Set@?$MMap@PEAUHWND__@@PEAVCFindPanel@@$0A@@@QEAA_NAEBQEAUHWND__@@AEBQEAVCFindPanel@@@Z 000000014004a788 f i FindPanel.obj
 0001:00049788       ?Set@?$MMap@PEAVCVConGroup@@PEAVCVirtualConsole@@$0A@@@QEAA_NAEBQEAVCVConGroup@@AEBQEAVCVirtualConsole@@@Z 000000014004a788 f i TabBar.obj
 0001:000498d8       ?ShowDialog@CDynDialog@@SAPEAV1@IPEAUHWND__@@P6A_J0I_K_J@Z2@Z 000000014004a8d8 f   DynDialog.obj
 0001:00049a04       ?SkipSzOrAtom@CDynDialog@@IEAAPEA_WAEA_K@Z 000000014004aa04 f   DynDialog.obj
 0001:00049a98       ?SkipSzOrOrd@CDynDialog@@IEAAPEA_WAEA_K@Z 000000014004aa98 f   DynDialog.obj
 0001:00049acc       ??0CEFindDlg@@QEAA@XZ      000000014004aacc f   FindDlg.obj
 0001:00049ae0       ?FindTextDialog@CEFindDlg@@QEAAXXZ 000000014004aae0 f   FindDlg.obj
 0001:00049c20       ?UpdateFindDlgAlpha@CEFindDlg@@QEAAX_N@Z 000000014004ac20 f   FindDlg.obj
 0001:00049cf4       ?findTextProc@CEFindDlg@@SA_JPEAUHWND__@@I_K_J@Z 000000014004acf4 f   FindDlg.obj
 0001:0004a278       ??$SafeDelete@UCEStr@@@@YAXAEAPEAUCEStr@@@Z 000000014004b278 f i FindPanel.obj
 0001:0004a2c0       ??0CFindPanel@@QEAA@PEAVCConEmuMain@@@Z 000000014004b2c0 f   FindPanel.obj
 0001:0004a38c       ??1CFindPanel@@QEAA@XZ     000000014004b38c f   FindPanel.obj
 0001:0004a3bc       ?Activate@CFindPanel@@QEAAPEAUHWND__@@_N@Z 000000014004b3bc f   FindPanel.obj
 0001:0004a418       ?CreatePane@CFindPanel@@QEAAPEAUHWND__@@PEAU2@H@Z 000000014004b418 f   FindPanel.obj
 0001:0004a4d4       ?EditCtrlProc@CFindPanel@@KA_JPEAUHWND__@@I_K_J@Z 000000014004b4d4 f   FindPanel.obj
 0001:0004a5f8       ?FindPaneProc@CFindPanel@@KA_JPEAUHWND__@@I_K_J@Z 000000014004b5f8 f   FindPanel.obj
 0001:0004a78c       ?GetParseError@MJsonValue@@QEAAPEB_WXZ 000000014004b78c f   common-user64:MJsonReader.obj
 0001:0004a78c       ?GetHWND@CFindPanel@@QEAAPEAUHWND__@@XZ 000000014004b78c f   FindPanel.obj
 0001:0004a794       ?GetMinWidth@CFindPanel@@QEAAHXZ 000000014004b794 f   FindPanel.obj
 0001:0004a7b4       ?Invalidate@CFindPanel@@QEAAXXZ 000000014004b7b4 f   FindPanel.obj
 0001:0004a7ec       ?IsAvailable@CFindPanel@@QEAA_N_N@Z 000000014004b7ec f   FindPanel.obj
 0001:0004a844       ?OnCreateFinished@CFindPanel@@QEAA_NXZ 000000014004b844 f   FindPanel.obj
 0001:0004a968       ?OnCreateFont@CFindPanel@@IEAAXXZ 000000014004b968 f   FindPanel.obj
 0001:0004aa74       ?OnDestroy@CFindPanel@@IEAAXXZ 000000014004ba74 f   FindPanel.obj
 0001:0004aae4       ?OnKeyboard@CFindPanel@@IEAA_NI_K_JAEA_J@Z 000000014004bae4 f   FindPanel.obj
 0001:0004ace0       ?OnSearch@CFindPanel@@IEAAXXZ 000000014004bce0 f   FindPanel.obj
 0001:0004ad98       ?OnSize@CFindPanel@@IEAAXPEAUtagRECT@@@Z 000000014004bd98 f   FindPanel.obj
 0001:0004aec4       ?OnWindowPosChanging@CFindPanel@@IEAAXPEAUtagWINDOWPOS@@@Z 000000014004bec4 f   FindPanel.obj
 0001:0004af28       ?RegisterPaneClass@CFindPanel@@IEAA_NXZ 000000014004bf28 f   FindPanel.obj
 0001:0004afc0       ?ShowMenu@CFindPanel@@IEAAXXZ 000000014004bfc0 f   FindPanel.obj
 0001:0004b1bc       ?StopSearch@CFindPanel@@IEAAXXZ 000000014004c1bc f   FindPanel.obj
 0001:0004b20c       ??$_Fill_unchecked@PEAV?$_List_unchecked_iterator@V?$_List_val@U?$_List_simple_types@U?$pair@$$CBHG@std@@@std@@@std@@@std@@V12@@std@@YAXPEAV?$_List_unchecked_iterator@V?$_List_val@U?$_List_simple_types@U?$pair@$$CBHG@std@@@std@@@std@@@0@0AEBV10@@Z 000000014004c20c f i Font.obj
 0001:0004b28c       ??0?$_Hash@V?$_Umap_traits@HGV?$_Uhash_compare@HU?$hash@H@std@@U?$equal_to@H@2@@std@@V?$allocator@U?$pair@$$CBHG@std@@@2@$0A@@std@@@std@@QEAA@AEBV?$_Uhash_compare@HU?$hash@H@std@@U?$equal_to@H@2@@1@AEBV?$allocator@U?$pair@$$CBHG@std@@@1@@Z 000000014004c28c f i Font.obj
 0001:0004b300       ??0CFont@@QEAA@PEAUHFONT__@@@Z 000000014004c300 f   Font.obj
 0001:0004b408       ??0CFont@@QEAA@PEAVCustomFont@@@Z 000000014004c408 f   Font.obj
 0001:0004b514       ??1?$_Hash@V?$_Umap_traits@HGV?$_Uhash_compare@HU?$hash@H@std@@U?$equal_to@H@2@@std@@V?$allocator@U?$pair@$$CBHG@std@@@2@$0A@@std@@@std@@QEAA@XZ 000000014004c514 f i Font.obj
 0001:0004b5c0       ??1?$list@U?$pair@$$CBHG@std@@V?$allocator@U?$pair@$$CBHG@std@@@2@@std@@QEAA@XZ 000000014004c5c0 f i Font.obj
 0001:0004b61c       ??1?$unordered_map@HGU?$hash@H@std@@U?$equal_to@H@2@V?$allocator@U?$pair@$$CBHG@std@@@2@@std@@QEAA@XZ 000000014004c61c f i Font.obj
 0001:0004b624       ??1?$vector@V?$_List_unchecked_iterator@V?$_List_val@U?$_List_simple_types@U?$pair@$$CBHG@std@@@std@@@std@@@std@@V?$allocator@V?$_List_unchecked_iterator@V?$_List_val@U?$_List_simple_types@U?$pair@$$CBHG@std@@@std@@@std@@@std@@@2@@std@@QEAA@XZ 000000014004c624 f i Font.obj
 0001:0004b680       ??1CFont@@MEAA@XZ          000000014004c680 f   Font.obj
 0001:0004b6f4       ??_ECFont@@MEAAPEAXI@Z     000000014004c6f4 f i Font.obj
 0001:0004b6f4       ??_GCFont@@MEAAPEAXI@Z     000000014004c6f4 f i Font.obj
 0001:0004b728       ?Delete@CFont@@IEAA_NXZ    000000014004c728 f   Font.obj
 0001:0004b774       ?Equal@CFont@@QEBA_NPEBV1@@Z 000000014004c774 f   Font.obj
 0001:0004b7a0       ?IsSet@CFont@@QEBA_NXZ     000000014004c7a0 f   Font.obj
 0001:0004b7c4       ?ResetFontWidth@CFont@@QEAAXXZ 000000014004c7c4 f   Font.obj
 0001:0004b7d0       ?_Buy@?$vector@V?$_List_unchecked_iterator@V?$_List_val@U?$_List_simple_types@U?$pair@$$CBHG@std@@@std@@@std@@@std@@V?$allocator@V?$_List_unchecked_iterator@V?$_List_val@U?$_List_simple_types@U?$pair@$$CBHG@std@@@std@@@std@@@std@@@2@@std@@AEAA_N_K@Z 000000014004c7d0 f i Font.obj
 0001:0004b880       ?_Buynode0@?$_List_alloc@U?$_List_base_types@U?$pair@$$CBHG@std@@V?$allocator@U?$pair@$$CBHG@std@@@2@@std@@@std@@QEAAPEAU?$_List_node@U?$pair@$$CBHG@std@@PEAX@2@PEAU32@0@Z 000000014004c880 f i Font.obj
 0001:0004b8cc       ?_Change_array@?$vector@V?$_List_unchecked_iterator@V?$_List_val@U?$_List_simple_types@U?$pair@$$CBHG@std@@@std@@@std@@@std@@V?$allocator@V?$_List_unchecked_iterator@V?$_List_val@U?$_List_simple_types@U?$pair@$$CBHG@std@@@std@@@std@@@std@@@2@@std@@AEAAXQEAV?$_List_unchecked_iterator@V?$_List_val@U?$_List_simple_types@U?$pair@$$CBHG@std@@@std@@@std@@@2@_K1@Z 000000014004c8cc f i Font.obj
 0001:0004b954       ?_Init@?$_Hash@V?$_Umap_traits@HGV?$_Uhash_compare@HU?$hash@H@std@@U?$equal_to@H@2@@std@@V?$allocator@U?$pair@$$CBHG@std@@@2@$0A@@std@@@std@@IEAAX_K@Z 000000014004c954 f i Font.obj
 0001:0004b9e4       ?_Reallocate_exactly@?$vector@V?$_List_unchecked_iterator@V?$_List_val@U?$_List_simple_types@U?$pair@$$CBHG@std@@@std@@@std@@@std@@V?$allocator@V?$_List_unchecked_iterator@V?$_List_val@U?$_List_simple_types@U?$pair@$$CBHG@std@@@std@@@std@@@std@@@2@@std@@AEAAX_K@Z 000000014004c9e4 f i Font.obj
 0001:0004bad4       ?_Xlength@?$vector@V?$_List_unchecked_iterator@V?$_List_val@U?$_List_simple_types@U?$pair@$$CBHG@std@@@std@@@std@@@std@@V?$allocator@V?$_List_unchecked_iterator@V?$_List_val@U?$_List_simple_types@U?$pair@$$CBHG@std@@@std@@@std@@@std@@@2@@std@@CAXXZ 000000014004cad4 f i Font.obj
 0001:0004bae8       ?assign@?$vector@V?$_List_unchecked_iterator@V?$_List_val@U?$_List_simple_types@U?$pair@$$CBHG@std@@@std@@@std@@@std@@V?$allocator@V?$_List_unchecked_iterator@V?$_List_val@U?$_List_simple_types@U?$pair@$$CBHG@std@@@std@@@std@@@std@@@2@@std@@QEAAX_KAEBV?$_List_unchecked_iterator@V?$_List_val@U?$_List_simple_types@U?$pair@$$CBHG@std@@@std@@@std@@@2@@Z 000000014004cae8 f i Font.obj
 0001:0004bc10       ?clear@?$_Hash@V?$_Umap_traits@HGV?$_Uhash_compare@HU?$hash@H@std@@U?$equal_to@H@2@@std@@V?$allocator@U?$pair@$$CBHG@std@@@2@$0A@@std@@@std@@QEAAXXZ 000000014004cc10 f i Font.obj
 0001:0004bc74       ?deallocate@?$allocator@U?$_List_node@U?$pair@$$CBHG@std@@PEAX@std@@@std@@QEAAXQEAU?$_List_node@U?$pair@$$CBHG@std@@PEAX@2@_K@Z 000000014004cc74 f i Font.obj
 0001:0004bcb8       ?deallocate@?$allocator@V?$_List_unchecked_iterator@V?$_List_val@U?$_List_simple_types@U?$pair@$$CBHG@std@@@std@@@std@@@std@@@std@@QEAAXQEAV?$_List_unchecked_iterator@V?$_List_val@U?$_List_simple_types@U?$pair@$$CBHG@std@@@std@@@std@@@2@_K@Z 000000014004ccb8 f i Font.obj
 0001:0004bcfc       ??0CFontMgr@@QEAA@XZ       000000014004ccfc f   FontMgr.obj
 0001:0004bea4       ??0CLogFont@@QEAA@PEB_WJJJEE@Z 000000014004cea4 f i FontMgr.obj
 0001:0004bf84       ??1CFontMgr@@QEAA@XZ       000000014004cf84 f   FontMgr.obj
 0001:0004c0f0       ??_FCFontPtr@@QEAAXXZ      000000014004d0f0 f i FontMgr.obj
 0001:0004c0f8       ?AutoRecreateFont@CFontMgr@@QEAA_NHH@Z 000000014004d0f8 f   FontMgr.obj
 0001:0004c224       ?BorderFontCharSet@CFontMgr@@QEAAEXZ 000000014004d224 f   FontMgr.obj
 0001:0004c280       ?BorderFontFaceName@CFontMgr@@QEAAPEB_WXZ 000000014004d280 f   FontMgr.obj
 0001:0004c2c0       ?BorderFontHeight@CFontMgr@@QEAAJXZ 000000014004d2c0 f   FontMgr.obj
 0001:0004c31c       ?BorderFontWidth@CFontMgr@@QEAAJXZ 000000014004d31c f   FontMgr.obj
 0001:0004c378       ?Create@CFontMgr@@QEAA_NUCLogFont@@AEAVCFontPtr@@PEAPEAVCustomFontFamily@@@Z 000000014004d378 f   FontMgr.obj
 0001:0004cab4       ?CreateFontGroup@CFontMgr@@AEAA_NUCLogFont@@@Z 000000014004dab4 f   FontMgr.obj
 0001:0004cf2c       ?CreateOtherFont@CFontMgr@@QEAA_NPEB_WAEAVCFontPtr@@@Z 000000014004df2c f   FontMgr.obj
 0001:0004d000       ?EvalFontHeight@CFontMgr@@QEAAJPEB_WJE@Z 000000014004e000 f   FontMgr.obj
 0001:0004d244       ?EvalLogfontSizes@CFontMgr@@QEAAXAEAUtagLOGFONTW@@JJ@Z 000000014004e244 f   FontMgr.obj
 0001:0004d2c0       ?FindCustomFont@CFontMgr@@AEAA_NPEB_WHHHHPEAPEAVCustomFontFamily@@PEAPEAVCustomFont@@@Z 000000014004e2c0 f   FontMgr.obj
 0001:0004d39c       ?FontBold@CFontMgr@@QEAAHXZ 000000014004e39c f   FontMgr.obj
 0001:0004d3ac       ?FontCellWidth@CFontMgr@@QEAAJXZ 000000014004e3ac f   FontMgr.obj
 0001:0004d3b4       ?FontCharSet@CFontMgr@@QEAAEXZ 000000014004e3b4 f   FontMgr.obj
 0001:0004d3bc       ?FontFaceName@CFontMgr@@QEAAPEB_WXZ 000000014004e3bc f   FontMgr.obj
 0001:0004d3c4       ?FontHeight@CFontMgr@@QEAAJXZ 000000014004e3c4 f   FontMgr.obj
 0001:0004d470       ?FontHeightHtml@CFontMgr@@QEAAJXZ 000000014004e470 f   FontMgr.obj
 0001:0004d518       ?FontItalic@CFontMgr@@QEAAHXZ 000000014004e518 f   FontMgr.obj
 0001:0004d524       ?FontMonospaced@CFontMgr@@QEAA_NXZ 000000014004e524 f   FontMgr.obj
 0001:0004d560       ?FontPtrRegister@CFontMgr@@IEAAXPEAVCFont@@@Z 000000014004e560 f   FontMgr.obj
 0001:0004d578       ?FontPtrUnregister@CFontMgr@@IEAAXPEAVCFont@@@Z 000000014004e578 f   FontMgr.obj
 0001:0004d5f0       ?FontQuality@CFontMgr@@QEAAEXZ 000000014004e5f0 f   FontMgr.obj
 0001:0004d5f8       ?FontWidth@CFontMgr@@QEAAJXZ 000000014004e5f8 f   FontMgr.obj
 0001:0004d68c       ?GetFontNameFromFile@CFontMgr@@QEAAHPEB_WAEAY0CA@_W1@Z 000000014004e68c f   FontMgr.obj
 0001:0004d758       ?GetFontNameFromFile_BDF@CFontMgr@@QEAAHPEB_WAEAY0CA@_W1@Z 000000014004e758 f   FontMgr.obj
 0001:0004d7a8       ?GetFontNameFromFile_OTF@CFontMgr@@QEAAHPEB_WAEAY0CA@_W1@Z 000000014004e7a8 f   FontMgr.obj
 0001:0004dd54       ?GetFontNameFromFile_TTF@CFontMgr@@QEAAHPEB_WAEAY0CA@_W1@Z 000000014004ed54 f   FontMgr.obj
 0001:0004e448       ?GetMainLogFont@CFontMgr@@QEAAXAEAUtagLOGFONTW@@@Z 000000014004f448 f   FontMgr.obj
 0001:0004e498       ?GetZoom@CFontMgr@@QEAAJ_N@Z 000000014004f498 f   FontMgr.obj
 0001:0004e4c0       ?InitFont@CFontMgr@@QEAAXPEB_WHH@Z 000000014004f4c0 f   FontMgr.obj
 0001:0004e798       ?IsAlmostMonospace@CFontMgr@@SA_NPEB_WPEAUtagTEXTMETRICW@@PEAU_OUTLINETEXTMETRICW@@@Z 000000014004f798 f   FontMgr.obj
 0001:0004e8cc       ?LoadOutline@CFontMgr@@SAPEAU_OUTLINETEXTMETRICW@@PEAUHDC__@@PEAUHFONT__@@@Z 000000014004f8cc f   FontMgr.obj
 0001:0004e9cc       ?MacroFontSetName@CFontMgr@@QEAAXPEB_WGG@Z 000000014004f9cc f   FontMgr.obj
 0001:0004ebf0       ?MacroFontSetSize@CFontMgr@@QEAA_NHH@Z 000000014004fbf0 f   FontMgr.obj
 0001:0004f0c8       ?MacroFontSetSizeInt@CFontMgr@@AEAA_NAEAUtagLOGFONTW@@HH@Z 00000001400500c8 f   FontMgr.obj
 0001:0004f2e0       ?QueryFont@CFontMgr@@QEAA_NW4CEFontStyles@@PEAVCVirtualConsole@@AEAVCFontPtr@@@Z 00000001400502e0 f   FontMgr.obj
 0001:0004f394       ?RecreateAlternativeFont@CFontMgr@@AEAAXXZ 0000000140050394 f   FontMgr.obj
 0001:0004f79c       ?RecreateFont@CFontMgr@@AEAAX_N0@Z 000000014005079c f   FontMgr.obj
 0001:0004fbfc       ?RecreateFontByDpi@CFontMgr@@QEAA_NHHPEAUtagRECT@@@Z 0000000140050bfc f   FontMgr.obj
 0001:0004fc9c       ?RegisterFont@CFontMgr@@QEAAHPEB_WH@Z 0000000140050c9c f   FontMgr.obj
 0001:00050454       ?RegisterFonts@CFontMgr@@QEAAXXZ 0000000140051454 f   FontMgr.obj
 0001:00050574       ?RegisterFontsDir@CFontMgr@@QEAAXPEB_W@Z 0000000140051574 f   FontMgr.obj
 0001:000507d4       ?ResetFontWidth@CFontMgr@@AEAAXXZ 00000001400517d4 f   FontMgr.obj
 0001:00050844       ?SaveFontSizes@CFontMgr@@AEAAX_N0@Z 0000000140051844 f   FontMgr.obj
 0001:0005095c       ?SettingsLoaded@CFontMgr@@QEAAXK@Z 000000014005195c f   FontMgr.obj
 0001:00050ac8       ?SettingsPreSave@CFontMgr@@QEAAXXZ 0000000140051ac8 f   FontMgr.obj
 0001:00050b50       ?UnregisterFonts@CFontMgr@@QEAAXXZ 0000000140051b50 f   FontMgr.obj
 0001:00050c58       ?push_back@?$MArray@UFontHeightInfo@@@@QEAA_JAEBUFontHeightInfo@@@Z 0000000140051c58 f i FontMgr.obj
 0001:00050ccc       ?push_back@?$MArray@URegFont@@@@QEAA_JAEBURegFont@@@Z 0000000140051ccc f i FontMgr.obj
 0001:00050d44       ??0CFontPtr@@QEAA@PEAVCFont@@@Z 0000000140051d44 f   FontPtr.obj
 0001:00050d60       ??1CFontPtr@@QEAA@XZ       0000000140051d60 f   FontPtr.obj
 0001:00050d78       ??4CFontPtr@@QEAAAEAV0@PEAVCFont@@@Z 0000000140051d78 f   FontPtr.obj
 0001:00050d90       ??CCFontPtr@@QEBAPEAVCFont@@XZ 0000000140051d90 f   FontPtr.obj
 0001:00050d90       ?Ptr@CFontPtr@@QEBAPEAVCFont@@XZ 0000000140051d90 f   FontPtr.obj
 0001:00050d90       ??BCEStrA@@QEBAPEBDXZ      0000000140051d90 f   common-kernel64:CEStr.obj
 0001:00050d90       ??BCEStr@@QEBAPEB_WXZ      0000000140051d90 f   common-kernel64:CEStr.obj
 0001:00050d90       ??BCFontPtr@@QEBAPEAVCFont@@XZ 0000000140051d90 f   FontPtr.obj
 0001:00050d90       ??BMBSTR@@QEBAPEA_WXZ      0000000140051d90 f   common-user64:MBSTR.obj
 0001:00050d94       ?Attach@CFontPtr@@QEAA_NPEAVCFont@@@Z 0000000140051d94 f   FontPtr.obj
 0001:00050e04       ?Equal@CFontPtr@@QEBA_NPEBVCFont@@@Z 0000000140051e04 f   FontPtr.obj
 0001:00050e1c       ?IsSet@CFontPtr@@QEBA_NXZ  0000000140051e1c f   FontPtr.obj
 0001:00050e40       ?Release@CFontPtr@@QEAAHXZ 0000000140051e40 f   FontPtr.obj
 0001:00050e8c       ??0CFrameHolder@@QEAA@XZ   0000000140051e8c f   FrameHolder.obj
 0001:00050ed8       ??1CFrameHolder@@UEAA@XZ   0000000140051ed8 f   FrameHolder.obj
 0001:00050ee8       ??_ECFrameHolder@@UEAAPEAXI@Z 0000000140051ee8 f i FrameHolder.obj
 0001:00050ee8       ??_GCFrameHolder@@UEAAPEAXI@Z 0000000140051ee8 f i FrameHolder.obj
 0001:00050f18       ?DoNcHitTest@CFrameHolder@@IEAA_JAEBUtagPOINT@@HH_J@Z 0000000140051f18 f   FrameHolder.obj
 0001:0005120c       ?GetWinCaptionHeight@CFrameHolder@@QEAAIXZ 000000014005220c f   FrameHolder.obj
 0001:0005121c       ?GetWinFrameWidth@CFrameHolder@@QEAAIXZ 000000014005221c f   FrameHolder.obj
 0001:0005123c       ?InitFrameHolder@CFrameHolder@@QEAAXXZ 000000014005223c f   FrameHolder.obj
 0001:00051248       ?NC_Redraw@CFrameHolder@@IEAAXXZ 0000000140052248 f   FrameHolder.obj
 0001:000512a0       ?OnDwmCompositionChanged@CFrameHolder@@IEAA_NPEAUHWND__@@I_K_JAEA_J@Z 00000001400522a0 f   FrameHolder.obj
 0001:00051334       ?OnKeyboardMessage@CFrameHolder@@IEAA_NPEAUHWND__@@I_K_JAEA_J@Z 0000000140052334 f   FrameHolder.obj
 0001:000513ac       ?OnMouseMessage@CFrameHolder@@IEAA_NPEAUHWND__@@I_K_JAEA_J@Z 00000001400523ac f   FrameHolder.obj
 0001:000514c4       ?OnNcActivate@CFrameHolder@@IEAA_NPEAUHWND__@@I_K_JAEA_J@Z 00000001400524c4 f   FrameHolder.obj
 0001:000515c8       ?OnNcCalcSize@CFrameHolder@@IEAA_NPEAUHWND__@@I_K_JAEA_J@Z 00000001400525c8 f   FrameHolder.obj
 0001:000518bc       ?OnNcHitTest@CFrameHolder@@IEAA_NPEAUHWND__@@I_K_JAEA_J@Z 00000001400528bc f   FrameHolder.obj
 0001:000519b4       ?OnNcLButtonDblClk@CFrameHolder@@IEAA_NPEAUHWND__@@I_K_JAEA_J@Z 00000001400529b4 f   FrameHolder.obj
 0001:00051a58       ?OnNcMouseMessage@CFrameHolder@@IEAA_NPEAUHWND__@@I_K_JAEA_J@Z 0000000140052a58 f   FrameHolder.obj
 0001:00051be4       ?OnNcPaint@CFrameHolder@@IEAA_NPEAUHWND__@@I_K_JAEA_J@Z 0000000140052be4 f   FrameHolder.obj
 0001:00051cb0       ?OnNcUahDrawCaption@CFrameHolder@@IEAA_NPEAUHWND__@@I_K_JAEA_J@Z 0000000140052cb0 f   FrameHolder.obj
 0001:00051d74       ?OnNcUahDrawFrame@CFrameHolder@@IEAA_NPEAUHWND__@@I_K_JAEA_J@Z 0000000140052d74 f   FrameHolder.obj
 0001:00051e38       ?OnPaint@CFrameHolder@@IEAA_NPEAUHWND__@@PEAUHDC__@@IAEA_J@Z 0000000140052e38 f   FrameHolder.obj
 0001:00052038       ?OnSysCommand@CFrameHolder@@IEAA_NPEAUHWND__@@I_K_JAEA_J@Z 0000000140053038 f   FrameHolder.obj
 0001:000520e8       ?ProcessNcMessage@CFrameHolder@@QEAA_NPEAUHWND__@@I_K_JAEA_J@Z 00000001400530e8 f   FrameHolder.obj
 0001:0005227c       ?RecalculateFrameSizes@CFrameHolder@@QEAAXXZ 000000014005327c f   FrameHolder.obj
 0001:00052308       ?RedrawFrame@CFrameHolder@@QEAAXXZ 0000000140053308 f   FrameHolder.obj
 0001:00052318       ?SetAllowPreserveClient@CFrameHolder@@QEAA_N_N@Z 0000000140053318 f   FrameHolder.obj
 0001:00052320       ?SetDontPreserveClient@CFrameHolder@@QEAA_N_N@Z 0000000140053320 f   FrameHolder.obj
 0001:00052328       ?SetFrameActiveState@CFrameHolder@@QEAAX_N@Z 0000000140053328 f   FrameHolder.obj
 0001:00052344       ?isInNcPaint@CFrameHolder@@QEAA_NXZ 0000000140053344 f   FrameHolder.obj
 0001:0005234c       ??0HandleMonitor@@QEAA@XZ  000000014005334c f   GdiObjects.obj
 0001:00052358       ?DoCheck@HandleMonitor@@QEAAXXZ 0000000140053358 f   GdiObjects.obj
 0001:00052444       ??$swprintf_c@$0DM@@@YAHAEAY0DM@_WPEB_WZZ 0000000140053444 f i GestureEngine.obj
 0001:00052470       ??0CGestures@@QEAA@XZ      0000000140053470 f   GestureEngine.obj
 0001:00052538       ??1CGestures@@UEAA@XZ      0000000140053538 f   GestureEngine.obj
 0001:00052544       ??_GCGestures@@UEAAPEAXI@Z 0000000140053544 f i GestureEngine.obj
 0001:00052544       ??_ECGestures@@UEAAPEAXI@Z 0000000140053544 f i GestureEngine.obj
 0001:00052570       ?DumpGesture@CGestures@@AEAAXPEB_WAEBUtagGESTUREINFO@@@Z 0000000140053570 f   GestureEngine.obj
 0001:0005274c       ?IsGesturesEnabled@CGestures@@QEAA_NXZ 000000014005374c f   GestureEngine.obj
 0001:0005279c       ?ProcessGestureMessage@CGestures@@UEAA_NPEAUHWND__@@I_K_JAEA_J@Z 000000014005379c f   GestureEngine.obj
 0001:00052c8c       ?ProcessMove@CGestures@@UEAA_NPEAUHWND__@@JJ@Z 0000000140053c8c f   GestureEngine.obj
 0001:00052dc0       ?ProcessTwoFingerTap@CGestures@@UEAAXPEAUHWND__@@JJK@Z 0000000140053dc0 f   GestureEngine.obj
 0001:00052dc0       ?ProcessPressAndTap@CGestures@@UEAAXPEAUHWND__@@JJFF@Z 0000000140053dc0 f   GestureEngine.obj
 0001:00052dc8       ?ProcessRotate@CGestures@@UEAA_NPEAUHWND__@@JJJ_N@Z 0000000140053dc8 f   GestureEngine.obj
 0001:00052e54       ?ProcessZoom@CGestures@@UEAAXPEAUHWND__@@NJJ@Z 0000000140053e54 f   GestureEngine.obj
 0001:00052edc       ?SendRClick@CGestures@@AEAAXPEAUHWND__@@JJ@Z 0000000140053edc f   GestureEngine.obj
 0001:00052fe0       ??0CGuiServer@@QEAA@XZ     0000000140053fe0 f   GuiServer.obj
 0001:00053074       ??1CGuiServer@@QEAA@XZ     0000000140054074 f   GuiServer.obj
 0001:000531b8       ?DumpError@?$PipeServer@UCESERVER_REQ@@@@IEAAXPEAUPipeInst@1@PEB_WH@Z 00000001400541b8 f i GuiServer.obj
 0001:000532cc       ?GuiServerCommand@CGuiServer@@KAHPEAXPEAUCESERVER_REQ@@AEAPEAU2@AEAK3_J@Z 00000001400542cc f   GuiServer.obj
 0001:00053e30       ?ServerCommandFree@CRealServer@@KAXPEAUCESERVER_REQ@@_J@Z 0000000140054e30 f   RealServer.obj
 0001:00053e30       ?GuiServerFree@CGuiServer@@KAXPEAUCESERVER_REQ@@_J@Z 0000000140054e30 f   GuiServer.obj
 0001:00053ec0       ?PipeServerRead@?$PipeServer@UCESERVER_REQ@@@@IEAAHPEAUPipeInst@1@@Z 0000000140054ec0 f i GuiServer.obj
 0001:00054150       ?PipeServerThread@?$PipeServer@UCESERVER_REQ@@@@IEAAKPEAUPipeInst@1@@Z 0000000140055150 f i GuiServer.obj
 0001:00054420       ?PipeServerWrite@?$PipeServer@UCESERVER_REQ@@@@IEAAHPEAUPipeInst@1@PEBXKPEAKH@Z 0000000140055420 f i GuiServer.obj
 0001:0005454c       ?Start@CGuiServer@@QEAA_NXZ 000000014005554c f   GuiServer.obj
 0001:00054680       ?StartPipeInstance@?$PipeServer@UCESERVER_REQ@@@@IEAA_NPEAUPipeInst@1@@Z 0000000140055680 f i GuiServer.obj
 0001:0005480c       ?StartPipeServer@?$PipeServer@UCESERVER_REQ@@@@QEAA_N_NPEB_W_JPEAU_SECURITY_ATTRIBUTES@@P6AHPEAXPEAUCESERVER_REQ@@AEAPEAU3@AEAK72@ZP6AX52@ZP6AH42@ZP6AH42@ZP6AH42@Z@Z 000000014005580c f i GuiServer.obj
 0001:00054998       ?Stop@CGuiServer@@QEAAX_N@Z 0000000140055998 f   GuiServer.obj
 0001:00054a74       ?StopPipeServer@?$PipeServer@UCESERVER_REQ@@@@QEAAX_NAEA_N@Z 0000000140055a74 f i GuiServer.obj
 0001:00054dc4       ?TerminatePipeThread@?$PipeServer@UCESERVER_REQ@@@@KAXAEAPEAXAEBUPipeInst@1@AEA_N@Z 0000000140055dc4 f i GuiServer.obj
 0001:00054e30       ?WaitForClient@?$PipeServer@UCESERVER_REQ@@@@IEAA_NPEAUPipeInst@1@AEAH1@Z 0000000140055e30 f i GuiServer.obj
 0001:00055148       ?WaitOverlapped@?$PipeServer@UCESERVER_REQ@@@@IEAAHPEAUPipeInst@1@PEAK@Z 0000000140056148 f i GuiServer.obj
 0001:0005531c       ?WriteDummyAnswer@?$PipeServer@UCESERVER_REQ@@@@IEAAHPEAUPipeInst@1@@Z 000000014005631c f i GuiServer.obj
 0001:0005539c       ?_PipeServerThread@?$PipeServer@UCESERVER_REQ@@@@KAKPEAX@Z 000000014005639c f i GuiServer.obj
 0001:000553f8       ?HooksUnlockerProc@@YA_N_N@Z 00000001400563f8 f   HooksUnlocker.obj
 0001:00055440       ?Compare@ConEmuChord@@CA_NKK@Z 0000000140056440 f   HotkeyChord.obj
 0001:0005550c       ?GetFlagsFromMod@CEVkMatch@@SAKK@Z 000000014005650c f   HotkeyChord.obj
 0001:00055554       ?GetMatchByVk@CEVkMatch@@SA_NEAEAU1@@Z 0000000140056554 f   HotkeyChord.obj
 0001:00055670       ?GetModifiers@ConEmuChord@@QEBAIAEAY02E@Z 0000000140056670 f   HotkeyChord.obj
 0001:000556e0       ?IsEmpty@ConEmuChord@@QEBA_NXZ 00000001400566e0 f   HotkeyChord.obj
 0001:000556e8       ?IsEqual@ConEmuChord@@QEBA_NAEBU1@@Z 00000001400566e8 f   HotkeyChord.obj
 0001:000556f4       ?IsEqual@ConEmuChord@@QEBA_NEK@Z 00000001400566f4 f   HotkeyChord.obj
 0001:00055734       ?Set@ConEmuChord@@QEAAXEK@Z 0000000140056734 f   HotkeyChord.obj
 0001:0005573c       ??0CHotKeyDialog@@QEAA@PEAUHWND__@@K@Z 000000014005673c f   HotkeyDlg.obj
 0001:000557a8       ??1CHotKeyDialog@@QEAA@XZ  00000001400567a8 f   HotkeyDlg.obj
 0001:000557b4       ?EditHotKey@CHotKeyDialog@@SA_NPEAUHWND__@@AEAK@Z 00000001400567b4 f   HotkeyDlg.obj
 0001:00055854       ?FillModifierBoxes@CHotKeyDialog@@SAXAEBUConEmuHotKey@@PEAUHWND__@@@Z 0000000140056854 f   HotkeyDlg.obj
 0001:000558bc       ?SetHotkeyField@CHotKeyDialog@@SAXPEAUHWND__@@E@Z 00000001400568bc f   HotkeyDlg.obj
 0001:000558f0       ?dlgGetHotkey@CHotKeyDialog@@SAKPEAUHWND__@@II@Z 00000001400568f0 f   HotkeyDlg.obj
 0001:000559e0       ?hkDlgProc@CHotKeyDialog@@SA_JPEAUHWND__@@I_K_J@Z 00000001400569e0 f   HotkeyDlg.obj
 0001:00055d8c       ?Add@ConEmuHotKeyList@@IEAAPEAUConEmuHotKey@@HW4ConEmuHotKeyType@@P6A_NXZPEB_WP6A_NAEBUConEmuChord@@_NPEBU2@PEAVCRealConsole@@@Z42@Z 0000000140056d8c f   HotkeyList.obj
 0001:00055e4c       ?AllocateHotkeys@ConEmuHotKeyList@@QEAAHXZ 0000000140056e4c f   HotkeyList.obj
 0001:00058f48       ?FindHotKey@ConEmuHotKeyList@@QEAAPEBUConEmuHotKey@@AEBUConEmuChord@@PEAVCRealConsole@@@Z 0000000140059f48 f   HotkeyList.obj
 0001:0005901c       ?GetHotKeyInfo@ConEmuHotKeyList@@QEAAPEBUConEmuHotKey@@AEBUConEmuChord@@_NPEAVCRealConsole@@@Z 000000014005a01c f   HotkeyList.obj
 0001:00059048       ?GetHotKeyPtr@ConEmuHotKeyList@@QEAAPEBUConEmuHotKey@@H@Z 000000014005a048 f   HotkeyList.obj
 0001:00059090       ?ReleaseHotkeys@ConEmuHotKeyList@@QEAAXXZ 000000014005a090 f   HotkeyList.obj
 0001:00059114       ?UpdateArrowModifier@ConEmuHotKeyList@@QEAAXXZ 000000014005a114 f   HotkeyList.obj
 0001:00059170       ?UpdateNumberModifier@ConEmuHotKeyList@@QEAAXXZ 000000014005a170 f   HotkeyList.obj
 0001:000591cc       ?push_back@?$MArray@UConEmuHotKey@@@@QEAA_JAEBUConEmuHotKey@@@Z 000000014005a1cc f i HotkeyList.obj
 0001:00059244       ?CanChangeVK@ConEmuHotKey@@QEBA_NXZ 000000014005a244 f   Hotkeys.obj
 0001:0005925c       ?CreateNotUniqueWarning@ConEmuHotKey@@SAPEB_WPEB_W00AEAUCEStr@@@Z 000000014005a25c f   Hotkeys.obj
 0001:00059378       ?Equal@ConEmuHotKey@@QEAA_NEEEE@Z 000000014005a378 f   Hotkeys.obj
 0001:000593bc       ?GetDescription@ConEmuHotKey@@QEBAPEB_WPEA_WH_N@Z 000000014005a3bc f   Hotkeys.obj
 0001:000596d0       ?GetHotKeyMod@ConEmuHotKey@@SAKK@Z 000000014005a6d0 f   Hotkeys.obj
 0001:00059754       ?GetHotkey@ConEmuHotKey@@SAKK@Z 000000014005a754 f   Hotkeys.obj
 0001:00059758       ?GetHotkeyName@ConEmuHotKey@@QEBAPEB_WAEAY0IA@_W_N@Z 000000014005a758 f   Hotkeys.obj
 0001:000598f4       ?GetHotkeyName@ConEmuHotKey@@SAPEB_WKAEAY0IA@_W_N@Z 000000014005a8f4 f   Hotkeys.obj
 0001:00059980       ?GetModifier@ConEmuHotKey@@SAKKH@Z 000000014005a980 f   Hotkeys.obj
 0001:000599f8       ?GetTaskIndex@ConEmuHotKey@@QEBAHXZ 000000014005a9f8 f   Hotkeys.obj
 0001:00059a0c       ?GetVkByKeyName@ConEmuHotKey@@SAIPEB_WPEAHPEAK@Z 000000014005aa0c f   Hotkeys.obj
 0001:00059b30       ?GetVkKeyName@ConEmuHotKey@@SAXEAEAY0CA@_W_N@Z 000000014005ab30 f   Hotkeys.obj
 0001:00059e68       ?GetVkMod@ConEmuHotKey@@QEBAKXZ 000000014005ae68 f   Hotkeys.obj
 0001:00059f34       ?HasModifier@ConEmuHotKey@@SA_NKE@Z 000000014005af34 f   Hotkeys.obj
 0001:00059f88       ?InSelection@ConEmuHotKey@@SA_NXZ 000000014005af88 f   Hotkeys.obj
 0001:00059fe8       ?MakeHotKey@ConEmuHotKey@@SAKEEEE@Z 000000014005afe8 f   Hotkeys.obj
 0001:0005a040       ?SetHotKey@ConEmuHotKey@@QEAAXEEEE@Z 000000014005b040 f   Hotkeys.obj
 0001:0005a074       ?SetModifier@ConEmuHotKey@@SAKKE_N@Z 000000014005b074 f   Hotkeys.obj
 0001:0005a1f4       ?SetTaskIndex@ConEmuHotKey@@QEAAXH@Z 000000014005b1f4 f   Hotkeys.obj
 0001:0005a204       ?SetVkMod@ConEmuHotKey@@QEAAXK@Z 000000014005b204 f   Hotkeys.obj
 0001:0005a278       ?TestHostkeyModifiers@ConEmuHotKey@@SAXAEAK@Z 000000014005b278 f   Hotkeys.obj
 0001:0005a3f8       ?UseCTSShiftArrow@ConEmuHotKey@@SA_NXZ 000000014005b3f8 f   Hotkeys.obj
 0001:0005a49c       ?UseCtrlBS@ConEmuHotKey@@SA_NXZ 000000014005b49c f   Hotkeys.obj
 0001:0005a4c4       ?UseCtrlTab@ConEmuHotKey@@SA_NXZ 000000014005b4c4 f   Hotkeys.obj
 0001:0005a4d4       ?UseDndLKey@ConEmuHotKey@@SA_NXZ 000000014005b4d4 f   Hotkeys.obj
 0001:0005a4e4       ?UseDndRKey@ConEmuHotKey@@SA_NXZ 000000014005b4e4 f   Hotkeys.obj
 0001:0005a4f8       ?UsePromptFind@ConEmuHotKey@@SA_NXZ 000000014005b4f8 f   Hotkeys.obj
 0001:0005a5d8       ?UseWinArrows@ConEmuHotKey@@SA_NXZ 000000014005b5d8 f   Hotkeys.obj
 0001:0005a5e8       ?UseWinNumber@ConEmuHotKey@@SA_NXZ 000000014005b5e8 f   Hotkeys.obj
 0001:0005a618       ?UseWndDragKey@ConEmuHotKey@@SA_NXZ 000000014005b618 f   Hotkeys.obj
 0001:0005a628       ??0CIconList@@QEAA@XZ      000000014005b628 f   IconList.obj
 0001:0005a6a0       ??1CIconList@@QEAA@XZ      000000014005b6a0 f   IconList.obj
 0001:0005a75c       ?CreateTabIcon@CIconList@@QEAAHPEB_W_N0@Z 000000014005b75c f   IconList.obj
 0001:0005a92c       ?CreateTabIconInt@CIconList@@IEAAHPEB_W_N0@Z 000000014005b92c f   IconList.obj
 0001:0005ae4c       ?GetIconInfoStr@CIconList@@SAPEB_WPEAUHICON__@@AEAY0FA@_W@Z 000000014005be4c f   IconList.obj
 0001:0005af04       ?GetTabIcon@CIconList@@QEAAH_N@Z 000000014005bf04 f   IconList.obj
 0001:0005af30       ?GetTabIconByIndex@CIconList@@QEAAPEAUHICON__@@H@Z 000000014005bf30 f   IconList.obj
 0001:0005af50       ?Initialize@CIconList@@QEAA_NXZ 000000014005bf50 f   IconList.obj
 0001:0005b1c8       ?IsInitialized@CIconList@@QEAA_NXZ 000000014005c1c8 f   IconList.obj
 0001:0005b1d4       ?ParseIconFileIndex@CIconList@@SAPEB_WAEAUCEStr@@AEAH@Z 000000014005c1d4 f   IconList.obj
 0001:0005b268       ??$SafeDelete@VCToolImg@@@@YAXAEAPEAVCToolImg@@@Z 000000014005c268 f i ImgButton.obj
 0001:0005b2b0       ??0CImgButtons@@QEAA@PEAUHWND__@@HH@Z 000000014005c2b0 f   ImgButton.obj
 0001:0005b2e8       ??1CImgButtons@@QEAA@XZ    000000014005c2e8 f   ImgButton.obj
 0001:0005b390       ?Add@CImgButtons@@IEAAXPEB_WP6APEAVCToolImg@@XZI0P6AXXZ@Z 000000014005c390 f   ImgButton.obj
 0001:0005b44c       ?AddDonateButtons@CImgButtons@@QEAAXXZ 000000014005c44c f   ImgButton.obj
 0001:0005b494       ?GetBtnInfo@CImgButtons@@IEAA_NIPEAPEAUBtnInfo@@@Z 000000014005c494 f   ImgButton.obj
 0001:0005b4d8       ?ImplementButtons@CImgButtons@@IEAAXXZ 000000014005c4d8 f   ImgButton.obj
 0001:0005b688       ?Process@CImgButtons@@QEAA_NPEAUHWND__@@I_K_JAEA_J@Z 000000014005c688 f   ImgButton.obj
 0001:0005b7a4       ?RegisterTip@CImgButtons@@IEAAXXZ 000000014005c7a4 f   ImgButton.obj
 0001:0005b914       ?push_back@?$MArray@UBtnInfo@@@@QEAA_JAEBUBtnInfo@@@Z 000000014005c914 f i ImgButton.obj
 0001:0005b98c       ??0CConEmuInside@@QEAA@XZ  000000014005c98c f   Inside.obj
 0001:0005ba24       ??1CConEmuInside@@UEAA@XZ  000000014005ca24 f   Inside.obj
 0001:0005ba8c       ??_ECConEmuInside@@UEAAPEAXI@Z 000000014005ca8c f i Inside.obj
 0001:0005ba8c       ??_GCConEmuInside@@UEAAPEAXI@Z 000000014005ca8c f i Inside.obj
 0001:0005bb20       ?CheckInsideFocus@CConEmuInside@@QEAAPEAUHWND__@@XZ 000000014005cb20 f   Inside.obj
 0001:0005bce0       ?EnumInsideFindParent@CConEmuInside@@CAHPEAUHWND__@@_J@Z 000000014005cce0 f   Inside.obj
 0001:0005bd4c       ?GetInsideRect@CConEmuInside@@QEAA_NPEAUtagRECT@@@Z 000000014005cd4c f   Inside.obj
 0001:0005be9c       ?GetParentRoot@CConEmuInside@@QEAAPEAUHWND__@@XZ 000000014005ce9c f   Inside.obj
 0001:0005bef4       ?InitInside@CConEmuInside@@SA_N_N0PEB_WKPEAUHWND__@@@Z 000000014005cef4 f   Inside.obj
 0001:0005bff0       ?InsideFindConEmu@CConEmuInside@@AEAAPEAUHWND__@@PEAU2@@Z 000000014005cff0 f   Inside.obj
 0001:0005c0a0       ?InsideFindParent@CConEmuInside@@QEAAPEAUHWND__@@XZ 000000014005d0a0 f   Inside.obj
 0001:0005c4c8       ?InsideFindShellView@CConEmuInside@@AEAA_NPEAUHWND__@@@Z 000000014005d4c8 f   Inside.obj
 0001:0005c7d0       ?InsideParentMonitor@CConEmuInside@@QEAAXXZ 000000014005d7d0 f   Inside.obj
 0001:0005c7f8       ?InsideUpdateDir@CConEmuInside@@AEAAXXZ 000000014005d7f8 f   Inside.obj
 0001:0005c9e8       ?InsideUpdatePlacement@CConEmuInside@@AEAAXXZ 000000014005d9e8 f   Inside.obj
 0001:0005cbe0       ?SendVkKeySequence@CConEmuInside@@AEAA_NPEAUHWND__@@PEAG@Z 000000014005dbe0 f   Inside.obj
 0001:0005cdc8       ?SetInsideParentWND@CConEmuInside@@QEAAXPEAUHWND__@@@Z 000000014005ddc8 f   Inside.obj
 0001:0005ceac       ?TurnExplorerTipPane@CConEmuInside@@AEAA_NAEAY0IA@_W@Z 000000014005deac f   Inside.obj
 0001:0005d098       ?inMinimizing@CConEmuInside@@QEAA_NPEAUtagWINDOWPOS@@@Z 000000014005e098 f   Inside.obj
 0001:0005d0ac       ?isParentIconic@CConEmuInside@@QEAA_NXZ 000000014005e0ac f   Inside.obj
 0001:0005d0e8       ?isParentProcess@CConEmuInside@@QEAA_NPEAUHWND__@@@Z 000000014005e0e8 f   Inside.obj
 0001:0005d134       ?Initialize@CLngPredefined@@SAXXZ 000000014005e134 f   LngData.obj
 0001:0005d178       ?compare@LngPredefined@@SAHPEBX0@Z 000000014005e178 f i LngData.obj
 0001:0005d180       ?getHint@CLngPredefined@@SAPEB_WI@Z 000000014005e180 f   LngData.obj
 0001:0005d1c8       ?getRsrc@CLngPredefined@@SAPEB_WI@Z 000000014005e1c8 f   LngData.obj
 0001:0005d210       ??$SafeDelete@VMJsonValue@@@@YAXAEAPEAVMJsonValue@@@Z 000000014005e210 f i LngRc.obj
 0001:0005d258       ??0CLngRc@@QEAA@XZ         000000014005e258 f   LngRc.obj
 0001:0005d348       ??1CLngRc@@QEAA@XZ         000000014005e348 f   LngRc.obj
 0001:0005d440       ?Clean@CLngRc@@IEAAXAEAV?$MArray@ULngRcItem@CLngRc@@@@@Z 000000014005e440 f   LngRc.obj
 0001:0005d4b4       ?Clear@CLngRc@@IEAAXAEAV?$MArray@ULngDefinition@CLngRc@@@@@Z 000000014005e4b4 f   LngRc.obj
 0001:0005d55c       ?GetResource@CLngRc@@IEAA_NAEAV?$MArray@ULngRcItem@CLngRc@@@@HAEAUCEStr@@PEB_W@Z 000000014005e55c f   LngRc.obj
 0001:0005d5ac       ?Initialize@CLngRc@@SAXXZ  000000014005e5ac f   LngRc.obj
 0001:0005d5f8       ?LoadLanguages@CLngRc@@IEAA_NPEAVMJsonValue@@@Z 000000014005e5f8 f   LngRc.obj
 0001:0005d80c       ?LoadResources@CLngRc@@IEAA_NPEB_W0@Z 000000014005e80c f   LngRc.obj
 0001:0005dc9c       ?LoadSection@CLngRc@@IEAA_NPEAVMJsonValue@@AEAV?$MArray@ULngRcItem@CLngRc@@@@H@Z 000000014005ec9c f   LngRc.obj
 0001:0005df2c       ?Reload@CLngRc@@QEAAX_N@Z  000000014005ef2c f   LngRc.obj
 0001:0005e224       ?SetResource@CLngRc@@IEAA_NAEAV?$MArray@ULngRcItem@CLngRc@@@@HPEAVMJsonValue@@@Z 000000014005f224 f   LngRc.obj
 0001:0005e34c       ?SetResource@CLngRc@@IEAA_NAEAV?$MArray@ULngRcItem@CLngRc@@@@HPEB_W_N@Z 000000014005f34c f   LngRc.obj
 0001:0005e448       ?getControl@CLngRc@@SAPEB_WJAEAUCEStr@@PEB_W@Z 000000014005f448 f   LngRc.obj
 0001:0005e494       ?getHint@CLngRc@@SA_NIPEA_W_K@Z 000000014005f494 f   LngRc.obj
 0001:0005e57c       ?getLanguage@CLngRc@@SAPEB_WXZ 000000014005f57c f   LngRc.obj
 0001:0005e5b4       ?getLanguages@CLngRc@@SA_NAEAV?$MArray@PEB_W@@@Z 000000014005f5b4 f   LngRc.obj
 0001:0005e668       ?getRsrc@CLngRc@@SAPEB_WIPEAUCEStr@@@Z 000000014005f668 f   LngRc.obj
 0001:0005e6f4       ?isLocalized@CLngRc@@SA_NXZ 000000014005f6f4 f   LngRc.obj
 0001:0005e72c       ?loadString@CLngRc@@KA_NIPEA_W_K@Z 000000014005f72c f   LngRc.obj
 0001:0005e764       ?set_at@?$MArray@ULngRcItem@CLngRc@@@@QEAAX_JAEAULngRcItem@CLngRc@@@Z 000000014005f764 f i LngRc.obj
 0001:0005e7dc       ??_EMStream@@UEAAPEAXI@Z   000000014005f7dc f i LoadImg.obj
 0001:0005e7dc       ??_GMStream@@UEAAPEAXI@Z   000000014005f7dc f i LoadImg.obj
 0001:0005e854       ?AddRef@MStream@@UEAAKXZ   000000014005f854 f i LoadImg.obj
 0001:0005e868       ?Clone@MStream@@UEAAJPEAPEAUIStream@@@Z 000000014005f868 f i LoadImg.obj
 0001:0005e868       ?LockRegion@MStream@@UEAAJT_ULARGE_INTEGER@@0K@Z 000000014005f868 f i LoadImg.obj
 0001:0005e868       ?CopyTo@MStream@@UEAAJPEAUIStream@@T_ULARGE_INTEGER@@PEAT3@2@Z 000000014005f868 f i LoadImg.obj
 0001:0005e868       ?UnlockRegion@MStream@@UEAAJT_ULARGE_INTEGER@@0K@Z 000000014005f868 f i LoadImg.obj
 0001:0005e868       ?Revert@MStream@@UEAAJXZ   000000014005f868 f i LoadImg.obj
 0001:0005e870       ?Commit@MStream@@UEAAJK@Z  000000014005f870 f i LoadImg.obj
 0001:0005e87c       ?CreateSolidImage@@YAPEAUtagBITMAPFILEHEADER@@KII@Z 000000014005f87c f   LoadImg.obj
 0001:0005e9bc       ?GetCodecClsid@@YAHPEB_WPEAU_GUID@@@Z 000000014005f9bc f   LoadImg.obj
 0001:0005ecbc       ?LoadImageEx@@YAPEAUtagBITMAPFILEHEADER@@PEB_WAEAU_BY_HANDLE_FILE_INFORMATION@@@Z 000000014005fcbc f   LoadImg.obj
 0001:0005ee54       ?LoadImageFinalize@@YAXXZ  000000014005fe54 f   LoadImg.obj
 0001:0005eea4       ?LoadImageGdip@@YAPEAUtagBITMAPFILEHEADER@@PEB_W@Z 000000014005fea4 f   LoadImg.obj
 0001:0005f150       ?QueryInterface@MStream@@UEAAJAEBU_GUID@@PEAPEAX@Z 0000000140060150 f i LoadImg.obj
 0001:0005f1b8       ?Read@MStream@@UEAAJPEAXKPEAK@Z 00000001400601b8 f i LoadImg.obj
 0001:0005f22c       ?Release@MStream@@UEAAKXZ  000000014006022c f i LoadImg.obj
 0001:0005f25c       ?SaveImageEx@@YA_NPEB_WPEAEK@Z 000000014006025c f   LoadImg.obj
 0001:0005f400       ?SaveImageEx@@YA_NPEB_WPEAUHBITMAP__@@@Z 0000000140060400 f   LoadImg.obj
 0001:0005f504       ?Seek@MStream@@UEAAJT_LARGE_INTEGER@@KPEAT_ULARGE_INTEGER@@@Z 0000000140060504 f i LoadImg.obj
 0001:0005f568       ?SetSize@MStream@@UEAAJT_ULARGE_INTEGER@@@Z 0000000140060568 f i LoadImg.obj
 0001:0005f614       ?Stat@MStream@@UEAAJPEAUtagSTATSTG@@K@Z 0000000140060614 f i LoadImg.obj
 0001:0005f690       ?Write@MStream@@UEAAJPEBXKPEAK@Z 0000000140060690 f i LoadImg.obj
 0001:0005f758       ?About@ConEmuMacro@@YAPEA_WPEAUGuiMacro@@PEAVCRealConsole@@_N@Z 0000000140060758 f   Macro.obj
 0001:0005f7a8       ?AffinityPriority@ConEmuMacro@@YAPEA_WPEAUGuiMacro@@PEAVCRealConsole@@_N@Z 00000001400607a8 f   Macro.obj
 0001:0005f828       ?AltNumber@ConEmuMacro@@YAPEA_WPEAUGuiMacro@@PEAVCRealConsole@@_N@Z 0000000140060828 f   Macro.obj
 0001:0005f874       ?Attach@ConEmuMacro@@YAPEA_WPEAUGuiMacro@@PEAVCRealConsole@@_N@Z 0000000140060874 f   Macro.obj
 0001:0005f90c       ?Break@ConEmuMacro@@YAPEA_WPEAUGuiMacro@@PEAVCRealConsole@@_N@Z 000000014006090c f   Macro.obj
 0001:0005f978       ?Close@ConEmuMacro@@YAPEA_WPEAUGuiMacro@@PEAVCRealConsole@@_N@Z 0000000140060978 f   Macro.obj
 0001:0005fbe8       ?Context@ConEmuMacro@@YAPEA_WPEAUGuiMacro@@PEAVCRealConsole@@_N@Z 0000000140060be8 f   Macro.obj
 0001:0005fc30       ?Copy@ConEmuMacro@@YAPEA_WPEAUGuiMacro@@PEAVCRealConsole@@_N@Z 0000000140060c30 f   Macro.obj
 0001:0005fd8c       ?Debug@ConEmuMacro@@YAPEA_WPEAUGuiMacro@@PEAVCRealConsole@@_N@Z 0000000140060d8c f   Macro.obj
 0001:0005fe18       ?Detach@ConEmuMacro@@YAPEA_WPEAUGuiMacro@@PEAVCRealConsole@@_N@Z 0000000140060e18 f   Macro.obj
 0001:0005fe7c       ?FindEditor@ConEmuMacro@@YAPEA_WPEAUGuiMacro@@PEAVCRealConsole@@_N@Z 0000000140060e7c f   Macro.obj
 0001:0005fee4       ?FindFarWindow@ConEmuMacro@@YAPEA_WPEAUGuiMacro@@PEAVCRealConsole@@_N@Z 0000000140060ee4 f   Macro.obj
 0001:0005ff68       ?FindViewer@ConEmuMacro@@YAPEA_WPEAUGuiMacro@@PEAVCRealConsole@@_N@Z 0000000140060f68 f   Macro.obj
 0001:0005ffd0       ?Flash@ConEmuMacro@@YAPEA_WPEAUGuiMacro@@PEAVCRealConsole@@_N@Z 0000000140060fd0 f   Macro.obj
 0001:000600d0       ?FontSetName@ConEmuMacro@@YAPEA_WPEAUGuiMacro@@PEAVCRealConsole@@_N@Z 00000001400610d0 f   Macro.obj
 0001:0006015c       ?FontSetSize@ConEmuMacro@@YAPEA_WPEAUGuiMacro@@PEAVCRealConsole@@_N@Z 000000014006115c f   Macro.obj
 0001:000601ac       ?GetInfo@ConEmuMacro@@YAPEA_WPEAUGuiMacro@@PEAVCRealConsole@@_N@Z 00000001400611ac f   Macro.obj
 0001:00060560       ?GetOption@ConEmuMacro@@YAPEA_WPEAUGuiMacro@@PEAVCRealConsole@@_N@Z 0000000140061560 f   Macro.obj
 0001:00060698       ?GroupInput@ConEmuMacro@@YAPEA_WPEAUGuiMacro@@PEAVCRealConsole@@_N@Z 0000000140061698 f   Macro.obj
 0001:00060730       ?HighlightMouse@ConEmuMacro@@YAPEA_WPEAUGuiMacro@@PEAVCRealConsole@@_N@Z 0000000140061730 f   Macro.obj
 0001:000607a8       ?IsConEmu@ConEmuMacro@@YAPEA_WPEAUGuiMacro@@PEAVCRealConsole@@_N@Z 00000001400617a8 f   Macro.obj
 0001:000607b8       ?IsConsoleActive@ConEmuMacro@@YAPEA_WPEAUGuiMacro@@PEAVCRealConsole@@_N@Z 00000001400617b8 f   Macro.obj
 0001:000607ec       ?IsRealVisible@ConEmuMacro@@YAPEA_WPEAUGuiMacro@@PEAVCRealConsole@@_N@Z 00000001400617ec f   Macro.obj
 0001:00060824       ?Keys@ConEmuMacro@@YAPEA_WPEAUGuiMacro@@PEAVCRealConsole@@_N@Z 0000000140061824 f   Macro.obj
 0001:00060b0c       ?Menu@ConEmuMacro@@YAPEA_WPEAUGuiMacro@@PEAVCRealConsole@@_N@Z 0000000140061b0c f   Macro.obj
 0001:00060c50       ?MsgBox@ConEmuMacro@@YAPEA_WPEAUGuiMacro@@PEAVCRealConsole@@_N@Z 0000000140061c50 f   Macro.obj
 0001:00060d50       ?Palette@ConEmuMacro@@YAPEA_WPEAUGuiMacro@@PEAVCRealConsole@@_N@Z 0000000140061d50 f   Macro.obj
 0001:00060f74       ?Paste@ConEmuMacro@@YAPEA_WPEAUGuiMacro@@PEAVCRealConsole@@_N@Z 0000000140061f74 f   Macro.obj
 0001:00061178       ?PasteExplorerPath@ConEmuMacro@@YAPEA_WPEAUGuiMacro@@PEAVCRealConsole@@_N@Z 0000000140062178 f   Macro.obj
 0001:000611e0       ?PasteFile@ConEmuMacro@@YAPEA_WPEAUGuiMacro@@PEAVCRealConsole@@_N@Z 00000001400621e0 f   Macro.obj
 0001:00061388       ?Pause@ConEmuMacro@@YAPEA_WPEAUGuiMacro@@PEAVCRealConsole@@_N@Z 0000000140062388 f   Macro.obj
 0001:000613fc       ?Print@ConEmuMacro@@YAPEA_WPEAUGuiMacro@@PEAVCRealConsole@@_N@Z 00000001400623fc f   Macro.obj
 0001:00061468       ?Progress@ConEmuMacro@@YAPEA_WPEAUGuiMacro@@PEAVCRealConsole@@_N@Z 0000000140062468 f   Macro.obj
 0001:0006150c       ?Recreate@ConEmuMacro@@YAPEA_WPEAUGuiMacro@@PEAVCRealConsole@@_N@Z 000000014006250c f   Macro.obj
 0001:000615b4       ?Rename@ConEmuMacro@@YAPEA_WPEAUGuiMacro@@PEAVCRealConsole@@_N@Z 00000001400625b4 f   Macro.obj
 0001:00061648       ?Scroll@ConEmuMacro@@YAPEA_WPEAUGuiMacro@@PEAVCRealConsole@@_N@Z 0000000140062648 f   Macro.obj
 0001:0006171c       ?Select@ConEmuMacro@@YAPEA_WPEAUGuiMacro@@PEAVCRealConsole@@_N@Z 000000014006271c f   Macro.obj
 0001:000618c8       ?SetDpi@ConEmuMacro@@YAPEA_WPEAUGuiMacro@@PEAVCRealConsole@@_N@Z 00000001400628c8 f   Macro.obj
 0001:00061964       ?SetOption@ConEmuMacro@@YAPEA_WPEAUGuiMacro@@PEAVCRealConsole@@_N@Z 0000000140062964 f   Macro.obj
 0001:00061e4c       ?Settings@ConEmuMacro@@YAPEA_WPEAUGuiMacro@@PEAVCRealConsole@@_N@Z 0000000140062e4c f   Macro.obj
 0001:00061e80       ?Shell@ConEmuMacro@@YAPEA_WPEAUGuiMacro@@PEAVCRealConsole@@_N@Z 0000000140062e80 f   Macro.obj
 0001:000625e0       ?Sleep@ConEmuMacro@@YAPEA_WPEAUGuiMacro@@PEAVCRealConsole@@_N@Z 00000001400635e0 f   Macro.obj
 0001:0006272c       ?Split@ConEmuMacro@@YAPEA_WPEAUGuiMacro@@PEAVCRealConsole@@_N@Z 000000014006372c f   Macro.obj
 0001:000628ec       ?Status@ConEmuMacro@@YAPEA_WPEAUGuiMacro@@PEAVCRealConsole@@_N@Z 00000001400638ec f   Macro.obj
 0001:00062990       ?Tab@ConEmuMacro@@YAPEA_WPEAUGuiMacro@@PEAVCRealConsole@@_N@Z 0000000140063990 f   Macro.obj
 0001:00062c20       ?Task@ConEmuMacro@@YAPEA_WPEAUGuiMacro@@PEAVCRealConsole@@_N@Z 0000000140063c20 f   Macro.obj
 0001:00062df0       ?TaskAdd@ConEmuMacro@@YAPEA_WPEAUGuiMacro@@PEAVCRealConsole@@_N@Z 0000000140063df0 f   Macro.obj
 0001:00062f78       ?TermMode@ConEmuMacro@@YAPEA_WPEAUGuiMacro@@PEAVCRealConsole@@_N@Z 0000000140063f78 f   Macro.obj
 0001:00062fec       ?Transparency@ConEmuMacro@@YAPEA_WPEAUGuiMacro@@PEAVCRealConsole@@_N@Z 0000000140063fec f   Macro.obj
 0001:00063028       ?Unfasten@ConEmuMacro@@YAPEA_WPEAUGuiMacro@@PEAVCRealConsole@@_N@Z 0000000140064028 f   Macro.obj
 0001:00063060       ?Update@ConEmuMacro@@YAPEA_WPEAUGuiMacro@@PEAVCRealConsole@@_N@Z 0000000140064060 f   Macro.obj
 0001:00063094       ?Wiki@ConEmuMacro@@YAPEA_WPEAUGuiMacro@@PEAVCRealConsole@@_N@Z 0000000140064094 f   Macro.obj
 0001:000630c8       ?WindowFullscreen@ConEmuMacro@@YAPEA_WPEAUGuiMacro@@PEAVCRealConsole@@_N@Z 00000001400640c8 f   Macro.obj
 0001:000630fc       ?WindowMaximize@ConEmuMacro@@YAPEA_WPEAUGuiMacro@@PEAVCRealConsole@@_N@Z 00000001400640fc f   Macro.obj
 0001:00063174       ?WindowMinimize@ConEmuMacro@@YAPEA_WPEAUGuiMacro@@PEAVCRealConsole@@_N@Z 0000000140064174 f   Macro.obj
 0001:000631e4       ?WindowMode@ConEmuMacro@@YAPEA_WPEAUGuiMacro@@PEAVCRealConsole@@_N@Z 00000001400641e4 f   Macro.obj
 0001:00063524       ?WindowPosSize@ConEmuMacro@@YAPEA_WPEAUGuiMacro@@PEAVCRealConsole@@_N@Z 0000000140064524 f   Macro.obj
 0001:000635d4       ?Write@ConEmuMacro@@YAPEA_WPEAUGuiMacro@@PEAVCRealConsole@@_N@Z 00000001400645d4 f   Macro.obj
 0001:0006363c       ?Zoom@ConEmuMacro@@YAPEA_WPEAUGuiMacro@@PEAVCRealConsole@@_N@Z 000000014006463c f   Macro.obj
 0001:00063680       ??$swprintf_c@$0M@@@YAHAEAY0M@_WPEB_WZZ 0000000140064680 f i Macro.obj
 0001:000636ac       ??$ultow_s@$0BAE@@@YAPEB_WIAEAY0BAE@_WH@Z 00000001400646ac f i Macro.obj
 0001:000636d8       ?AsString@GuiMacro@@QEAAPEA_WXZ 00000001400646d8 f   Macro.obj
 0001:00063a9c       ?ChangeContext@ConEmuMacro@@YAPEAVCRealConsole@@PEAV2@IIAEAVCVConGuard@@AEAPEA_W@Z 0000000140064a9c f   Macro.obj
 0001:00063cb0       ?ConcatMacro@ConEmuMacro@@YAPEB_WAEAPEA_WPEB_W@Z 0000000140064cb0 f   Macro.obj
 0001:00063d38       ?ConvertMacro@ConEmuMacro@@YAPEA_WPEB_WE_N@Z 0000000140064d38 f   Macro.obj
 0001:00063eac       ?ExecuteMacro@ConEmuMacro@@YAPEA_WPEA_WPEAVCRealConsole@@_NPEAUCESERVER_REQ_GUIMACRO@@@Z 0000000140064eac f   Macro.obj
 0001:00064220       ?ExecuteMacroSync@ConEmuMacro@@YA_J_K_J@Z 0000000140065220 f   Macro.obj
 0001:0006424c       ?FindFarWindowHelper@ConEmuMacro@@YAPEA_WIPEA_WPEAVCRealConsole@@_N@Z 000000014006524c f   Macro.obj
 0001:00064354       ?GetNextInt@ConEmuMacro@@YAPEA_WAEAPEA_WAEAUGuiMacroArg@@@Z 0000000140065354 f   Macro.obj
 0001:00064430       ?GetNextMacro@ConEmuMacro@@YAPEAUGuiMacro@@AEAPEA_W_NPEAPEA_W@Z 0000000140065430 f   Macro.obj
 0001:000649b0       ?GetNextString@ConEmuMacro@@YAPEA_WAEAPEA_W0_NAEA_N@Z 00000001400659b0 f   Macro.obj
 0001:00064c74       ?GetRestStrArgs@GuiMacro@@QEAA_N_KAEAPEA_W@Z 0000000140065c74 f   Macro.obj
 0001:00064d40       ?GetStrArg@GuiMacro@@QEAA_N_KAEAPEA_W@Z 0000000140065d40 f   Macro.obj
 0001:00064d74       ?Int2Str@ConEmuMacro@@YAPEA_WI_N@Z 0000000140065d74 f   Macro.obj
 0001:00064dc4       ?SkipWhiteSpaces@ConEmuMacro@@YAXAEAPEA_W@Z 0000000140065dc4 f   Macro.obj
 0001:00064df0       ?TransparencyHelper@ConEmuMacro@@YAPEA_WHH@Z 0000000140065df0 f   Macro.obj
 0001:00064f28       ??0CMatch@@QEAA@PEAVCRealConsole@@@Z 0000000140065f28 f   Match.obj
 0001:00064fc8       ??1CMatch@@QEAA@XZ         0000000140065fc8 f   Match.obj
 0001:00064ff8       ?CheckValidUrl@CMatch@@KA_NAEAH0AEA_NPEB_W222H@Z 0000000140065ff8 f   Match.obj
 0001:00065108       ?FindRangeStart@CMatch@@KA_NAEAH0AEA_NPEB_W22222H@Z 0000000140066108 f   Match.obj
 0001:00065348       ?GetNextLine@CMatch@@IEAA_NAEAVCRConDataGuard@@H@Z 0000000140066348 f   Match.obj
 0001:00065478       ?IsFileLineTerminator@CMatch@@KA_NPEB_W0@Z 0000000140066478 f   Match.obj
 0001:0006554c       ?IsValidFile@CMatch@@IEAA_NPEB_WH00AEAH@Z 000000014006654c f   Match.obj
 0001:0006572c       ?Match@CMatch@@QEAAHW4ExpandTextRangeType@@PEB_WHHAEAVCRConDataGuard@@H@Z 000000014006672c f   Match.obj
 0001:00065894       ?MatchAny@CMatch@@IEAA_NAEAVCRConDataGuard@@H@Z 0000000140066894 f   Match.obj
 0001:00066764       ?MatchFileNoExt@CMatch@@IEAA_NAEAVCRConDataGuard@@H@Z 0000000140067764 f   Match.obj
 0001:0006696c       ?MatchWord@CMatch@@IEAA_NPEB_WHHAEAH1AEAVCRConDataGuard@@H@Z 000000014006796c f   Match.obj
 0001:00066b90       ?StoreMatchText@CMatch@@IEAAXPEB_W0@Z 0000000140067b90 f   Match.obj
 0001:00066cd8       ??0CConEmuMenu@@QEAA@XZ    0000000140067cd8 f   Menu.obj
 0001:00066e74       ??1CConEmuMenu@@QEAA@XZ    0000000140067e74 f   Menu.obj
 0001:00066f1c       ?CalcTabMenuPos@CConEmuMenu@@QEAA?AUtagPOINT@@PEAVCVirtualConsole@@@Z 0000000140067f1c f   Menu.obj
 0001:00067004       ?CreateDebugMenuPopup@CConEmuMenu@@QEAAPEAUHMENU__@@XZ 0000000140068004 f   Menu.obj
 0001:000671d8       ?CreateEditMenuPopup@CConEmuMenu@@QEAAPEAUHMENU__@@PEAVCVirtualConsole@@PEAU2@@Z 00000001400681d8 f   Menu.obj
 0001:0006751c       ?CreateHelpMenuPopup@CConEmuMenu@@QEAAPEAUHMENU__@@XZ 000000014006851c f   Menu.obj
 0001:000676fc       ?CreateOrUpdateMenu@CConEmuMenu@@QEAA_NAEAPEAUHMENU__@@PEBUMenuItem@@_K@Z 00000001400686fc f   Menu.obj
 0001:000678cc       ?CreateVConListPopupMenu@CConEmuMenu@@QEAAPEAUHMENU__@@PEAU2@H@Z 00000001400688cc f   Menu.obj
 0001:00067c7c       ?CreateVConPopupMenu@CConEmuMenu@@QEAAPEAUHMENU__@@PEAVCVirtualConsole@@PEAU2@_N2@Z 0000000140068c7c f   Menu.obj
 0001:00068274       ?CreateViewMenuPopup@CConEmuMenu@@QEAAPEAUHMENU__@@PEAVCVirtualConsole@@PEAU2@@Z 0000000140069274 f   Menu.obj
 0001:00068458       ?ExecPopupMenuCmd@CConEmuMenu@@QEAAXW4TrackMenuPlace@@PEAVCVirtualConsole@@H@Z 0000000140069458 f   Menu.obj
 0001:00068864       ?FillTaskPopup@CConEmuMenu@@AEAAHPEAUHMENU__@@PEAUCmdTaskPopupItem@1@@Z 0000000140069864 f   Menu.obj
 0001:00068afc       ?GetInScMinimize@CConEmuMenu@@QEAA_NXZ 0000000140069afc f   Menu.obj
 0001:00068b00       ?GetRestoreFromMinimized@CConEmuMenu@@QEAA_NXZ 0000000140069b00 f   Menu.obj
 0001:00068b04       ?GetSysMenu@CConEmuMenu@@QEAAPEAUHMENU__@@H@Z 0000000140069b04 f   Menu.obj
 0001:00068bb8       ?GetTrackMenuPlace@CConEmuMenu@@QEAA?AW4TrackMenuPlace@@XZ 0000000140069bb8 f   Menu.obj
 0001:00068bbc       ?MenuAccel@CConEmuMenu@@AEAAPEB_WHPEB_W@Z 0000000140069bbc f   Menu.obj
 0001:00068cd4       ?OnInitMenuPopup@CConEmuMenu@@QEAA_JPEAUHWND__@@PEAUHMENU__@@_J@Z 0000000140069cd4 f   Menu.obj
 0001:00068f68       ?OnMenuRClick@CConEmuMenu@@QEAAXPEAUHMENU__@@I@Z 0000000140069f68 f   Menu.obj
 0001:00068f7c       ?OnMenuSelected@CConEmuMenu@@QEAA_NPEAUHMENU__@@GG@Z 0000000140069f7c f   Menu.obj
 0001:00069074       ?OnMenuSelected_NewCon@CConEmuMenu@@AEAA_NPEAUHMENU__@@GG@Z 000000014006a074 f   Menu.obj
 0001:0006925c       ?OnNcIconLClick@CConEmuMenu@@QEAAXXZ 000000014006a25c f   Menu.obj
 0001:000692f4       ?OnNewConPopupMenu@CConEmuMenu@@QEAAXPEAUtagPOINT@@K_N@Z 000000014006a2f4 f   Menu.obj
 0001:0006a038       ?OnNewConPopupMenuRClick@CConEmuMenu@@AEAAXPEAUHMENU__@@I@Z 000000014006b038 f   Menu.obj
 0001:0006a46c       ?OnSysCommand@CConEmuMenu@@QEAA_JPEAUHWND__@@_K_JI@Z 000000014006b46c f   Menu.obj
 0001:0006af64       ?Reset@CmdTaskPopupItem@CConEmuMenu@@QEAAXW4CmdTaskPopupItemType@12@HPEB_W@Z 000000014006bf64 f   Menu.obj
 0001:0006afd4       ?SetMenuName@CmdTaskPopupItem@CConEmuMenu@@SAXPEA_W_JPEB_W_N32@Z 000000014006bfd4 f   Menu.obj
 0001:0006b208       ?SetPassSysCommand@CConEmuMenu@@QEAA_N_N@Z 000000014006c208 f   Menu.obj
 0001:0006b210       ?SetRestoreFromMinimized@CConEmuMenu@@QEAA_N_N@Z 000000014006c210 f   Menu.obj
 0001:0006b218       ?SetTrackMenuPlace@CConEmuMenu@@QEAA?AW4TrackMenuPlace@@W42@@Z 000000014006c218 f   Menu.obj
 0001:0006b220       ?ShowKeyBarHint@CConEmuMenu@@AEAAXPEAUHMENU__@@GG@Z 000000014006c220 f   Menu.obj
 0001:0006b2b0       ?ShowMenuHint@CConEmuMenu@@AEAAXPEAUHMENU__@@GG@Z 000000014006c2b0 f   Menu.obj
 0001:0006b3ac       ?ShowMenuHint@CConEmuMenu@@AEAAXPEB_WPEAUtagPOINT@@@Z 000000014006c3ac f   Menu.obj
 0001:0006b4f4       ?ShowPopupMenu@CConEmuMenu@@QEAAXPEAVCVirtualConsole@@UtagPOINT@@K_N@Z 000000014006c4f4 f   Menu.obj
 0001:0006b6b4       ?ShowSysmenu@CConEmuMenu@@QEAAXHHK@Z 000000014006c6b4 f   Menu.obj
 0001:0006bb28       ?UpdateSysMenu@CConEmuMenu@@AEAAXPEAUHMENU__@@@Z 000000014006cb28 f   Menu.obj
 0001:0006bf60       ?push_back@?$MArray@UCmdTaskPopupItem@CConEmuMenu@@@@QEAA_JAEBUCmdTaskPopupItem@CConEmuMenu@@@Z 000000014006cf60 f i Menu.obj
 0001:0006bfd8       ?trackPopupMenu@CConEmuMenu@@QEAAHW4TrackMenuPlace@@PEAUHMENU__@@IHHPEAUHWND__@@PEAUtagRECT@@@Z 000000014006cfd8 f   Menu.obj
 0001:0006c2a8       ?CopyToClipboard@@YA_NPEB_W@Z 000000014006d2a8 f   MyClipboard.obj
 0001:0006c3f0       ?GetCliboardText@@YAPEA_WAEAKPEA_W_J@Z 000000014006d3f0 f   MyClipboard.obj
 0001:0006c5f0       ?MyCloseClipboard@@YAXXZ   000000014006d5f0 f   MyClipboard.obj
 0001:0006c630       ?MyOpenClipboard@@YA_NPEB_W@Z 000000014006d630 f   MyClipboard.obj
 0001:0006c790       ?MySetClipboardData@@YAPEAXIPEAX@Z 000000014006d790 f   MyClipboard.obj
 0001:0006c83c       ??0OleInitializer@@QEAA@XZ 000000014006d83c f   OleInitializer.obj
 0001:0006c850       ??0OleInitializer@@QEAA@_N@Z 000000014006d850 f   OleInitializer.obj
 0001:0006c87c       ??1OleInitializer@@UEAA@XZ 000000014006d87c f   OleInitializer.obj
 0001:0006c89c       ??_GOleInitializer@@UEAAPEAXI@Z 000000014006d89c f i OleInitializer.obj
 0001:0006c89c       ??_EOleInitializer@@UEAAPEAXI@Z 000000014006d89c f i OleInitializer.obj
 0001:0006c8e4       ?Initialize@OleInitializer@@QEAA_NXZ 000000014006d8e4 f   OleInitializer.obj
 0001:0006c910       ??$SafeDelete@UCommandHistory@@@@YAXAEAPEAUCommandHistory@@@Z 000000014006d910 f i Options.obj
 0001:0006c958       ??$SafeDelete@USettingsBase@@@@YAXAEAPEAUSettingsBase@@@Z 000000014006d958 f i Options.obj
 0001:0006c990       ??$ltow_s@$0BA@@@YAPEB_WHAEAY0BA@_WH@Z 000000014006d990 f i Options.obj
 0001:0006c9bc       ??$swprintf_c@$0BCM@@@YAHAEAY0BCM@_WPEB_WZZ 000000014006d9bc f i Options.obj
 0001:0006c9e8       ??0Settings@@QEAA@XZ       000000014006d9e8 f   Options.obj
 0001:0006ca18       ??1Settings@@QEAA@XZ       000000014006da18 f   Options.obj
 0001:0006ca44       ?AppSettingsDelete@Settings@@IEAAXH@Z 000000014006da44 f   Options.obj
 0001:0006cac0       ?AppSettingsXch@Settings@@IEAA_NHH@Z 000000014006dac0 f   Options.obj
 0001:0006cb14       ?AutoSaveSettings@Settings@@QEAAXPEAUSettingsBase@@_N@Z 000000014006db14 f   Options.obj
 0001:0006ce30       ?CheckCharAltFont@Settings@@QEAA_NH@Z 000000014006de30 f   Options.obj
 0001:0006ce58       ?CheckConsoleSettings@Settings@@QEAAXXZ 000000014006de58 f   Options.obj
 0001:0006cff0       ?CheckHotkeyUnique@Settings@@QEAAXXZ 000000014006dff0 f   Options.obj
 0001:0006d280       ?CmdTaskGet@Settings@@QEAAPEBUCommandTasks@@H@Z 000000014006e280 f   Options.obj
 0001:0006d328       ?CmdTaskGetByName@Settings@@QEAAPEBUCommandTasks@@PEB_W@Z 000000014006e328 f   Options.obj
 0001:0006d4a4       ?CmdTaskGetDefaultShell@Settings@@QEAA_NAEAURConStartArgsEx@@AEAUCEStr@@@Z 000000014006e4a4 f   Options.obj
 0001:0006d674       ?CmdTaskSet@Settings@@QEAAHHPEB_W00K@Z 000000014006e674 f   Options.obj
 0001:0006da7c       ?CmdTaskSetVkMod@Settings@@QEAAXHK@Z 000000014006ea7c f   Options.obj
 0001:0006dab8       ?CmdTaskXch@Settings@@QEAA_NHH@Z 000000014006eab8 f   Options.obj
 0001:0006db04       ?CreateCharRanges@Settings@@QEAAPEA_WAEAY0BAAAA@E@Z 000000014006eb04 f   Options.obj
 0001:0006dbe8       ?CreatePredefinedPalettes@Settings@@QEAAXH@Z 000000014006ebe8 f   Options.obj
 0001:0006dd7c       ?CreateSettings@Settings@@QEAAPEAUSettingsBase@@PEBUSettingsStorage@@@Z 000000014006ed7c f   Options.obj
 0001:0006e0dc       ?DisableLogging@Settings@@QEAAXXZ 000000014006f0dc f   Options.obj
 0001:0006e0e4       ?EnableLogging@Settings@@QEAAXXZ 000000014006f0e4 f   Options.obj
 0001:0006e110       ?FreeApps@Settings@@AEAAXHPEAPEAUAppSettings@@@Z 000000014006f110 f   Options.obj
 0001:0006e190       ?FreeCmdTasks@Settings@@IEAAXXZ 000000014006f190 f   Options.obj
 0001:0006e20c       ?FreePalettes@Settings@@IEAAXXZ 000000014006f20c f   Options.obj
 0001:0006e290       ?FreeProgresses@Settings@@IEAAXXZ 000000014006f290 f   Options.obj
 0001:0006e324       ?GetAppSettings@Settings@@QEAAPEBUAppSettings@@H@Z 000000014006f324 f   Options.obj
 0001:0006e36c       ?GetAppSettingsId@Settings@@QEAAHPEB_W_N@Z 000000014006f36c f   Options.obj
 0001:0006e4f4       ?GetAppSettingsPtr@Settings@@IEAAPEAUAppSettings@@HH@Z 000000014006f4f4 f   Options.obj
 0001:0006e638       ?GetColors@Settings@@QEAAPEAKHH@Z 000000014006f638 f   Options.obj
 0001:0006e6d4       ?GetColorsPrepare@Settings@@QEAAPEAKPEAK0PEA_NH@Z 000000014006f6d4 f   Options.obj
 0001:0006e708       ?GetDefColors@Settings@@QEAAPEBKPEB_W@Z 000000014006f708 f   Options.obj
 0001:0006e78c       ?GetDefaultTerminalApps@Settings@@QEAAPEA_WXZ 000000014006f78c f   Options.obj
 0001:0006e7a4       ?GetDefaultTerminalAppsMSZ@Settings@@QEAAPEB_WXZ 000000014006f7a4 f   Options.obj
 0001:0006e7ac       ?GetFadeColor@Settings@@QEAAKK@Z 000000014006f7ac f   Options.obj
 0001:0006e8c0       ?GetHotkeyById@Settings@@QEAAKHPEAPEBUConEmuHotKey@@@Z 000000014006f8c0 f   Options.obj
 0001:0006e95c       ?GetHotkeyNameById@Settings@@QEAAPEB_WHAEAY0IA@_W_N@Z 000000014006f95c f   Options.obj
 0001:0006e9d0       ?GetIntelligentExceptions@Settings@@QEAAPEA_WXZ 000000014006f9d0 f   Options.obj
 0001:0006e9e8       ?GetIntelligentExceptionsMSZ@Settings@@QEAAPEB_WXZ 000000014006f9e8 f   Options.obj
 0001:0006e9f0       ?GetLogFileName@Settings@@QEAAPEB_WXZ 000000014006f9f0 f   Options.obj
 0001:0006ea10       ?GetPaletteColors@Settings@@QEAAPEAKPEB_WH@Z 000000014006fa10 f   Options.obj
 0001:0006ea98       ?GetPaletteIndex@AppSettings@@QEBAHXZ 000000014006fa98 f   Options.obj
 0001:0006eab4       ?GetSettingsType@Settings@@QEAA?AUSettingsStorage@@XZ 000000014006fab4 f   Options.obj
 0001:0006ebe0       ?GetStoragePlaceDescr@Settings@@QEAAPEA_WPEBUSettingsStorage@@PEB_W@Z 000000014006fbe0 f   Options.obj
 0001:0006ed1c       ?HideCaptionAlwaysFrame@Settings@@QEAAHXZ 000000014006fd1c f   Options.obj
 0001:0006ed68       ?HistoryAdd@Settings@@QEAAXPEB_W@Z 000000014006fd68 f   Options.obj
 0001:0006ee94       ?HistoryGet@Settings@@QEAAPEB_WH@Z 000000014006fe94 f   Options.obj
 0001:0006eea8       ?HistoryLoad@Settings@@QEAAXPEAUSettingsBase@@@Z 000000014006fea8 f   Options.obj
 0001:0006efb4       ?HistoryReset@Settings@@QEAAXXZ 000000014006ffb4 f   Options.obj
 0001:0006efe0       ?HistorySave@Settings@@QEAAXPEAUSettingsBase@@@Z 000000014006ffe0 f   Options.obj
 0001:0006f0bc       ?InitSettings@Settings@@QEAAXXZ 00000001400700bc f   Options.obj
 0001:0006fc94       ?InitVanilla@Settings@@QEAAXXZ 0000000140070c94 f   Options.obj
 0001:0006fdd8       ?IsAutoSaveSettings@Settings@@QEAA_N_N@Z 0000000140070dd8 f   Options.obj
 0001:0006fe04       ?IsHotkey@Settings@@QEAA_NH@Z 0000000140070e04 f   Options.obj
 0001:0006fe24       ?IsModifierPressed@Settings@@QEAAXHPEA_N0@Z 0000000140070e24 f   Options.obj
 0001:0006ff34       ?IsModifierPressed@Settings@@QEAA_NH_N@Z 0000000140070f34 f   Options.obj
 0001:0006ff70       ?LineDelimited2MSZ@Settings@@QEAAPEA_WPEB_W_N@Z 0000000140070f70 f   Options.obj
 0001:00070068       ?LoadAppSettings@Settings@@AEAAXPEAUSettingsBase@@PEAUAppSettings@@@Z 0000000140071068 f   Options.obj
 0001:00070458       ?LoadAppsSettings@Settings@@AEAAXPEAUSettingsBase@@_N@Z 0000000140071458 f   Options.obj
 0001:000707c0       ?LoadCmdTasks@Settings@@QEAAXPEAUSettingsBase@@_N@Z 00000001400717c0 f   Options.obj
 0001:00070adc       ?LoadCursorSettings@Settings@@AEAAXPEAUSettingsBase@@PEATCECursorType@@1@Z 0000000140071adc f   Options.obj
 0001:00070d68       ?LoadHotkeys@Settings@@AEAAXPEAUSettingsBase@@AEB_N11@Z 0000000140071d68 f   Options.obj
 0001:00071194       ?LoadMSZ@Settings@@QEAA_NPEAUSettingsBase@@PEB_WAEAPEA_W1_N@Z 0000000140072194 f   Options.obj
 0001:00071220       ?LoadPalettes@Settings@@QEAAXPEAUSettingsBase@@@Z 0000000140072220 f   Options.obj
 0001:000715f4       ?LoadSettings@Settings@@QEAAXAEA_NPEBUSettingsStorage@@@Z 00000001400725f4 f   Options.obj
 0001:00073aec       ?LoadSizeSettings@Settings@@IEAAXPEAUSettingsBase@@@Z 0000000140074aec f   Options.obj
 0001:00073ed4       ?MSZ2LineDelimited@Settings@@QEAAPEA_WPEB_W0_N@Z 0000000140074ed4 f   Options.obj
 0001:00074004       ?MultiLine2MSZ@Settings@@QEAAPEA_WPEB_WPEAK@Z 0000000140075004 f   Options.obj
 0001:00074180       ?NeedCreateAppWindow@Settings@@QEAA_NXZ 0000000140075180 f   Options.obj
 0001:000741b8       ?OnAutoSaveTimer@Settings@@QEAAXXZ 00000001400751b8 f   Options.obj
 0001:00074260       ?PaletteDelete@Settings@@QEAAXPEB_W@Z 0000000140075260 f   Options.obj
 0001:000742f4       ?PaletteFindByColors@Settings@@QEAAPEBUColorPalette@@_NPEBU2@@Z 00000001400752f4 f   Options.obj
 0001:0007438c       ?PaletteFindCurrent@Settings@@QEAAPEBUColorPalette@@_N@Z 000000014007538c f   Options.obj
 0001:000743d8       ?PaletteGet@Settings@@QEAAPEBUColorPalette@@H@Z 00000001400753d8 f   Options.obj
 0001:000743e0       ?PaletteGetByName@Settings@@QEAAPEBUColorPalette@@PEB_W@Z 00000001400753e0 f   Options.obj
 0001:00074400       ?PaletteGetIndex@Settings@@QEAAHPEB_W@Z 0000000140075400 f   Options.obj
 0001:000744a0       ?PaletteGetPtr@Settings@@IEAAPEAUColorPalette@@H@Z 00000001400754a0 f   Options.obj
 0001:00074570       ?PaletteSaveAs@Settings@@QEAAXPEB_W@Z 0000000140075570 f   Options.obj
 0001:000745b4       ?PaletteSaveAs@Settings@@QEAAXPEB_WEEEEAEAY0BA@$$CBK_N@Z 00000001400755b4 f   Options.obj
 0001:00074844       ?PaletteSetActive@Settings@@QEAAHPEB_W@Z 0000000140075844 f   Options.obj
 0001:000748cc       ?PaletteSetStdIndexes@Settings@@QEAAXXZ 00000001400758cc f   Options.obj
 0001:00074964       ?ParseCharRanges@Settings@@QEAAHPEB_WAEAY0BAAAA@EE@Z 0000000140075964 f   Options.obj
 0001:00074aa8       ?PrepareFadeColors@Settings@@QEAAXPEAK0PEA_N@Z 0000000140075aa8 f   Options.obj
 0001:00074b44       ?RClickMacro@Settings@@QEAAPEB_WW4FarMacroVersion@@@Z 0000000140075b44 f   Options.obj
 0001:00074bac       ?RClickMacroDefault@Settings@@QEAAPEB_WW4FarMacroVersion@@@Z 0000000140075bac f   Options.obj
 0001:00074bc0       ?ReleasePointers@Settings@@IEAAXXZ 0000000140075bc0 f   Options.obj
 0001:00074dd4       ?ResetFadeColors@Settings@@QEAAXXZ 0000000140075dd4 f   Options.obj
 0001:00074e24       ?ResetSavedOnExit@Settings@@QEAAXXZ 0000000140075e24 f   Options.obj
 0001:00074e2c       ?SafeFarCloseMacro@Settings@@QEAAPEB_WW4FarMacroVersion@@@Z 0000000140075e2c f   Options.obj
 0001:00074e94       ?SafeFarCloseMacroDefault@Settings@@QEAAPEB_WW4FarMacroVersion@@@Z 0000000140075e94 f   Options.obj
 0001:00074ea8       ?SaveAllMacro@Settings@@QEAAPEB_WW4FarMacroVersion@@@Z 0000000140075ea8 f   Options.obj
 0001:00074f10       ?SaveAllMacroDefault@Settings@@QEAAPEB_WW4FarMacroVersion@@@Z 0000000140075f10 f   Options.obj
 0001:00074f24       ?SaveAppSettings@Settings@@AEAAXPEAUSettingsBase@@PEAUAppSettings@@@Z 0000000140075f24 f   Options.obj
 0001:00075148       ?SaveAppsSettings@Settings@@QEAAXPEAUSettingsBase@@@Z 0000000140076148 f   Options.obj
 0001:00075360       ?SaveCmdTasks@Settings@@QEAA_NPEAUSettingsBase@@@Z 0000000140076360 f   Options.obj
 0001:00075604       ?SaveConsoleFont@Settings@@QEAAXXZ 0000000140076604 f   Options.obj
 0001:000756bc       ?SaveFindOptions@Settings@@QEAAXPEAUSettingsBase@@@Z 00000001400766bc f   Options.obj
 0001:000757b8       ?SaveHotkeys@Settings@@AEAAXPEAUSettingsBase@@H@Z 00000001400767b8 f   Options.obj
 0001:000759ac       ?SaveMSZ@Settings@@QEAAXPEAUSettingsBase@@PEB_W11_N@Z 00000001400769ac f   Options.obj
 0001:00075a08       ?SavePalettes@Settings@@IEAAXPEAUSettingsBase@@@Z 0000000140076a08 f   Options.obj
 0001:00075e38       ?SaveSettings@Settings@@QEAAHHPEBUSettingsStorage@@@Z 0000000140076e38 f   Options.obj
 0001:00077854       ?SaveSettingsOnExit@Settings@@QEAAXXZ 0000000140078854 f   Options.obj
 0001:0007787c       ?SaveSizeSettings@Settings@@IEAAXPEAUSettingsBase@@@Z 000000014007887c f   Options.obj
 0001:00077ae4       ?SaveStartCommands@Settings@@AEAAXPEAUSettingsBase@@@Z 0000000140078ae4 f   Options.obj
 0001:00077b84       ?SaveStatusSettings@Settings@@IEAAXPEAUSettingsBase@@@Z 0000000140078b84 f   Options.obj
 0001:00077c9c       ?SaveStdColors@Settings@@AEAAXPEAUSettingsBase@@@Z 0000000140078c9c f   Options.obj
 0001:00077dac       ?SaveStopBuzzingDate@Settings@@QEAAXXZ 0000000140078dac f   Options.obj
 0001:00077ecc       ?SaveVanilla@Settings@@QEAA_NPEAUSettingsBase@@@Z 0000000140078ecc f   Options.obj
 0001:000780bc       ?SetDefaultTerminalApps@Settings@@QEAAXPEB_W@Z 00000001400790bc f   Options.obj
 0001:0007813c       ?SetHideCaptionAlways@Settings@@QEAAX_N@Z 000000014007913c f   Options.obj
 0001:00078144       ?SetHotkeyById@Settings@@QEAAXHK@Z 0000000140079144 f   Options.obj
 0001:000781a0       ?SetIntelligentExceptions@Settings@@QEAAXPEB_W@Z 00000001400791a0 f   Options.obj
 0001:000781ec       ?SetMinToTray@Settings@@QEAAX_N@Z 00000001400791ec f   Options.obj
 0001:00078258       ?SetPaletteName@AppSettings@@QEAAXPEB_W@Z 0000000140079258 f   Options.obj
 0001:00078278       ?SortPalettes@Settings@@IEAAXXZ 0000000140079278 f   Options.obj
 0001:00078384       ?StatusBarFontHeight@Settings@@QEAAHXZ 0000000140079384 f   Options.obj
 0001:00078398       ?StatusBarHeight@Settings@@QEAAHXZ 0000000140079398 f   Options.obj
 0001:00078408       ?SwitchHideCaptionAlways@Settings@@QEAAXXZ 0000000140079408 f   Options.obj
 0001:0007841c       ?TabCloseMacro@Settings@@QEAAPEB_WW4FarMacroVersion@@@Z 000000014007941c f   Options.obj
 0001:00078484       ?TabCloseMacroDefault@Settings@@QEAAPEB_WW4FarMacroVersion@@@Z 0000000140079484 f   Options.obj
 0001:00078498       ?isActivateSplitMouseOver@Settings@@QEAA_NXZ 0000000140079498 f   Options.obj
 0001:000784d4       ?isAdminShield@Settings@@QEAA_NXZ 00000001400794d4 f   Options.obj
 0001:000784e0       ?isAdminSuffix@Settings@@QEAA_NXZ 00000001400794e0 f   Options.obj
 0001:00078500       ?isAlwaysShowTrayIcon@Settings@@QEAA_NXZ 0000000140079500 f   Options.obj
 0001:00078554       ?isCloseOnCrossClick@Settings@@QEAA_NXZ 0000000140079554 f   Options.obj
 0001:00078580       ?isCloseOnLastTabClose@Settings@@QEAA_NE@Z 0000000140079580 f   Options.obj
 0001:000785b4       ?isCloseOnLastTabClose@Settings@@QEAA_NXZ 00000001400795b4 f   Options.obj
 0001:000785c0       ?isForcedHideCaptionAlways@Settings@@QEAA_NXZ 00000001400795c0 f   Options.obj
 0001:000785d8       ?isHideCaptionAlways@Settings@@QEAA_NXZ 00000001400795d8 f   Options.obj
 0001:00078608       ?isHideOnLastTabClose@Settings@@QEAA_NXZ 0000000140079608 f   Options.obj
 0001:00078648       ?isIntegralSize@Settings@@QEAA_NXZ 0000000140079648 f   Options.obj
 0001:00078670       ?isKeyboardHooks@Settings@@QEAA_N_N0@Z 0000000140079670 f   Options.obj
 0001:00078694       ?isLogging@Settings@@QEAAII@Z 0000000140079694 f   Options.obj
 0001:000786f0       ?isMinOnLastTabClose@Settings@@QEAA_NXZ 00000001400796f0 f   Options.obj
 0001:00078730       ?isMinToTray@Settings@@QEAA_N_N@Z 0000000140079730 f   Options.obj
 0001:00078750       ?isMinimizeOnLoseFocus@Settings@@QEAA_NXZ 0000000140079750 f   Options.obj
 0001:0007876c       ?isModifierExist@Settings@@QEAA_NE_N@Z 000000014007976c f   Options.obj
 0001:00078828       ?isRClickTouchInvert@Settings@@QEAA_NXZ 0000000140079828 f   Options.obj
 0001:00078860       ?isTabsOnTaskBar@Settings@@QEAA_NXZ 0000000140079860 f   Options.obj
 0001:000788c4       ?isTransparentAllowed@Settings@@QEAA_NXZ 00000001400798c4 f   Options.obj
 0001:00078904       ?isUseClink@Settings@@QEAAK_N@Z 0000000140079904 f   Options.obj
 0001:00078b3c       ?isWindowOnTaskBar@Settings@@QEAA_N_N@Z 0000000140079b3c f   Options.obj
 0001:00078bc0       ??0CSettings@@QEAA@XZ      0000000140079bc0 f   OptionsClass.obj
 0001:00078f14       ??1CSettings@@UEAA@XZ      0000000140079f14 f   OptionsClass.obj
 0001:000790b8       ??_ECSettings@@UEAAPEAXI@Z 000000014007a0b8 f i OptionsClass.obj
 0001:000790b8       ??_GCSettings@@UEAAPEAXI@Z 000000014007a0b8 f i OptionsClass.obj
 0001:000790ec       ?ActivatePage@CSettings@@QEAA_NW4TabHwndIndex@@@Z 000000014007a0ec f   OptionsClass.obj
 0001:00079160       ?BalloonStyle@CSettings@@QEAAKXZ 000000014007a160 f   OptionsClass.obj
 0001:000791f4       ?CenterMoreDlg@CSettings@@CAXPEAUHWND__@@@Z 000000014007a1f4 f   OptionsClass.obj
 0001:000792a8       ?ChangeCurrentPalette@CSettings@@QEAAXPEBUColorPalette@@_N@Z 000000014007a2a8 f   OptionsClass.obj
 0001:000795e0       ?CheckConsoleFont@CSettings@@KA_NPEAUHWND__@@@Z 000000014007a5e0 f   OptionsClass.obj
 0001:0007997c       ?CheckConsoleFontFast@CSettings@@QEAA_NPEB_W@Z 000000014007a97c f   OptionsClass.obj
 0001:00079e54       ?CheckConsoleFontRegistry@CSettings@@KA_NPEB_W@Z 000000014007ae54 f   OptionsClass.obj
 0001:0007a0d8       ?CheckSelectionModifiers@CSettings@@QEAAXPEAUHWND__@@@Z 000000014007b0d8 f   OptionsClass.obj
 0001:0007a618       ?CheckTheming@CSettings@@QEAA_NXZ 000000014007b618 f   OptionsClass.obj
 0001:0007a6e0       ?ClearPages@CSettings@@AEAAXXZ 000000014007b6e0 f   OptionsClass.obj
 0001:0007a740       ?Create@CSetPgANSI@@SAPEAVCSetPgBase@@XZ 000000014007b740 f i OptionsClass.obj
 0001:0007a774       ?Create@CSetPgAppear@@SAPEAVCSetPgBase@@XZ 000000014007b774 f i OptionsClass.obj
 0001:0007a7a8       ?Create@CSetPgApps@@SAPEAVCSetPgBase@@XZ 000000014007b7a8 f i OptionsClass.obj
 0001:0007a7dc       ?Create@CSetPgBackgr@@SAPEAVCSetPgBase@@XZ 000000014007b7dc f i OptionsClass.obj
 0001:0007a810       ?Create@CSetPgChildGui@@SAPEAVCSetPgBase@@XZ 000000014007b810 f i OptionsClass.obj
 0001:0007a844       ?Create@CSetPgColors@@SAPEAVCSetPgBase@@XZ 000000014007b844 f i OptionsClass.obj
 0001:0007a878       ?Create@CSetPgComspec@@SAPEAVCSetPgBase@@XZ 000000014007b878 f i OptionsClass.obj
 0001:0007a8ac       ?Create@CSetPgConfirm@@SAPEAVCSetPgBase@@XZ 000000014007b8ac f i OptionsClass.obj
 0001:0007a8e0       ?Create@CSetPgCursor@@SAPEAVCSetPgBase@@XZ 000000014007b8e0 f i OptionsClass.obj
 0001:0007a914       ?Create@CSetPgDebug@@SAPEAVCSetPgBase@@XZ 000000014007b914 f i OptionsClass.obj
 0001:0007a948       ?Create@CSetPgDefTerm@@SAPEAVCSetPgBase@@XZ 000000014007b948 f i OptionsClass.obj
 0001:0007a97c       ?Create@CSetPgEnvironment@@SAPEAVCSetPgBase@@XZ 000000014007b97c f i OptionsClass.obj
 0001:0007a9b0       ?Create@CSetPgFar@@SAPEAVCSetPgBase@@XZ 000000014007b9b0 f i OptionsClass.obj
 0001:0007a9e4       ?Create@CSetPgFarMacro@@SAPEAVCSetPgBase@@XZ 000000014007b9e4 f i OptionsClass.obj
 0001:0007aa18       ?Create@CSetPgFeatures@@SAPEAVCSetPgBase@@XZ 000000014007ba18 f i OptionsClass.obj
 0001:0007aa4c       ?Create@CSetPgFonts@@SAPEAVCSetPgBase@@XZ 000000014007ba4c f i OptionsClass.obj
 0001:0007aa80       ?Create@CSetPgGeneral@@SAPEAVCSetPgBase@@XZ 000000014007ba80 f i OptionsClass.obj
 0001:0007aab4       ?Create@CSetPgHilight@@SAPEAVCSetPgBase@@XZ 000000014007bab4 f i OptionsClass.obj
 0001:0007aae8       ?Create@CSetPgInfo@@SAPEAVCSetPgBase@@XZ 000000014007bae8 f i OptionsClass.obj
 0001:0007ab1c       ?Create@CSetPgIntegr@@SAPEAVCSetPgBase@@XZ 000000014007bb1c f i OptionsClass.obj
 0001:0007ab50       ?Create@CSetPgKeyboard@@SAPEAVCSetPgBase@@XZ 000000014007bb50 f i OptionsClass.obj
 0001:0007ab84       ?Create@CSetPgKeys@@SAPEAVCSetPgBase@@XZ 000000014007bb84 f i OptionsClass.obj
 0001:0007abb8       ?Create@CSetPgMarkCopy@@SAPEAVCSetPgBase@@XZ 000000014007bbb8 f i OptionsClass.obj
 0001:0007abec       ?Create@CSetPgMouse@@SAPEAVCSetPgBase@@XZ 000000014007bbec f i OptionsClass.obj
 0001:0007ac20       ?Create@CSetPgPaste@@SAPEAVCSetPgBase@@XZ 000000014007bc20 f i OptionsClass.obj
 0001:0007ac54       ?Create@CSetPgQuake@@SAPEAVCSetPgBase@@XZ 000000014007bc54 f i OptionsClass.obj
 0001:0007ac88       ?Create@CSetPgSizePos@@SAPEAVCSetPgBase@@XZ 000000014007bc88 f i OptionsClass.obj
 0001:0007acbc       ?Create@CSetPgStartup@@SAPEAVCSetPgBase@@XZ 000000014007bcbc f i OptionsClass.obj
 0001:0007acf0       ?Create@CSetPgStatus@@SAPEAVCSetPgBase@@XZ 000000014007bcf0 f i OptionsClass.obj
 0001:0007ad24       ?Create@CSetPgTabs@@SAPEAVCSetPgBase@@XZ 000000014007bd24 f i OptionsClass.obj
 0001:0007ad58       ?Create@CSetPgTaskbar@@SAPEAVCSetPgBase@@XZ 000000014007bd58 f i OptionsClass.obj
 0001:0007ad8c       ?Create@CSetPgTasks@@SAPEAVCSetPgBase@@XZ 000000014007bd8c f i OptionsClass.obj
 0001:0007adc0       ?Create@CSetPgTransparent@@SAPEAVCSetPgBase@@XZ 000000014007bdc0 f i OptionsClass.obj
 0001:0007adf4       ?Create@CSetPgUpdate@@SAPEAVCSetPgBase@@XZ 000000014007bdf4 f i OptionsClass.obj
 0001:0007ae28       ?Create@CSetPgViews@@SAPEAVCSetPgBase@@XZ 000000014007be28 f i OptionsClass.obj
 0001:0007ae5c       ?CreateConFontError@CSettings@@IEAAPEB_WPEB_W0@Z 000000014007be5c f   OptionsClass.obj
 0001:0007b008       ?Dialog@CSettings@@SAXH@Z  000000014007c008 f   OptionsClass.obj
 0001:0007b194       ?EditConsoleFont@CSettings@@QEAA_NPEAUHWND__@@@Z 000000014007c194 f   OptionsClass.obj
 0001:0007b1d8       ?EditConsoleFontProc@CSettings@@SA_JPEAUHWND__@@I_K_J@Z 000000014007c1d8 f   OptionsClass.obj
 0001:0007bedc       ?EnumConFamCallBack@CSettings@@SAHPEAUtagLOGFONTW@@PEAUtagNEWTEXTMETRICW@@KPEAX@Z 000000014007cedc f   OptionsClass.obj
 0001:0007c100       ?EvalSize@CSettings@@QEAAJJKPEAUDpiValue@@@Z 000000014007d100 f   OptionsClass.obj
 0001:0007c194       ?ExportSettings@CSettings@@IEAAXXZ 000000014007d194 f   OptionsClass.obj
 0001:0007c33c       ?GetActivePage@CSettings@@QEAAPEAUHWND__@@XZ 000000014007d33c f   OptionsClass.obj
 0001:0007c380       ?GetActivePageObj@CSettings@@QEAAPEAVCSetPgBase@@XZ 000000014007d380 f   OptionsClass.obj
 0001:0007c3c8       ?GetActivePageWiki@CSettings@@QEAAPEB_WAEAUCEStr@@@Z 000000014007d3c8 f   OptionsClass.obj
 0001:0007c458       ?GetBackgroundObject@CSettings@@QEAAPEAVCBackgroundInfo@@XZ 000000014007d458 f   OptionsClass.obj
 0001:0007c470       ?GetConfigName@CSettings@@QEAAPEB_WXZ 000000014007d470 f   OptionsClass.obj
 0001:0007c478       ?GetConfigPath@CSettings@@QEAAPEB_WXZ 000000014007d478 f   OptionsClass.obj
 0001:0007c480       ?GetDefaultCreateAction@CSettings@@QEAA?AW4RecreateActionParm@@XZ 000000014007d480 f   OptionsClass.obj
 0001:0007c4c0       ?GetDialogDpi@CSettings@@AEAAHXZ 000000014007d4c0 f   OptionsClass.obj
 0001:0007c4e8       ?GetOverallDpi@CSettings@@IEAAHXZ 000000014007d4e8 f   OptionsClass.obj
 0001:0007c52c       ?GetPage@CSettings@@QEAAPEAUHWND__@@W4TabHwndIndex@@@Z 000000014007d52c f   OptionsClass.obj
 0001:0007c544       ?GetPageData@CSettings@@AEAAPEBUConEmuSetupPages@@W4TabHwndIndex@@@Z 000000014007d544 f   OptionsClass.obj
 0001:0007c590       ?GetPageId@CSettings@@AEAA?AW4TabHwndIndex@@PEAUHWND__@@PEAPEAUConEmuSetupPages@@@Z 000000014007d590 f   OptionsClass.obj
 0001:0007c5d8       ?GetPageIdByDialogId@CSettings@@AEAA?AW4TabHwndIndex@@I@Z 000000014007d5d8 f   OptionsClass.obj
 0001:0007c610       ?GetPageObj@CSettings@@QEAAPEAVCSetPgBase@@W4TabHwndIndex@@@Z 000000014007d610 f   OptionsClass.obj
 0001:0007c62c       ?ImportSettings@CSettings@@IEAAXXZ 000000014007d62c f   OptionsClass.obj
 0001:0007c708       ?InitPageNames@CSettings@@AEAAXXZ 000000014007d708 f   OptionsClass.obj
 0001:0007c78c       ?InitVars_Pages@CSettings@@AEAAXXZ 000000014007d78c f   OptionsClass.obj
 0001:0007d078       ?InternalOpenCreate@?$MFileMapping@UPanelViewSetMapping@@@@IEAAPEAUPanelViewSetMapping@@HHH@Z 000000014007e078 f i OptionsClass.obj
 0001:0007d22c       ?IsBackgroundEnabled@CSettings@@QEAA_NPEAVCVirtualConsole@@@Z 000000014007e22c f   OptionsClass.obj
 0001:0007d344       ?IsMulti@CSettings@@QEAA_NXZ 000000014007e344 f   OptionsClass.obj
 0001:0007d368       ?IsSingleInstanceArg@CSettings@@QEAA_NXZ 000000014007e368 f   OptionsClass.obj
 0001:0007d398       ?LoadBackgroundFile@CSettings@@QEAA_NPEB_W_N@Z 000000014007e398 f   OptionsClass.obj
 0001:0007d40c       ?NeedBackgroundUpdate@CSettings@@QEAAXXZ 000000014007e40c f   OptionsClass.obj
 0001:0007d45c       ?OnCtlColorStatic@CSettings@@IEAA_JPEAUHWND__@@PEAUHDC__@@0G@Z 000000014007e45c f   OptionsClass.obj
 0001:0007d4e4       ?OnDrawFontItem@CSettings@@IEAA_JPEAUHWND__@@I_K_J@Z 000000014007e4e4 f   OptionsClass.obj
 0001:0007d71c       ?OnInitDialog@CSettings@@IEAA_JXZ 000000014007e71c f   OptionsClass.obj
 0001:0007de84       ?OnListBoxDblClk@CSettings@@IEAA_JPEAUHWND__@@_K_J@Z 000000014007ee84 f   OptionsClass.obj
 0001:0007debc       ?OnMeasureFontItem@CSettings@@IEAA_JPEAUHWND__@@I_K_J@Z 000000014007eebc f   OptionsClass.obj
 0001:0007df44       ?OnPage@CSettings@@IEAA_JPEAUtagNMHDR@@@Z 000000014007ef44 f   OptionsClass.obj
 0001:0007e2fc       ?OnPanelViewAppeared@CSettings@@QEAAXH@Z 000000014007f2fc f   OptionsClass.obj
 0001:0007e36c       ?OnResetOrReload@CSettings@@IEAAX_NPEAUSettingsStorage@@@Z 000000014007f36c f   OptionsClass.obj
 0001:0007e7e8       ?OnSettingsClosed@CSettings@@QEAAXXZ 000000014007f7e8 f   OptionsClass.obj
 0001:0007e908       ?Performance@CSettings@@QEAAXIH@Z 000000014007f908 f   OptionsClass.obj
 0001:0007ec40       ?PostUpdateCounters@CSettings@@QEAAX_N@Z 000000014007fc40 f   OptionsClass.obj
 0001:0007efa0       ?ProcessTipHelp@CSettings@@QEAA_JPEAUHWND__@@I_K_J@Z 000000014007ffa0 f   OptionsClass.obj
 0001:0007f00c       ?QueryDpi@CSettings@@QEAAHXZ 000000014008000c f   OptionsClass.obj
 0001:0007f014       ?RecreateFont@CSettings@@AEAAXG@Z 0000000140080014 f   OptionsClass.obj
 0001:0007f0d0       ?RegisterTabs@CSettings@@AEAAXXZ 00000001400800d0 f   OptionsClass.obj
 0001:0007f130       ?RegisterTipsFor@CSettings@@QEAAXPEAUHWND__@@@Z 0000000140080130 f   OptionsClass.obj
 0001:0007f508       ?RegisterTipsForChild@CSettings@@CAHPEAUHWND__@@_J@Z 0000000140080508 f   OptionsClass.obj
 0001:0007f648       ?ReleaseHandles@CSettings@@AEAAXXZ 0000000140080648 f   OptionsClass.obj
 0001:0007f690       ?ResetCmdHistory@CSettings@@QEAA_NPEAUHWND__@@@Z 0000000140080690 f   OptionsClass.obj
 0001:0007f6ec       ?SearchForControls@CSettings@@IEAAXXZ 00000001400806ec f   OptionsClass.obj
 0001:00080184       ?SelectTreeItem@CSettings@@CAXPEAUHWND__@@PEAU_TREEITEM@@_N@Z 0000000140081184 f   OptionsClass.obj
 0001:00080200       ?SetArgBufferHeight@CSettings@@QEAAXH@Z 0000000140081200 f   OptionsClass.obj
 0001:00080280       ?SetBgImageDarker@CSettings@@QEAAXE_N@Z 0000000140081280 f   OptionsClass.obj
 0001:000803a0       ?SetConfigName@CSettings@@QEAAXPEB_W@Z 00000001400813a0 f   OptionsClass.obj
 0001:00080474       ?SetOption@CSettings@@QEAA_NPEB_W0@Z 0000000140081474 f   OptionsClass.obj
 0001:000805b0       ?SetOption@CSettings@@QEAA_NPEB_WH@Z 00000001400815b0 f   OptionsClass.obj
 0001:0008064c       ?SetRequestedDpi@CSettings@@QEAAXHH@Z 000000014008164c f   OptionsClass.obj
 0001:0008066c       ?SetSaveCmdHistory@CSettings@@QEAAX_N@Z 000000014008166c f   OptionsClass.obj
 0001:000806f4       ?SettingsLoaded@CSettings@@QEAAXKPEB_W@Z 00000001400816f4 f   OptionsClass.obj
 0001:00080b74       ?SettingsPreSave@CSettings@@QEAAXXZ 0000000140081b74 f   OptionsClass.obj
 0001:00080dbc       ?ShowConFontErrorTip@CSettings@@QEAAXXZ 0000000140081dbc f   OptionsClass.obj
 0001:00080e0c       ?ShowErrorTip@CSettings@@AEAAXPEA_WPEAUHWND__@@H1PEAUtagTOOLINFOW@@1K_N@Z 0000000140081e0c f   OptionsClass.obj
 0001:00080f90       ?ShowFontErrorTip@CSettings@@QEAAXPEB_W@Z 0000000140081f90 f   OptionsClass.obj
 0001:00081028       ?ShowModifierErrorTip@CSettings@@QEAAXPEB_WPEAUHWND__@@G@Z 0000000140082028 f   OptionsClass.obj
 0001:000810ac       ?UnregisterTabs@CSettings@@AEAAXXZ 00000001400820ac f   OptionsClass.obj
 0001:000810f0       ?UpdateConsoleMode@CSettings@@QEAAXPEAVCRealConsole@@@Z 00000001400820f0 f   OptionsClass.obj
 0001:00081188       ?UpdateFontInfo@CSettings@@QEAAXXZ 0000000140082188 f   OptionsClass.obj
 0001:000811d8       ?UpdatePos@CSettings@@QEAAXHH_N@Z 00000001400821d8 f   OptionsClass.obj
 0001:00081428       ?UpdateSize@CSettings@@QEAAXTCESize@@0@Z 0000000140082428 f   OptionsClass.obj
 0001:00081950       ?UpdateTextColorSettings@CSettings@@QEAAXHHPEBUAppSettings@@@Z 0000000140082950 f   OptionsClass.obj
 0001:000819a0       ?UpdateWinHookSettings@CSettings@@QEAAXPEAUHINSTANCE__@@@Z 00000001400829a0 f   OptionsClass.obj
 0001:00081c2c       ?UpdateWindowMode@CSettings@@QEAAXW4ConEmuWindowMode@@@Z 0000000140082c2c f   OptionsClass.obj
 0001:00081cb0       ?isDialogMessage@CSettings@@QEAA_NAEAUtagMSG@@@Z 0000000140082cb0 f   OptionsClass.obj
 0001:00081d98       ?wndOpProc@CSettings@@SA_JPEAUHWND__@@I_K_J@Z 0000000140082d98 f   OptionsClass.obj
 0001:00082360       ??0CVarDefs@FastConfig@@QEAA@XZ 0000000140083360 f i OptionsFast.obj
 0001:000823e8       ??0FarVerList@FastConfig@@QEAA@XZ 00000001400833e8 f i OptionsFast.obj
 0001:000824a8       ??1AppFoundList@FastConfig@@UEAA@XZ 00000001400834a8 f i OptionsFast.obj
 0001:000824f0       ??1CVarDefs@FastConfig@@QEAA@XZ 00000001400834f0 f i OptionsFast.obj
 0001:000825a0       ??1FarVerList@FastConfig@@UEAA@XZ 00000001400835a0 f i OptionsFast.obj
 0001:000825e8       ??1FoundFiles@FastConfig@@QEAA@XZ 00000001400835e8 f i OptionsFast.obj
 0001:000826a4       ??_FAppFoundList@FastConfig@@QEAAXXZ 00000001400836a4 f i OptionsFast.obj
 0001:000826d8       ??_EAppFoundList@FastConfig@@UEAAPEAXI@Z 00000001400836d8 f i OptionsFast.obj
 0001:000826d8       ??_GAppFoundList@FastConfig@@UEAAPEAXI@Z 00000001400836d8 f i OptionsFast.obj
 0001:00082744       ??_EFarVerList@FastConfig@@UEAAPEAXI@Z 0000000140083744 f i OptionsFast.obj
 0001:00082744       ??_GFarVerList@FastConfig@@UEAAPEAXI@Z 0000000140083744 f i OptionsFast.obj
 0001:000827b0       ?Add@AppFoundList@FastConfig@@QEAA_NPEB_W0000ZZ 00000001400837b0 f i OptionsFast.obj
 0001:00082994       ?Add@FoundFiles@FastConfig@@QEAAXPEB_W0@Z 0000000140083994 f i OptionsFast.obj
 0001:00082a98       ?AddAppPath@AppFoundList@FastConfig@@MEAA_JPEB_W00_N000@Z 0000000140083a98 f i OptionsFast.obj
 0001:00082cfc       ?CheckOptionsFast@FastConfig@@YAXPEB_WK@Z 0000000140083cfc f   OptionsFast.obj
 0001:00083240       ?CheckUnique@AppFoundList@FastConfig@@QEAA_NPEB_W@Z 0000000140084240 f i OptionsFast.obj
 0001:00083338       ?Clean@AppFoundList@FastConfig@@IEAAXXZ 0000000140084338 f i OptionsFast.obj
 0001:000834a0       ?Commit@AppFoundList@FastConfig@@UEAA_NXZ 00000001400844a0 f i OptionsFast.obj
 0001:00084648       ?CreateDefaultTasks@FastConfig@@YAXK@Z 0000000140085648 f   OptionsFast.obj
 0001:00085acc       ?DoPaintColorBox@FastConfig@@YAXPEAUHWND__@@AEBUColorPalette@@@Z 0000000140086acc f   OptionsFast.obj
 0001:00085c04       ?DoStartupCommand@FastConfig@@YAXPEAUHWND__@@G@Z 0000000140086c04 f   OptionsFast.obj
 0001:00085ea4       ?FastMsgBox@FastConfig@@YAHPEB_WI0PEAUHWND__@@_N@Z 0000000140086ea4 f   OptionsFast.obj
 0001:00085f1c       ?FindInstalledVersions@FarVerList@FastConfig@@QEAAXXZ 0000000140086f1c f i OptionsFast.obj
 0001:00086a08       ?FindStartupTask@FastConfig@@YAXK@Z 0000000140087a08 f   OptionsFast.obj
 0001:00086b98       ?Free@AppInfo@AppFoundList@FastConfig@@QEAAXXZ 0000000140087b98 f i OptionsFast.obj
 0001:00086c18       ?GetStartupCommand@FastConfig@@YAPEB_WAEAUCEStr@@@Z 0000000140087c18 f   OptionsFast.obj
 0001:00086ef4       ?MakeUnique@AppFoundList@FastConfig@@UEAAXXZ 0000000140087ef4 f i OptionsFast.obj
 0001:000880a4       ?Process@CVarDefs@FastConfig@@QEAAXHPEB_W@Z 00000001400890a4 f i OptionsFast.obj
 0001:00088218       ?ScanRegistry@FarVerList@FastConfig@@IEAAXXZ 0000000140089218 f i OptionsFast.obj
 0001:00088594       ?Trim@AppFoundList@FastConfig@@IEAA_NXZ 0000000140089594 f i OptionsFast.obj
 0001:00088880       ?push_back@?$MArray@UAppInfo@AppFoundList@FastConfig@@@@QEAA_JAEBUAppInfo@AppFoundList@FastConfig@@@Z 0000000140089880 f i OptionsFast.obj
 0001:000888f8       ?sort@?$MArray@UAppInfo@AppFoundList@FastConfig@@@@QEAAXP6AHAEAUAppInfo@AppFoundList@FastConfig@@0@Z@Z 00000001400898f8 f i OptionsFast.obj
 0001:00088a28       ?GetItemHelp@CEHelpPopup@@SA_NHPEAUHWND__@@PEA_WK@Z 0000000140089a28 f   OptionsHelp.obj
 0001:00088b88       ?OpenSettingsWiki@CEHelpPopup@@SA_NPEAUHWND__@@G@Z 0000000140089b88 f   OptionsHelp.obj
 0001:00088cd0       ??0CPushInfo@@QEAA@XZ      0000000140089cd0 f   PushInfo.obj
 0001:00088f0c       ?OnNotificationClick@CPushInfo@@QEAAXXZ 0000000140089f0c f   PushInfo.obj
 0001:00089008       ?OpenNotificationUrl@CPushInfo@@QEAAXXZ 000000014008a008 f   PushInfo.obj
 0001:00089068       ?ShowNotification@CPushInfo@@QEAA_NXZ 000000014008a068 f   PushInfo.obj
 0001:00089114       ??0CRConData@@IEAA@PEAVCRealConsole@@PEA_WPEAUtag_CharAttr@@AEBU_CONSOLE_SCREEN_BUFFER_INFO@@AEBU_COORD@@@Z 000000014008a114 f   RConData.obj
 0001:00089198       ??1CRConData@@MEAA@XZ      000000014008a198 f   RConData.obj
 0001:00089200       ??_GCRConData@@MEAAPEAXI@Z 000000014008a200 f i RConData.obj
 0001:00089200       ??_ECRConData@@MEAAPEAXI@Z 000000014008a200 f i RConData.obj
 0001:00089234       ?Allocate@CRConData@@SA_NAEAVCRConDataGuard@@PEAVCRealConsole@@PEA_WPEAUtag_CharAttr@@AEBU_CONSOLE_SCREEN_BUFFER_INFO@@AEBU_COORD@@@Z 000000014008a234 f   RConData.obj
 0001:00089310       ?Allocate@CRConData@@SA_NAEAVCRConDataGuard@@PEAVCRealConsole@@_K@Z 000000014008a310 f   RConData.obj
 0001:00089464       ?CheckProgressInConsole@CRConData@@QEAAFI@Z 000000014008a464 f   RConData.obj
 0001:00089a68       ?FindPanels@CRConData@@QEAA_NAEA_NAEAUtagRECT@@1011@Z 000000014008aa68 f   RConData.obj
 0001:0008a15c       ?GetConsoleData@CRConData@@QEAAIPEA_WPEAUtag_CharAttr@@II_WU2@11_N4@Z 000000014008b15c f   RConData.obj
 0001:0008a7c4       ?GetConsoleLine@CRConData@@QEBA_NHAEAUConsoleLinePtr@@@Z 000000014008b7c4 f   RConData.obj
 0001:0008a874       ?clear@ConsoleLinePtr@@QEAAXXZ 000000014008b874 f   RConData.obj
 0001:0008a888       ?isValid@CRConData@@QEAA_N_N_K@Z 000000014008b888 f   RConData.obj
 0001:0008a8c4       ?isValid@CRConDataGuard@@QEAA_N_K@Z 000000014008b8c4 f   RConData.obj
 0001:0008a8ec       ??0CRConFiles@@QEAA@PEAVCRealConsole@@@Z 000000014008b8ec f   RConFiles.obj
 0001:0008a8f4       ?CheckParentFolders@CRConFiles@@AEAA_NPEB_W0AEAUCEStr@@@Z 000000014008b8f4 f   RConFiles.obj
 0001:0008aa50       ?GetFileFromConsole@CRConFiles@@QEAAPEB_WPEB_WAEAUCEStr@@@Z 000000014008ba50 f   RConFiles.obj
 0001:0008ad4c       ??$swprintf_s@$0MI@@@YAHAEAY0MI@_WPEB_WZZ 000000014008bd4c f i RConPalette.obj
 0001:0008ada0       ??0CRConPalette@@QEAA@PEAVCRealConsole@@@Z 000000014008bda0 f   RConPalette.obj
 0001:0008ade0       ??_GCRConPalette@@UEAAPEAXI@Z 000000014008bde0 f i RConPalette.obj
 0001:0008ade0       ??_ECRConPalette@@UEAAPEAXI@Z 000000014008bde0 f i RConPalette.obj
 0001:0008ae0c       ?UpdateColorTable@CRConPalette@@QEAAXPEAK_N1EEE@Z 000000014008be0c f   RConPalette.obj
 0001:0008b208       ??$SafeDelete@VCMatch@@@@YAXAEAPEAVCMatch@@@Z 000000014008c208 f i RealBuffer.obj
 0001:0008b250       ??$sprintf_c@$0CA@@@YAHAEAY0CA@DPEBDZZ 000000014008c250 f i RealBuffer.obj
 0001:0008b27c       ??$sprintf_c@$0PP@@@YAHAEAY0PP@DPEBDZZ 000000014008c27c f i RealBuffer.obj
 0001:0008b2a8       ??$swprintf_c@$0GA@@@YAHAEAY0GA@_WPEB_WZZ 000000014008c2a8 f i RealBuffer.obj
 0001:0008b2d4       ??$swprintf_c@$0HNA@@@YAHAEAY0HNA@_WPEB_WZZ 000000014008c2d4 f i RealBuffer.obj
 0001:0008b300       ??$swprintf_c@$0PA@@@YAHAEAY0PA@_WPEB_WZZ 000000014008c300 f i RealBuffer.obj
 0001:0008b32c       ??0CAnsiCopy@@QEAA@PEAKKK@Z 000000014008c32c f i RealBuffer.obj
 0001:0008b3d4       ??0CHtmlCopy@@QEAA@_NPEB_W1HKK@Z 000000014008c3d4 f i RealBuffer.obj
 0001:0008b4f4       ??0CRealBuffer@@QEAA@PEAVCRealConsole@@W4RealBufferType@@@Z 000000014008c4f4 f   RealBuffer.obj
 0001:0008b678       ??1CFormatCopy@@UEAA@XZ    000000014008c678 f i RealBuffer.obj
 0001:0008b718       ??1CRConDataGuard@@UEAA@XZ 000000014008c718 f i RealBuffer.obj
 0001:0008b770       ??1CRealBuffer@@QEAA@XZ    000000014008c770 f   RealBuffer.obj
 0001:0008b8a8       ??_E?$CRefGuard@VCRConData@@@@UEAAPEAXI@Z 000000014008c8a8 f i RealBuffer.obj
 0001:0008b8a8       ??_G?$CRefGuard@VCRConData@@@@UEAAPEAXI@Z 000000014008c8a8 f i RealBuffer.obj
 0001:0008b8a8       ??_ECRConDataGuard@@UEAAPEAXI@Z 000000014008c8a8 f i RealBuffer.obj
 0001:0008b8a8       ??_GCRConDataGuard@@UEAAPEAXI@Z 000000014008c8a8 f i RealBuffer.obj
 0001:0008b920       ??_ECAnsiCopy@@UEAAPEAXI@Z 000000014008c920 f i RealBuffer.obj
 0001:0008b920       ??_GCAnsiCopy@@UEAAPEAXI@Z 000000014008c920 f i RealBuffer.obj
 0001:0008b960       ??_ECFormatCopy@@UEAAPEAXI@Z 000000014008c960 f i RealBuffer.obj
 0001:0008b960       ??_GCFormatCopy@@UEAAPEAXI@Z 000000014008c960 f i RealBuffer.obj
 0001:0008b994       ??_GCHtmlCopy@@UEAAPEAXI@Z 000000014008c994 f i RealBuffer.obj
 0001:0008b994       ??_ECHtmlCopy@@UEAAPEAXI@Z 000000014008c994 f i RealBuffer.obj
 0001:0008b9d4       ?AllocateBuffer@?$MPipe@UCESERVER_REQ_HDR@@U1@@@IEAAPEAUCESERVER_REQ_HDR@@KPEAU2@K@Z 000000014008c9d4 f i RealBuffer.obj
 0001:0008bab0       ?ApplyConsoleInfo@CRealBuffer@@AEAAXPEBUCESERVER_REQ@@AEA_N11@Z 000000014008cab0 f   RealBuffer.obj
 0001:0008c208       ?ApplyConsoleInfo@CRealBuffer@@QEAA_NXZ 000000014008d208 f   RealBuffer.obj
 0001:0008c32c       ?Attach@?$CRefGuard@VCRConData@@@@UEAA_NPEAVCRConData@@@Z 000000014008d32c f i RealBuffer.obj
 0001:0008c32c       ?Attach@?$CRefGuard@VCConHostSearch@CRealConsole@@@@UEAA_NPEAVCConHostSearch@CRealConsole@@@Z 000000014008d32c f i RealConsole.obj
 0001:0008c32c       ?Attach@?$CRefGuard@VCVirtualConsole@@@@UEAA_NPEAVCVirtualConsole@@@Z 000000014008d32c f i VConRelease.obj
 0001:0008c32c       ?Attach@?$CRefGuard@VCVConGroup@@@@UEAA_NPEAVCVConGroup@@@Z 000000014008d32c f i VConGroup.obj
 0001:0008c39c       ?BuferModeChangeLock@CRealBuffer@@QEAA_NXZ 000000014008d39c f   RealBuffer.obj
 0001:0008c3b0       ?BuferModeChangeUnlock@CRealBuffer@@QEAAXXZ 000000014008d3b0 f   RealBuffer.obj
 0001:0008c3b8       ?BufferHeight@CRealBuffer@@QEAAHI@Z 000000014008d3b8 f   RealBuffer.obj
 0001:0008c410       ?BufferToScreen@CRealBuffer@@QEAA?AU_COORD@@U2@_N1@Z 000000014008d410 f   RealBuffer.obj
 0001:0008c4a8       ?CanProcessHyperlink@CRealBuffer@@AEAA_NAEBU_COORD@@@Z 000000014008d4a8 f   RealBuffer.obj
 0001:0008c5a4       ?ChangeBufferHeightMode@CRealBuffer@@QEAAX_N@Z 000000014008d5a4 f   RealBuffer.obj
 0001:0008c68c       ?ChangeSelectionByKey@CRealBuffer@@QEAAXI_N0@Z 000000014008d68c f   RealBuffer.obj
 0001:0008ca80       ?CheckBufferSize@CRealBuffer@@AEAA_NXZ 000000014008da80 f   RealBuffer.obj
 0001:0008cae4       ?Close@?$MPipe@UCESERVER_REQ_HDR@@U1@@@QEAAXXZ 000000014008dae4 f i RealBuffer.obj
 0001:0008cb7c       ?ConsoleCursorInfo@CRealBuffer@@QEAAXPEAU_CONSOLE_CURSOR_INFO@@@Z 000000014008db7c f   RealBuffer.obj
 0001:0008cc3c       ?ConsoleCursorPos@CRealBuffer@@QEAAXPEAU_COORD@@@Z 000000014008dc3c f   RealBuffer.obj
 0001:0008cc90       ?ConsoleScreenBufferInfo@CRealBuffer@@QEAAXPEAU_CONSOLE_SCREEN_BUFFER_INFO@@PEAU_SMALL_RECT@@PEAUTOPLEFTCOORD@@@Z 000000014008dc90 f   RealBuffer.obj
 0001:0008ccf8       ?CorrectSelectionAnchor@CRealBuffer@@QEAAIXZ 000000014008dcf8 f   RealBuffer.obj
 0001:0008cd90       ?CreateResult@CAnsiCopy@@UEAAPEAXXZ 000000014008dd90 f i RealBuffer.obj
 0001:0008cdf4       ?CreateResult@CHtmlCopy@@UEAAPEAXXZ 000000014008ddf4 f i RealBuffer.obj
 0001:0008cf54       ?CreateResultInternal@CFormatCopy@@IEAAPEAXPEBD_J@Z 000000014008df54 f i RealBuffer.obj
 0001:0008d100       ?DoCopyPaste@CRealBuffer@@QEAAX_N0@Z 000000014008e100 f   RealBuffer.obj
 0001:0008d224       ?DoScrollBuffer@CRealBuffer@@QEAA_JHFI_N@Z 000000014008e224 f   RealBuffer.obj
 0001:0008d3c8       ?DoSelectionCopy@CRealBuffer@@QEAA_NW4CECopyMode@@EPEB_WPEAPEAX@Z 000000014008e3c8 f   RealBuffer.obj
 0001:0008d66c       ?DoSelectionCopyInt@CRealBuffer@@AEAA_NW4CECopyMode@@_NHHHHEPEB_WPEAPEAX@Z 000000014008e66c f   RealBuffer.obj
 0001:0008e4a8       ?DoSelectionFinalize@CRealBuffer@@QEAA_N_NW4CECopyMode@@_KPEAPEAX@Z 000000014008f4a8 f   RealBuffer.obj
 0001:0008e528       ?DoSelectionStop@CRealBuffer@@QEAAXXZ 000000014008f528 f   RealBuffer.obj
 0001:0008e5b0       ?DumpConsole@CRealBuffer@@QEAAXPEAX@Z 000000014008f5b0 f   RealBuffer.obj
 0001:0008e6d4       ?ExpandSelection@CRealBuffer@@QEAAXFF_N@Z 000000014008f6d4 f   RealBuffer.obj
 0001:0008eb28       ?ExpandTextRange@CRealBuffer@@AEAA?AW4ExpandTextRangeType@@AEAU_COORD@@0W42@PEAUCEStr@@@Z 000000014008fb28 f   RealBuffer.obj
 0001:0008eda0       ?FindPanels@CRealBuffer@@QEAAXXZ 000000014008fda0 f   RealBuffer.obj
 0001:0008f144       ?FormatColor@CAnsiCopy@@IEAAPEB_WKK_N00AEAY0FA@_W@Z 0000000140090144 f i RealBuffer.obj
 0001:0008f430       ?GetBufferHeight@CRealBuffer@@QEBAFXZ 0000000140090430 f   RealBuffer.obj
 0001:0008f438       ?GetBufferPosY@CRealBuffer@@QEBAFXZ 0000000140090438 f   RealBuffer.obj
 0001:0008f44c       ?GetBufferWidth@CRealBuffer@@QEBAFXZ 000000014009044c f   RealBuffer.obj
 0001:0008f454       ?GetConInMode@CRealBuffer@@QEAAGXZ 0000000140090454 f   RealBuffer.obj
 0001:0008f45c       ?GetConOutMode@CRealBuffer@@QEAAGXZ 000000014009045c f   RealBuffer.obj
 0001:0008f464       ?GetConWindowSize@CRealBuffer@@QEBA_NAEBU_CONSOLE_SCREEN_BUFFER_INFO@@PEAH1PEAK@Z 0000000140090464 f   RealBuffer.obj
 0001:0008f590       ?GetConsoleCP@CRealBuffer@@QEAAKXZ 0000000140090590 f   RealBuffer.obj
 0001:0008f598       ?GetConsoleData@CRealBuffer@@QEAAXPEA_WPEAUtag_CharAttr@@HHAEAUConEmuTextRange@@@Z 0000000140090598 f   RealBuffer.obj
 0001:00090058       ?GetConsoleLine@CRealBuffer@@QEAA_NAEAVCRConDataGuard@@HAEAPEB_WAEAHPEAVMSectionLock@@@Z 0000000140091058 f   RealBuffer.obj
 0001:000900dc       ?GetConsoleLine@CRealBuffer@@QEAA_NHAEAVCRConDataGuard@@AEAUConsoleLinePtr@@PEAVMSectionLock@@@Z 00000001400910dc f   RealBuffer.obj
 0001:00090238       ?GetConsoleOutputCP@CRealBuffer@@QEAAKXZ 0000000140091238 f   RealBuffer.obj
 0001:00090240       ?GetConsoleSelectionInfo@CRealBuffer@@QEAA_NPEAU_CONSOLE_SELECTION_INFO@@@Z 0000000140091240 f   RealBuffer.obj
 0001:00090264       ?GetCursorInfo@CRealBuffer@@QEAAXPEAU_COORD@@PEAU_CONSOLE_CURSOR_INFO@@@Z 0000000140091264 f   RealBuffer.obj
 0001:00090288       ?GetData@CRealBuffer@@IEAA_NAEAVCRConDataGuard@@@Z 0000000140091288 f   RealBuffer.obj
 0001:00090318       ?GetDefaultNtvdmHeight@CRealBuffer@@QEAA?AU_COORD@@XZ 0000000140091318 f   RealBuffer.obj
 0001:0009038c       ?GetDetector@CRealBuffer@@QEAAPEBVCRgnDetect@@XZ 000000014009138c f   RealBuffer.obj
 0001:0009039c       ?GetDynamicHeight@CRealBuffer@@QEBAHXZ 000000014009139c f   RealBuffer.obj
 0001:000903bc       ?GetKeybLayout@CRealBuffer@@QEAA_KXZ 00000001400913bc f   RealBuffer.obj
 0001:000903c4       ?GetLastTextRangeType@CRealBuffer@@QEAA?AW4ExpandTextRangeType@@XZ 00000001400913c4 f   RealBuffer.obj
 0001:000903d4       ?GetMaxSize@CRealBuffer@@QEAA?AU_COORD@@XZ 00000001400913d4 f   RealBuffer.obj
 0001:000903e0       ?GetPanelRect@CRealBuffer@@QEAA_N_NPEAUtagRECT@@00@Z 00000001400913e0 f   RealBuffer.obj
 0001:0009048c       ?GetRBtnDrag@CRealBuffer@@QEAA_NPEAU_COORD@@@Z 000000014009148c f   RealBuffer.obj
 0001:000904a0       ?GetSelectionCellsCount@CRealBuffer@@QEAAHXZ 00000001400914a0 f   RealBuffer.obj
 0001:00090500       ?GetSelectionCharCount@CRealBuffer@@AEAAH_NHHHHPEAH1H@Z 0000000140091500 f   RealBuffer.obj
 0001:000905d8       ?GetStatusLineCount@CRealBuffer@@QEAAHH@Z 00000001400915d8 f   RealBuffer.obj
 0001:000906fc       ?GetTextHeight@CRealBuffer@@QEBAHXZ 00000001400916fc f   RealBuffer.obj
 0001:00090710       ?GetTextWidth@CRealBuffer@@QEBAHXZ 0000000140091710 f   RealBuffer.obj
 0001:00090724       ?InitBuffers@CRealBuffer@@AEAA_NKHHPEAVCRConDataGuard@@@Z 0000000140091724 f   RealBuffer.obj
 0001:00090bec       ?InitMaxSize@CRealBuffer@@QEAAXAEBU_COORD@@@Z 0000000140091bec f   RealBuffer.obj
 0001:00090bf8       ?InitSBI@CRealBuffer@@QEAAXAEBU_CONSOLE_SCREEN_BUFFER_INFO@@@Z 0000000140091bf8 f   RealBuffer.obj
 0001:00090d44       ?InternalOpenCreate@?$MFileMapping@UCESERVER_CONSAVE_MAP@@@@IEAAPEAUCESERVER_CONSAVE_MAP@@HHH@Z 0000000140091d44 f i RealBuffer.obj
 0001:00090ef8       ?InternalOpenCreate@?$MFileMapping@UCESERVER_CONSAVE_MAPHDR@@@@IEAAPEAUCESERVER_CONSAVE_MAPHDR@@HHH@Z 0000000140091ef8 f i RealBuffer.obj
 0001:000910ac       ?IsBufferHeightTurnedOn@CRealBuffer@@AEAA_NAEBU_CONSOLE_SCREEN_BUFFER_INFO@@@Z 00000001400920ac f   RealBuffer.obj
 0001:000910fc       ?IsTrueColorerBufferChanged@CRealBuffer@@AEAA_NXZ 00000001400920fc f   RealBuffer.obj
 0001:00091304       ?LineAdd@CFormatCopy@@UEAAXPEB_WPEBGPEBK_J@Z 0000000140092304 f i RealBuffer.obj
 0001:000913d0       ?LineAdd@CFormatCopy@@UEAAXPEB_WPEBUtag_CharAttr@@_J@Z 00000001400923d0 f i RealBuffer.obj
 0001:000914b4       ?LoadAlternativeConsole@CRealBuffer@@QEAA_NW4LoadAltMode@@@Z 00000001400924b4 f   RealBuffer.obj
 0001:000919c4       ?LoadDataFromDump@CRealBuffer@@AEAA_NAEBU_CONSOLE_SCREEN_BUFFER_INFO@@PEBU_CHAR_INFO@@K@Z 00000001400929c4 f   RealBuffer.obj
 0001:00091e24       ?LoadDataFromSrv@CRealBuffer@@AEAA_NAEAVCRConDataGuard@@KPEAU_CHAR_INFO@@@Z 0000000140092e24 f   RealBuffer.obj
 0001:00092184       ?LoadDumpConsole@CRealBuffer@@QEAA_NPEB_W@Z 0000000140093184 f   RealBuffer.obj
 0001:00092760       ?MarkFindText@CRealBuffer@@QEAAXHPEB_W_N1@Z 0000000140093760 f   RealBuffer.obj
 0001:00092d94       ?OnBufferHeight@CRealBuffer@@QEAAXXZ 0000000140093d94 f   RealBuffer.obj
 0001:00092db4       ?OnKeyboard@CRealBuffer@@QEAA_NPEAUHWND__@@I_K_JPEB_W@Z 0000000140093db4 f   RealBuffer.obj
 0001:00092fc0       ?OnKeysSending@CRealBuffer@@QEAAXXZ 0000000140093fc0 f   RealBuffer.obj
 0001:0009301c       ?OnMouse@CRealBuffer@@QEAA_NI_KHHU_COORD@@@Z 000000014009401c f   RealBuffer.obj
 0001:00093c14       ?OnMouseSelection@CRealBuffer@@AEAA_NI_KHH@Z 0000000140094c14 f   RealBuffer.obj
 0001:000940d0       ?OnTimerCheckSelection@CRealBuffer@@QEAAXXZ 00000001400950d0 f   RealBuffer.obj
 0001:000941f8       ?Open@?$MPipe@UCESERVER_REQ_HDR@@U1@@@QEAAHXZ 00000001400951f8 f i RealBuffer.obj
 0001:000942e0       ?ParBegin@CAnsiCopy@@MEAAXXZ 00000001400952e0 f i RealBuffer.obj
 0001:00094308       ?ParBegin@CHtmlCopy@@MEAAXXZ 0000000140095308 f i RealBuffer.obj
 0001:00094330       ?ParEnd@CAnsiCopy@@MEAAXXZ 0000000140095330 f i RealBuffer.obj
 0001:0009435c       ?ParEnd@CHtmlCopy@@MEAAXXZ 000000014009535c f i RealBuffer.obj
 0001:00094388       ?PatchMouseCoords@CRealBuffer@@AEAA_NAEAH0AEAU_COORD@@@Z 0000000140095388 f   RealBuffer.obj
 0001:0009457c       ?PreFillBuffers@CRealBuffer@@QEAAXXZ 000000014009557c f   RealBuffer.obj
 0001:0009464c       ?PreInit@CRealBuffer@@QEAA_NXZ 000000014009564c f   RealBuffer.obj
 0001:000947d4       ?PrepareColorTable@CRealBuffer@@AEAAXPEBUAppSettings@@PEAPEAUtag_CharAttr@@1@Z 00000001400957d4 f   RealBuffer.obj
 0001:000948d4       ?PrepareTransparent@CRealBuffer@@AEAAXPEA_WPEAUtag_CharAttr@@HH@Z 00000001400958d4 f   RealBuffer.obj
 0001:00094abc       ?ProcessFarHyperlink@CRealBuffer@@QEAA_NIU_COORD@@_N@Z 0000000140095abc f   RealBuffer.obj
 0001:0009555c       ?ProcessFarHyperlink@CRealBuffer@@QEAA_N_N@Z 000000014009655c f   RealBuffer.obj
 0001:000956b8       ?ProcessSelectionHotKey@CRealBuffer@@QEAAPEBUConEmuHotKey@@AEBUConEmuChord@@_NPEB_W@Z 00000001400966b8 f   RealBuffer.obj
 0001:0009597c       ?QueryCellInfo@CRealBuffer@@QEAAXPEA_WH@Z 000000014009697c f   RealBuffer.obj
 0001:00095b60       ?RawAdd@CFormatCopy@@IEAAXPEB_W_J@Z 0000000140096b60 f i RealBuffer.obj
 0001:00095c60       ?Release@?$CRefGuard@VCConHostSearch@CRealConsole@@@@UEAAXXZ 0000000140096c60 f i RealConsole.obj
 0001:00095c60       ?Release@?$CRefGuard@VCVirtualConsole@@@@UEAAXXZ 0000000140096c60 f i VConGroup.obj
 0001:00095c60       ?Release@?$CRefGuard@VCRConData@@@@UEAAXXZ 0000000140096c60 f i RealBuffer.obj
 0001:00095c60       ?Release@?$CRefGuard@VCVConGroup@@@@UEAAXXZ 0000000140096c60 f i VConGroup.obj
 0001:00095ca4       ?ReleaseMem@CRealBuffer@@QEAAXXZ 0000000140096ca4 f   RealBuffer.obj
 0001:00095cdc       ?ResetBuffer@CRealBuffer@@QEAAXXZ 0000000140096cdc f   RealBuffer.obj
 0001:00095dfc       ?ResetConData@CRealBuffer@@QEAAXXZ 0000000140096dfc f   RealBuffer.obj
 0001:00095e0c       ?ResetLastMousePos@CRealBuffer@@AEAA_NXZ 0000000140096e0c f   RealBuffer.obj
 0001:00095e54       ?ResetTopLeft@CRealBuffer@@QEAAXXZ 0000000140096e54 f   RealBuffer.obj
 0001:00095e90       ?ScreenToBuffer@CRealBuffer@@QEAA?AU_COORD@@U2@@Z 0000000140096e90 f   RealBuffer.obj
 0001:00095ec8       ?SetBufferHeightMode@CRealBuffer@@QEAAX_N0@Z 0000000140096ec8 f   RealBuffer.obj
 0001:00095f10       ?SetChange2Size@CRealBuffer@@QEAAXHH@Z 0000000140096f10 f   RealBuffer.obj
 0001:00095f20       ?SetConsoleSize@CRealBuffer@@QEAA_NFFGK@Z 0000000140096f20 f   RealBuffer.obj
 0001:00096248       ?SetConsoleSizeSrv@CRealBuffer@@AEAA_NGGGK@Z 0000000140097248 f   RealBuffer.obj
 0001:00096bd0       ?SetKeybLayout@CRealBuffer@@QEAAX_K@Z 0000000140097bd0 f   RealBuffer.obj
 0001:00096bd8       ?SetRBtnDrag@CRealBuffer@@QEAAX_NPEBU_COORD@@@Z 0000000140097bd8 f   RealBuffer.obj
 0001:00096bf0       ?SetTopLeft@CRealBuffer@@IEAA_NHH_N0@Z 0000000140097bf0 f   RealBuffer.obj
 0001:00096d38       ?ShowKeyBarHint@CRealBuffer@@QEAAXG@Z 0000000140097d38 f   RealBuffer.obj
 0001:00096d70       ?StartSelection@CRealBuffer@@QEAAX_NFF0IPEAU_COORD@@K@Z 0000000140097d70 f   RealBuffer.obj
 0001:00097018       ?StoreLastTextRange@CRealBuffer@@AEAA_NW4ExpandTextRangeType@@@Z 0000000140098018 f   RealBuffer.obj
 0001:0009706c       ?StorePausedState@CRealBuffer@@QEAAXW4CEPauseCmd@@@Z 000000014009806c f   RealBuffer.obj
 0001:000970bc       ?SyncConsole2Window@CRealBuffer@@QEAAXFF@Z 00000001400980bc f   RealBuffer.obj
 0001:000971b4       ?TextAdd@CAnsiCopy@@MEAAXPEB_W_JKK_N22@Z 00000001400981b4 f i RealBuffer.obj
 0001:000972f8       ?TextAdd@CHtmlCopy@@MEAAXPEB_W_JKK_N22@Z 00000001400982f8 f i RealBuffer.obj
 0001:000975ec       ?TextHeight@CRealBuffer@@QEBAHXZ 00000001400985ec f   RealBuffer.obj
 0001:00097608       ?TextWidth@CRealBuffer@@QEBAHXZ 0000000140098608 f   RealBuffer.obj
 0001:00097624       ?Transact@?$MPipe@UCESERVER_REQ_HDR@@U1@@@QEAAHPEBUCESERVER_REQ_HDR@@KPEAPEBU2@@Z 0000000140098624 f i RealBuffer.obj
 0001:00097a50       ?UpdateSelection@CRealBuffer@@QEAAXXZ 0000000140098a50 f   RealBuffer.obj
 0001:00097a88       ?isConSelectMode@CRealBuffer@@QEAA_NXZ 0000000140098a88 f   RealBuffer.obj
 0001:00097acc       ?isConsoleDataChanged@CRealBuffer@@QEAA_NXZ 0000000140098acc f   RealBuffer.obj
 0001:00097adc       ?isCursorVisible@CRealBuffer@@QEAA_NXZ 0000000140098adc f   RealBuffer.obj
 0001:00097b24       ?isDataValid@CRealBuffer@@IEAA_NXZ 0000000140098b24 f   RealBuffer.obj
 0001:00097c04       ?isFarMenuOrMacro@CRealBuffer@@QEAA_NXZ 0000000140098c04 f   RealBuffer.obj
 0001:00097dd4       ?isInitialized@CRealBuffer@@QEAA_NXZ 0000000140098dd4 f   RealBuffer.obj
 0001:00097df8       ?isLeftPanel@CRealBuffer@@QEAA_NXZ 0000000140098df8 f   RealBuffer.obj
 0001:00097dfc       ?isMouseClickExtension@CRealBuffer@@QEAA_NXZ 0000000140098dfc f   RealBuffer.obj
 0001:00097e4c       ?isMouseInsideSelection@CRealBuffer@@QEAA_NHH@Z 0000000140098e4c f   RealBuffer.obj
 0001:00097f60       ?isMouseSelectionPresent@CRealBuffer@@QEAA_NXZ 0000000140098f60 f   RealBuffer.obj
 0001:00097f74       ?isPaused@CRealBuffer@@QEAA_NXZ 0000000140098f74 f   RealBuffer.obj
 0001:00097f88       ?isRightPanel@CRealBuffer@@QEAA_NXZ 0000000140098f88 f   RealBuffer.obj
 0001:00097f8c       ?isScroll@CRealBuffer@@QEAA_NW4RealBufferScroll@@@Z 0000000140098f8c f   RealBuffer.obj
 0001:00097f94       ?isSelectionAllowed@CRealBuffer@@QEAA_NXZ 0000000140098f94 f   RealBuffer.obj
 0001:00098138       ?isSelectionPresent@CRealBuffer@@QEAA_NXZ 0000000140099138 f   RealBuffer.obj
 0001:0009814c       ?isStreamSelection@CRealBuffer@@QEAA_NXZ 000000014009914c f   RealBuffer.obj
 0001:00098160       ??$SafeDelete@UTermX@@@@YAXAEAPEAUTermX@@@Z 0000000140099160 f i RealConsole.obj
 0001:00098190       ??$SafeDelete@VCProcessData@@@@YAXAEAPEAVCProcessData@@@Z 0000000140099190 f i RealConsole.obj
 0001:00098208       ??$SafeDelete@VCTab@@@@YAXAEAPEAVCTab@@@Z 0000000140099208 f i RealConsole.obj
 0001:00098250       ??$ltow_s@$0BE@@@YAPEB_WHAEAY0BE@_WH@Z 0000000140099250 f i RealConsole.obj
 0001:0009827c       ??$sprintf_c@$0MA@@@YAHAEAY0MA@DPEBDZZ 000000014009927c f i RealConsole.obj
 0001:000982a8       ??$swprintf_c@$04@@YAHAEAY04_WPEB_WZZ 00000001400992a8 f i RealConsole.obj
 0001:000982d4       ??$swprintf_c@$07@@YAHAEAY07_WPEB_WZZ 00000001400992d4 f i RealConsole.obj
 0001:00098300       ??$swprintf_c@$0BAD@@@YAHAEAY0BAD@_WPEB_WZZ 0000000140099300 f i RealConsole.obj
 0001:0009832c       ??$swprintf_c@$0BGI@@@YAHAEAY0BGI@_WPEB_WZZ 000000014009932c f i RealConsole.obj
 0001:00098358       ??$swprintf_c@$0BO@@@YAHAEAY0BO@_WPEB_WZZ 0000000140099358 f i RealConsole.obj
 0001:00098384       ??$ultow_s@$0DAM@@@YAPEB_WIAEAY0DAM@_WH@Z 0000000140099384 f i RealConsole.obj
 0001:000983b0       ??$ultow_s@$0EBA@@@YAPEB_WIAEAY0EBA@_WH@Z 00000001400993b0 f i RealConsole.obj
 0001:000983dc       ??$xf_interlocked_new@UTermX@@@@YAPEAUTermX@@AEAPEAU0@$$QEAPEAU0@@Z 00000001400993dc f i RealConsole.obj
 0001:00098410       ??0?$MPipe@UCESERVER_REQ_HDR@@U1@@@QEAA@XZ 0000000140099410 f i RealConsole.obj
 0001:00098518       ??0CConHostSearch@CRealConsole@@QEAA@XZ 0000000140099518 f   RealConsole.obj
 0001:0009859c       ??0CRealConsole@@QEAA@PEAVCVirtualConsole@@PEAVCConEmuMain@@@Z 000000014009959c f   RealConsole.obj
 0001:000987c0       ??1?$CRefGuard@VCConHostSearch@CRealConsole@@@@UEAA@XZ 00000001400997c0 f i RealConsole.obj
 0001:00098818       ??1?$MPipe@UCESERVER_REQ_HDR@@U1@@@UEAA@XZ 0000000140099818 f i RealConsole.obj
 0001:00098868       ??1CRealConsole@@QEAA@XZ   0000000140099868 f   RealConsole.obj
 0001:00098f0c       ??1CStartEnvTitle@@UEAA@XZ 0000000140099f0c f i RealConsole.obj
 0001:00098f18       ??1_TabsInfo@CRealConsole@@QEAA@XZ 0000000140099f18 f i RealConsole.obj
 0001:00098f20       ??_G?$CRefGuard@VCConHostSearch@CRealConsole@@@@UEAAPEAXI@Z 0000000140099f20 f i RealConsole.obj
 0001:00098f20       ??_E?$CRefGuard@VCConHostSearch@CRealConsole@@@@UEAAPEAXI@Z 0000000140099f20 f i RealConsole.obj
 0001:00098f98       ??_E?$MPipe@UCESERVER_REQ_HDR@@U1@@@UEAAPEAXI@Z 0000000140099f98 f i RealConsole.obj
 0001:00098f98       ??_G?$MPipe@UCESERVER_REQ_HDR@@U1@@@UEAAPEAXI@Z 0000000140099f98 f i RealConsole.obj
 0001:00099008       ??_GCConHostSearch@CRealConsole@@UEAAPEAXI@Z 000000014009a008 f i RealConsole.obj
 0001:00099008       ??_ECConHostSearch@CRealConsole@@UEAAPEAXI@Z 000000014009a008 f i RealConsole.obj
 0001:00099088       ??_ECStartEnvBase@@UEAAPEAXI@Z 000000014009a088 f i RealConsole.obj
 0001:00099088       ??_GCStartEnvBase@@UEAAPEAXI@Z 000000014009a088 f i RealConsole.obj
 0001:000990b4       ?ActivateFarWindow@CRealConsole@@QEAA_NH@Z 000000014009a0b4 f   RealConsole.obj
 0001:00099394       ?AddIndicatorsCtrlState@CRealConsole@@QEAAXAEAK@Z 000000014009a394 f   RealConsole.obj
 0001:000993dc       ?AddModifiersCtrlState@CRealConsole@@QEAAXAEAK@Z 000000014009a3dc f   RealConsole.obj
 0001:00099458       ?AdminDuplicate@CRealConsole@@QEAAXXZ 000000014009a458 f   RealConsole.obj
 0001:00099480       ?AttachConemuC@CRealConsole@@QEAA_NPEAUHWND__@@KPEBUCESERVER_REQ_STARTSTOP@@AEAUCESERVER_REQ_SRVSTARTSTOPRET@@@Z 000000014009a480 f   RealConsole.obj
 0001:000996e0       ?AutoCopyTimer@CRealConsole@@QEAAXXZ 000000014009a6e0 f   RealConsole.obj
 0001:00099750       ?BufferToScreen@CRealConsole@@QEAA?AU_COORD@@U2@_N1@Z 000000014009a750 f   RealConsole.obj
 0001:00099780       ?CanActivateFarWindow@CRealConsole@@QEAAKH@Z 000000014009a780 f   RealConsole.obj
 0001:00099940       ?CanCloseTab@CRealConsole@@QEAA_N_N@Z 000000014009a940 f   RealConsole.obj
 0001:00099964       ?CanCutChildFrame@CRealConsole@@SA_NPEB_W@Z 000000014009a964 f   RealConsole.obj
 0001:000999b4       ?ChangeAffinityPriority@CRealConsole@@QEAA_NPEB_W0@Z 000000014009a9b4 f   RealConsole.obj
 0001:00099bc4       ?ChangeBufferHeightMode@CRealConsole@@QEAAX_N@Z 000000014009abc4 f   RealConsole.obj
 0001:00099be0       ?ChangePromptPosition@CRealConsole@@AEAA_NPEBUAppSettings@@U_COORD@@@Z 000000014009abe0 f   RealConsole.obj
 0001:00099d2c       ?ChangeSelectionByKey@CRealConsole@@QEAAXI_N0@Z 000000014009ad2c f   RealConsole.obj
 0001:00099d38       ?CheckFarStates@CRealConsole@@AEAAXXZ 000000014009ad38 f   RealConsole.obj
 0001:00099f74       ?CheckPanelTitle@CRealConsole@@AEAAXXZ 000000014009af74 f   RealConsole.obj
 0001:0009a010       ?CheckProgressInTitle@CRealConsole@@IEAAFXZ 000000014009b010 f   RealConsole.obj
 0001:0009a20c       ?CheckVConRConPointer@CRealConsole@@AEAAX_N@Z 000000014009b20c f   RealConsole.obj
 0001:0009a2c4       ?ChildSystemMenu@CRealConsole@@QEAAXXZ 000000014009b2c4 f   RealConsole.obj
 0001:0009a3a8       ?CloseColorMapping@CRealConsole@@AEAAXXZ 000000014009b3a8 f   RealConsole.obj
 0001:0009a430       ?CloseConsole@CRealConsole@@QEAAX_N00@Z 000000014009b430 f   RealConsole.obj
 0001:0009a694       ?CloseConsoleWindow@CRealConsole@@QEAAX_N@Z 000000014009b694 f   RealConsole.obj
 0001:0009a714       ?CloseFarMapData@CRealConsole@@AEAAXPEAVMSectionLock@@@Z 000000014009b714 f   RealConsole.obj
 0001:0009a7e0       ?CloseMapHeader@CRealConsole@@AEAAXXZ 000000014009b7e0 f   RealConsole.obj
 0001:0009a8f0       ?CloseTab@CRealConsole@@QEAAXXZ 000000014009b8f0 f   RealConsole.obj
 0001:0009ab08       ?ConHostSearch@CRealConsole@@IEAAK_N@Z 000000014009bb08 f   RealConsole.obj
 0001:0009ae18       ?ConHostSearchPrepare@CRealConsole@@IEAAXXZ 000000014009be18 f   RealConsole.obj
 0001:0009afc4       ?ConWnd@CRealConsole@@QEAAPEAUHWND__@@XZ 000000014009bfc4 f   RealConsole.obj
 0001:0009afd4       ?Construct@CRealConsole@@QEAA_NPEAVCVirtualConsole@@PEAURConStartArgsEx@@@Z 000000014009bfd4 f   RealConsole.obj
 0001:0009b7dc       ?CoordInPanel@CRealConsole@@QEAAHU_COORD@@_N@Z 000000014009c7dc f   RealConsole.obj
 0001:0009b8a4       ?CorrectGuiChildRect@CRealConsole@@SAXKKAEAUtagRECT@@PEB_W@Z 000000014009c8a4 f   RealConsole.obj
 0001:0009b9e0       ?CreateColorMapping@CRealConsole@@AEAAXXZ 000000014009c9e0 f   RealConsole.obj
 0001:0009bb24       ?CreateCommandLine@CRealConsole@@QEAAPEA_W_N@Z 000000014009cb24 f   RealConsole.obj
 0001:0009bc64       ?CreateLogFiles@CRealConsole@@AEAAXXZ 000000014009cc64 f   RealConsole.obj
 0001:0009be04       ?CreateOrRunAs@CRealConsole@@KA_NPEAV1@AEAURConStartArgsEx@@PEA_WAEAPEB_WAEAU_STARTUPINFOW@@AEAU_PROCESS_INFORMATION@@AEAPEAU_SHELLEXECUTEINFOW@@AEAK_N@Z 000000014009ce04 f   RealConsole.obj
 0001:0009c464       ?CtrlWinAltSpace@CRealConsole@@QEAAXXZ 000000014009d464 f   RealConsole.obj
 0001:0009c4c4       ?DeleteWordKeyPress@CRealConsole@@QEAA_N_N@Z 000000014009d4c4 f   RealConsole.obj
 0001:0009c674       ?DetachRCon@CRealConsole@@QEAA_N_N00@Z 000000014009d674 f   RealConsole.obj
 0001:0009ca8c       ?DoEndFindText@CRealConsole@@QEAAXXZ 000000014009da8c f   RealConsole.obj
 0001:0009cb30       ?DoFindText@CRealConsole@@QEAAXH@Z 000000014009db30 f   RealConsole.obj
 0001:0009cc08       ?DoLockUnlock@CRealConsole@@QEAAX_N@Z 000000014009dc08 f   RealConsole.obj
 0001:0009cdec       ?DoRenameTab@CRealConsole@@QEAAXXZ 000000014009ddec f   RealConsole.obj
 0001:0009ce5c       ?DoScroll@CRealConsole@@QEAA_JHI@Z 000000014009de5c f   RealConsole.obj
 0001:0009d124       ?DoSelectionCopy@CRealConsole@@QEAA_NW4CECopyMode@@EPEB_W@Z 000000014009e124 f   RealConsole.obj
 0001:0009d2ec       ?DoSelectionStop@CRealConsole@@QEAAXXZ 000000014009e2ec f   RealConsole.obj
 0001:0009d2f8       ?DumpConsole@CRealConsole@@QEAAXPEAX@Z 000000014009e2f8 f   RealConsole.obj
 0001:0009d304       ?DuplicateRoot@CRealConsole@@QEAA_N_N0PEB_W11@Z 000000014009e304 f   RealConsole.obj
 0001:0009db98       ?EvalPromptCtrlBSCount@CRealConsole@@AEAAHPEBUAppSettings@@@Z 000000014009eb98 f   RealConsole.obj
 0001:0009ddf0       ?EvalPromptLeftRightCount@CRealConsole@@AEAAHPEBUAppSettings@@U_COORD@@AEAG@Z 000000014009edf0 f   RealConsole.obj
 0001:0009e2b4       ?ExpandSelection@CRealConsole@@QEAAXFF@Z 000000014009f2b4 f   RealConsole.obj
 0001:0009e300       ?FinalRelease@CConHostSearch@CRealConsole@@MEAAXXZ 000000014009f300 f   RealConsole.obj
 0001:0009e33c       ?FindChildGuiWindowProc@CRealConsole@@CAHPEAUHWND__@@_J@Z 000000014009f33c f   RealConsole.obj
 0001:0009e388       ?FindPicViewFrom@CRealConsole@@AEAAPEAUHWND__@@PEAU2@@Z 000000014009f388 f   RealConsole.obj
 0001:0009e3fc       ?GetActivateFarWindowError@CRealConsole@@QEAAPEB_WPEA_W_K@Z 000000014009f3fc f   RealConsole.obj
 0001:0009e4a4       ?GetActiveAppSettingsId@CRealConsole@@QEAAH_N@Z 000000014009f4a4 f   RealConsole.obj
 0001:0009e58c       ?GetActiveBufferType@CRealConsole@@QEAA?AW4RealBufferType@@XZ 000000014009f58c f   RealConsole.obj
 0001:0009e5a4       ?GetActiveDlgFlags@CRealConsole@@QEAAKXZ 000000014009f5a4 f   RealConsole.obj
 0001:0009e5d4       ?GetActivePID@CRealConsole@@QEAAKPEAUConProcess@@@Z 000000014009f5d4 f   RealConsole.obj
 0001:0009e630       ?GetActiveProcessInfo@CRealConsole@@QEAAPEB_WAEAUCEStr@@@Z 000000014009f630 f   RealConsole.obj
 0001:0009e8a4       ?GetActiveProcessName@CRealConsole@@QEAAPEB_WXZ 000000014009f8a4 f   RealConsole.obj
 0001:0009e8c0       ?GetActiveTab@CRealConsole@@QEAAHXZ 000000014009f8c0 f   RealConsole.obj
 0001:0009e8d0       ?GetActiveTabType@CRealConsole@@QEAAIXZ 000000014009f8d0 f   RealConsole.obj
 0001:0009e8d8       ?GetAnsiLogInfo@CRealConsole@@QEAA?AUConEmuAnsiLog@@XZ 000000014009f8d8 f   RealConsole.obj
 0001:0009e970       ?GetAppCursorKeys@CRealConsole@@QEAA_NXZ 000000014009f970 f   RealConsole.obj
 0001:0009e98c       ?GetArgs@CRealConsole@@QEAAAEBURConStartArgsEx@@XZ 000000014009f98c f   RealConsole.obj
 0001:0009e994       ?GetBracketedPaste@CRealConsole@@QEAA_NXZ 000000014009f994 f   RealConsole.obj
 0001:0009e9a8       ?GetCmd@CRealConsole@@QEAAPEB_W_N@Z 000000014009f9a8 f   RealConsole.obj
 0001:0009e9e0       ?GetConStatus@CRealConsole@@QEAAPEB_WXZ 000000014009f9e0 f   RealConsole.obj
 0001:0009e9f8       ?GetConsoleCP@CRealConsole@@QEAAKXZ 000000014009f9f8 f   RealConsole.obj
 0001:0009ea04       ?GetConsoleCurDir@CRealConsole@@QEAAPEB_WAEAUCEStr@@_N@Z 000000014009fa04 f   RealConsole.obj
 0001:0009eb28       ?GetConsoleCursorInfo@CRealConsole@@QEAAXPEAU_CONSOLE_CURSOR_INFO@@PEAU_COORD@@@Z 000000014009fb28 f   RealConsole.obj
 0001:0009eb70       ?GetConsoleData@CRealConsole@@QEAAXPEA_WPEAUtag_CharAttr@@HHAEAUConEmuTextRange@@@Z 000000014009fb70 f   RealConsole.obj
 0001:0009ebac       ?GetConsoleInfo@CRealConsole@@QEAAPEB_WPEB_WAEAUCEStr@@@Z 000000014009fbac f   RealConsole.obj
 0001:0009ef10       ?GetConsoleInfo@CRealConsole@@QEAAXPEAUConsoleInfoArg@@@Z 000000014009ff10 f   RealConsole.obj
 0001:0009ef58       ?GetConsoleOutputCP@CRealConsole@@QEAAKXZ 000000014009ff58 f   RealConsole.obj
 0001:0009ef64       ?GetConsoleScreenBufferInfo@CRealConsole@@QEAAXPEAU_CONSOLE_SCREEN_BUFFER_INFO@@@Z 000000014009ff64 f   RealConsole.obj
 0001:0009ef84       ?GetConsoleStartDir@CRealConsole@@QEAAPEB_WAEAUCEStr@@@Z 000000014009ff84 f   RealConsole.obj
 0001:0009efdc       ?GetCursorShape@CRealConsole@@QEAA?AW4TermCursorShapes@@XZ 000000014009ffdc f   RealConsole.obj
 0001:0009efec       ?GetDefaultAppSettingsId@CRealConsole@@AEAAHXZ 000000014009ffec f   RealConsole.obj
 0001:0009f2d4       ?GetDetector@CRealConsole@@QEAAPEBVCRgnDetect@@XZ 00000001400a02d4 f   RealConsole.obj
 0001:0009f2e8       ?GetFarInfo@CRealConsole@@QEAAPEBUCEFAR_INFO_MAPPING@@XZ 00000001400a02e8 f   RealConsole.obj
 0001:0009f2fc       ?GetFarPID@CRealConsole@@QEAAK_N@Z 00000001400a02fc f   RealConsole.obj
 0001:0009f334       ?GetFarStatus@CRealConsole@@QEAAKXZ 00000001400a0334 f   RealConsole.obj
 0001:0009f34c       ?GetFarVersion@CRealConsole@@QEAA_NPEAUFarVersion@@@Z 00000001400a034c f   RealConsole.obj
 0001:0009f3b0       ?GetFileFromConsole@CRealConsole@@QEAAPEB_WPEB_WAEAUCEStr@@@Z 00000001400a03b0 f   RealConsole.obj
 0001:0009f47c       ?GetInteractivePID@CRealConsole@@QEAAKXZ 00000001400a047c f   RealConsole.obj
 0001:0009f4bc       ?GetLastTextRangeType@CRealConsole@@QEAA?AW4ExpandTextRangeType@@XZ 00000001400a04bc f   RealConsole.obj
 0001:0009f4c8       ?GetLoadedPID@CRealConsole@@QEAAKXZ 00000001400a04c8 f   RealConsole.obj
 0001:0009f55c       ?GetMaxConSize@CRealConsole@@QEAA_NPEAU_COORD@@@Z 00000001400a055c f   RealConsole.obj
 0001:0009f578       ?GetMntPrefix@CRealConsole@@QEAAPEB_WXZ 00000001400a0578 f   RealConsole.obj
 0001:0009f628       ?GetModifiedEditors@CRealConsole@@QEAAHXZ 00000001400a0628 f   RealConsole.obj
 0001:0009f698       ?GetMonitorThreadID@CRealConsole@@QEAAKXZ 00000001400a0698 f   RealConsole.obj
 0001:0009f6a8       ?GetPanelDirs@CRealConsole@@QEAAXAEAUCEStr@@0@Z 00000001400a06a8 f   RealConsole.obj
 0001:0009f738       ?GetPanelRect@CRealConsole@@QEAA_N_NPEAUtagRECT@@00@Z 00000001400a0738 f   RealConsole.obj
 0001:0009f788       ?GetPanelTitle@CRealConsole@@QEAAPEB_WXZ 00000001400a0788 f   RealConsole.obj
 0001:0009f7c4       ?GetProcessInformation@CRealConsole@@QEAA_NKPEAUConProcess@@@Z 00000001400a07c4 f   RealConsole.obj
 0001:0009f950       ?GetProcesses@CRealConsole@@QEAAHPEAPEAUConProcess@@_N@Z 00000001400a0950 f   RealConsole.obj
 0001:0009fc50       ?GetProgramStatus@CRealConsole@@QEAAKXZ 00000001400a0c50 f   RealConsole.obj
 0001:0009fc60       ?GetProgress@CRealConsole@@QEAAFPEAHPEA_N@Z 00000001400a0c60 f   RealConsole.obj
 0001:0009fcec       ?GetRootProcessIcon@CRealConsole@@QEAAHXZ 00000001400a0cec f   RealConsole.obj
 0001:0009fd0c       ?GetRootProcessName@CRealConsole@@QEAAPEB_WXZ 00000001400a0d0c f   RealConsole.obj
 0001:0009fd24       ?GetRunTime@CRealConsole@@AEAAKXZ 00000001400a0d24 f   RealConsole.obj
 0001:0009fd58       ?GetRunningPID@CRealConsole@@QEAAKXZ 00000001400a0d58 f   RealConsole.obj
 0001:0009fe9c       ?GetServerPID@CRealConsole@@QEAAK_N@Z 00000001400a0e9c f   RealConsole.obj
 0001:0009febc       ?GetStartupDir@CRealConsole@@QEAAPEB_WXZ 00000001400a0ebc f   RealConsole.obj
 0001:0009feec       ?GetStatusLineCount@CRealConsole@@QEAAHH@Z 00000001400a0eec f   RealConsole.obj
 0001:0009ff20       ?GetTab@CRealConsole@@QEAA_NHAEAVCTab@@@Z 00000001400a0f20 f   RealConsole.obj
 0001:000a0014       ?GetTabCount@CRealConsole@@QEAAH_N@Z 00000001400a1014 f   RealConsole.obj
 0001:000a0050       ?GetTabTitle@CRealConsole@@QEAAPEB_WAEAVCTab@@@Z 00000001400a1050 f   RealConsole.obj
 0001:000a00c8       ?GetTermType@CRealConsole@@QEAA?AW4TermEmulationType@@XZ 00000001400a10c8 f   RealConsole.obj
 0001:000a0134       ?GetTerminalPID@CRealConsole@@QEAAKXZ 00000001400a1134 f   RealConsole.obj
 0001:000a0144       ?GetTitle@CRealConsole@@QEAAPEB_W_N@Z 00000001400a1144 f   RealConsole.obj
 0001:000a0294       ?GetUserPwd@CRealConsole@@QEAA_NPEAPEB_W0PEA_N@Z 00000001400a1294 f   RealConsole.obj
 0001:000a02c8       ?GetView@CRealConsole@@QEAAPEAUHWND__@@XZ 00000001400a12c8 f   RealConsole.obj
 0001:000a02dc       ?GuiAppAttachAllowed@CRealConsole@@QEAA_NKPEB_WK@Z 00000001400a12dc f   RealConsole.obj
 0001:000a05a0       ?GuiNotifyChildWindow@CRealConsole@@QEAAXXZ 00000001400a15a0 f   RealConsole.obj
 0001:000a06dc       ?GuiWnd@CRealConsole@@QEAAPEAUHWND__@@XZ 00000001400a16dc f   RealConsole.obj
 0001:000a06f4       ?GuiWndFocusRestore@CRealConsole@@QEAAX_N@Z 00000001400a16f4 f   RealConsole.obj
 0001:000a0870       ?GuiWndFocusStore@CRealConsole@@QEAAXXZ 00000001400a1870 f   RealConsole.obj
 0001:000a09b8       ?GuiWndFocusThread@CRealConsole@@AEAAXPEAUHWND__@@AEAH1AEAK@Z 00000001400a19b8 f   RealConsole.obj
 0001:000a0a6c       ?GuiWndPID@CRealConsole@@QEAAKXZ 00000001400a1a6c f   RealConsole.obj
 0001:000a0a80       ?InCreateRoot@CRealConsole@@QEAA_NXZ 00000001400a1a80 f   RealConsole.obj
 0001:000a0a9c       ?InScroll@CRealConsole@@QEAA_NXZ 00000001400a1a9c f   RealConsole.obj
 0001:000a0ad4       ?InitAltServer@CRealConsole@@IEAA_NK@Z 00000001400a1ad4 f   RealConsole.obj
 0001:000a0c34       ?InitNames@CRealConsole@@IEAAXXZ 00000001400a1c34 f   RealConsole.obj
 0001:000a0d58       ?InitiateDetach@CRealConsole@@AEAAKXZ 00000001400a1d58 f   RealConsole.obj
 0001:000a0e24       ?InternalOpenCreate@?$MFileMapping@$$CBUCEFAR_INFO_MAPPING@@@@IEAAPEBUCEFAR_INFO_MAPPING@@HHH@Z 00000001400a1e24 f i RealConsole.obj
 0001:000a0fd8       ?InternalOpenCreate@?$MFileMapping@UAnnotationHeader@@@@IEAAPEAUAnnotationHeader@@HHH@Z 00000001400a1fd8 f i RealConsole.obj
 0001:000a118c       ?InternalOpenCreate@?$MFileMapping@UCESERVER_CONSOLE_APP_MAPPING@@@@IEAAPEAUCESERVER_CONSOLE_APP_MAPPING@@HHH@Z 00000001400a218c f i RealConsole.obj
 0001:000a1340       ?InternalOpenCreate@?$MFileMapping@UCESERVER_CONSOLE_MAPPING_HDR@@@@IEAAPEAUCESERVER_CONSOLE_MAPPING_HDR@@HHH@Z 00000001400a2340 f i RealConsole.obj
 0001:000a14f4       ?IsConsoleDataChanged@CRealConsole@@QEAA_NXZ 00000001400a24f4 f   RealConsole.obj
 0001:000a1528       ?IsFarHyperlinkAllowed@CRealConsole@@QEAA_N_N@Z 00000001400a2528 f   RealConsole.obj
 0001:000a15f8       ?IsFarLua@CRealConsole@@QEAA_NXZ 00000001400a25f8 f   RealConsole.obj
 0001:000a1634       ?IsPromptActionAllowed@CRealConsole@@AEAA_N_NPEBUAppSettings@@@Z 00000001400a2634 f   RealConsole.obj
 0001:000a16e0       ?IsSwitchFarWindowAllowed@CRealConsole@@QEAA_NXZ 00000001400a26e0 f   RealConsole.obj
 0001:000a172c       ?LoadAlternativeConsole@CRealConsole@@AEAA_NW4LoadAltMode@@@Z 00000001400a272c f   RealConsole.obj
 0001:000a17c8       ?LoadDumpConsole@CRealConsole@@QEAA_NPEB_W@Z 00000001400a27c8 f   RealConsole.obj
 0001:000a1864       ?LogInput@CRealConsole@@AEAA_NPEAU_INPUT_RECORD@@@Z 00000001400a2864 f   RealConsole.obj
 0001:000a1c20       ?LogInput@CRealConsole@@QEAA_NI_K_JPEB_W@Z 00000001400a2c20 f   RealConsole.obj
 0001:000a1f3c       ?LogString@CRealConsole@@QEAA_NPEBD@Z 00000001400a2f3c f   RealConsole.obj
 0001:000a1fdc       ?LogString@CRealConsole@@QEAA_NPEB_W@Z 00000001400a2fdc f   RealConsole.obj
 0001:000a2080       ?MonitorAssertTrap@CRealConsole@@QEAAXXZ 00000001400a3080 f   RealConsole.obj
 0001:000a2098       ?MonitorThread@CRealConsole@@KAKPEAX@Z 00000001400a3098 f   RealConsole.obj
 0001:000a22d0       ?MonitorThreadWorker@CRealConsole@@IEAAK_NAEA_N@Z 00000001400a32d0 f   RealConsole.obj
 0001:000a3000       ?NeedRefreshRootProcessIcon@CRealConsole@@QEAAXXZ 00000001400a4000 f   RealConsole.obj
 0001:000a300c       ?OnActivate@CRealConsole@@QEAAXHH@Z 00000001400a400c f   RealConsole.obj
 0001:000a3284       ?OnBufferHeight@CRealConsole@@QEAAXXZ 00000001400a4284 f   RealConsole.obj
 0001:000a3290       ?OnConsoleDataChanged@CRealConsole@@QEAAXXZ 00000001400a4290 f   RealConsole.obj
 0001:000a3350       ?OnConsoleKeyboardLayout@CRealConsole@@QEAAXK@Z 00000001400a4350 f   RealConsole.obj
 0001:000a3374       ?OnConsoleLangChange@CRealConsole@@QEAAX_K@Z 00000001400a4374 f   RealConsole.obj
 0001:000a3458       ?OnDeactivate@CRealConsole@@QEAAXH@Z 00000001400a4458 f   RealConsole.obj
 0001:000a34dc       ?OnDosAppStartStop@CRealConsole@@QEAAXW4StartStopType@@K@Z 00000001400a44dc f   RealConsole.obj
 0001:000a3578       ?OnFocus@CRealConsole@@QEAAX_N@Z 00000001400a4578 f   RealConsole.obj
 0001:000a3608       ?OnGuiFocused@CRealConsole@@QEAAX_N0@Z 00000001400a4608 f   RealConsole.obj
 0001:000a36f4       ?OnKeyboard@CRealConsole@@QEAAXPEAUHWND__@@I_K_JPEB_WPEBUtagMSG@@@Z 00000001400a46f4 f   RealConsole.obj
 0001:000a3840       ?OnKeyboardBackCall@CRealConsole@@CA_NPEAVCVirtualConsole@@_J@Z 00000001400a4840 f   RealConsole.obj
 0001:000a3884       ?OnKeyboardIme@CRealConsole@@QEAAXPEAUHWND__@@I_K_J@Z 00000001400a4884 f   RealConsole.obj
 0001:000a3a9c       ?OnKeyboardInt@CRealConsole@@AEAAXPEAUHWND__@@I_K_JPEB_WPEBUtagMSG@@@Z 00000001400a4a9c f   RealConsole.obj
 0001:000a3e04       ?OnMouse@CRealConsole@@QEAA_NI_KHH_N@Z 00000001400a4e04 f   RealConsole.obj
 0001:000a4198       ?OnMouseSelection@CRealConsole@@QEAA_NI_KHH@Z 00000001400a5198 f   RealConsole.obj
 0001:000a4218       ?OnScroll@CRealConsole@@QEAAXI_KHH_N@Z 00000001400a5218 f   RealConsole.obj
 0001:000a4314       ?OnSelectionChanged@CRealConsole@@QEAAXXZ 00000001400a5314 f   RealConsole.obj
 0001:000a44c8       ?OnServerClosing@CRealConsole@@QEAAXKPEAH@Z 00000001400a54c8 f   RealConsole.obj
 0001:000a4610       ?OnServerStarted@CRealConsole@@AEAAXKPEAXK_N@Z 00000001400a5610 f   RealConsole.obj
 0001:000a46ac       ?OnServerStarted@CRealConsole@@QEAAPEAUHWND__@@QEAU2@KKAEAUCESERVER_REQ_SRVSTARTSTOPRET@@@Z 00000001400a56ac f   RealConsole.obj
 0001:000a4770       ?OnStartProcessAllowed@CRealConsole@@QEAAXXZ 00000001400a5770 f   RealConsole.obj
 0001:000a4840       ?OnTimerCheck@CRealConsole@@QEAAXXZ 00000001400a5840 f   RealConsole.obj
 0001:000a4934       ?OnTitleChanged@CRealConsole@@AEAAXXZ 00000001400a5934 f   RealConsole.obj
 0001:000a4cd0       ?OpenConsoleEventPipe@CRealConsole@@QEAA_NXZ 00000001400a5cd0 f   RealConsole.obj
 0001:000a4eb4       ?OpenFarMapData@CRealConsole@@AEAA_NXZ 00000001400a5eb4 f   RealConsole.obj
 0001:000a50d4       ?OpenMapHeader@CRealConsole@@AEAA_N_N@Z 00000001400a60d4 f   RealConsole.obj
 0001:000a524c       ?Owner@CRealConsole@@QEAAPEAVCConEmuMain@@XZ 00000001400a624c f   RealConsole.obj
 0001:000a5258       ?Paste@CRealConsole@@QEAAXW4CEPasteMode@@PEB_W_NE@Z 00000001400a6258 f   RealConsole.obj
 0001:000a57a0       ?PasteExplorerPath@CRealConsole@@QEAAX_N0@Z 00000001400a67a0 f   RealConsole.obj
 0001:000a5854       ?Pause@CRealConsole@@QEAA?AW4CEPauseCmd@@W42@@Z 00000001400a6854 f   RealConsole.obj
 0001:000a5960       ?PortableStarted@CRealConsole@@QEAAXPEAUCESERVER_REQ_PORTABLESTARTED@@@Z 00000001400a6960 f   RealConsole.obj
 0001:000a5a9c       ?PostCommand@CRealConsole@@AEAAXKKPEBX@Z 00000001400a6a9c f   RealConsole.obj
 0001:000a5bac       ?PostConsoleEvent@CRealConsole@@QEAA_NPEAU_INPUT_RECORD@@_N@Z 00000001400a6bac f   RealConsole.obj
 0001:000a5e00       ?PostConsoleEventPipe@CRealConsole@@QEAA_NPEAUMSG64@@_K@Z 00000001400a6e00 f   RealConsole.obj
 0001:000a5f3c       ?PostConsoleMessage@CRealConsole@@QEAA_NPEAUHWND__@@I_K_J@Z 00000001400a6f3c f   RealConsole.obj
 0001:000a60a0       ?PostCtrlBreakEvent@CRealConsole@@QEAA_NKK@Z 00000001400a70a0 f   RealConsole.obj
 0001:000a6170       ?PostDragCopy@CRealConsole@@QEAAX_N@Z 00000001400a7170 f   RealConsole.obj
 0001:000a6298       ?PostKeyPress@CRealConsole@@QEAA_NGK_WH@Z 00000001400a7298 f   RealConsole.obj
 0001:000a63ac       ?PostKeyUp@CRealConsole@@QEAA_NGK_WH@Z 00000001400a73ac f   RealConsole.obj
 0001:000a6480       ?PostLeftClickSync@CRealConsole@@QEAA_NU_COORD@@@Z 00000001400a7480 f   RealConsole.obj
 0001:000a65e0       ?PostMacro@CRealConsole@@QEAAXPEB_W_N@Z 00000001400a75e0 f   RealConsole.obj
 0001:000a6b4c       ?PostMacroThread@CRealConsole@@CAKPEAX@Z 00000001400a7b4c f   RealConsole.obj
 0001:000a6c84       ?PostMouseEvent@CRealConsole@@AEAAXI_KU_COORD@@_N@Z 00000001400a7c84 f   RealConsole.obj
 0001:000a7234       ?PostPromptCmd@CRealConsole@@QEAA_N_NPEB_W@Z 00000001400a8234 f   RealConsole.obj
 0001:000a7660       ?PostString@CRealConsole@@IEAA_NPEA_W_K_N@Z 00000001400a8660 f   RealConsole.obj
 0001:000a7ab8       ?PostponeMacro@CRealConsole@@QEAAPEA_W$$QEAPEA_W@Z 00000001400a8ab8 f   RealConsole.obj
 0001:000a7b14       ?PreCreate@CRealConsole@@AEAA_NPEAURConStartArgsEx@@@Z 00000001400a8b14 f   RealConsole.obj
 0001:000a7df4       ?PrepareConsoleRegistryKey@CRealConsole@@AEAAPEAUHKEY__@@PEB_W@Z 00000001400a8df4 f   RealConsole.obj
 0001:000a81a4       ?PrepareDefaultColors@CRealConsole@@AEAAXAEAE000_NPEAUHKEY__@@@Z 00000001400a91a4 f   RealConsole.obj
 0001:000a8500       ?PrepareDefaultColors@CRealConsole@@QEAAXXZ 00000001400a9500 f   RealConsole.obj
 0001:000a8530       ?PrepareNewConArgs@CRealConsole@@AEAAXXZ 00000001400a9530 f   RealConsole.obj
 0001:000a8564       ?PrepareOutputFile@CRealConsole@@AEAA_N_NPEA_W@Z 00000001400a9564 f   RealConsole.obj
 0001:000a89ec       ?PrepareOutputFileCreate@CRealConsole@@AEAAPEAXPEA_W@Z 00000001400a99ec f   RealConsole.obj
 0001:000a8aa8       ?ProcessCheckName@CRealConsole@@AEAAXAEAUConProcess@@PEA_W@Z 00000001400a9aa8 f   RealConsole.obj
 0001:000a8ca0       ?ProcessKeyboard@CRealConsole@@QEAAXI_K_JPEB_W@Z 00000001400a9ca0 f   RealConsole.obj
 0001:000a8e14       ?ProcessPostponedMacro@CRealConsole@@AEAAXXZ 00000001400a9e14 f   RealConsole.obj
 0001:000a8e94       ?ProcessSelectionHotKey@CRealConsole@@QEAAPEBUConEmuHotKey@@AEBUConEmuChord@@_NPEB_W@Z 00000001400a9e94 f   RealConsole.obj
 0001:000a8ef8       ?ProcessUpdate@CRealConsole@@AEAA_NPEBKI@Z 00000001400a9ef8 f   RealConsole.obj
 0001:000a9688       ?ProcessUpdateFlags@CRealConsole@@AEAA_N_N@Z 00000001400aa688 f   RealConsole.obj
 0001:000a9b38       ?ProcessXtermSubst@CRealConsole@@QEAA_NAEBU_INPUT_RECORD@@@Z 00000001400aab38 f   RealConsole.obj
 0001:000a9ccc       ?QueryCellInfo@CRealConsole@@QEAAXPEA_WH@Z 00000001400aaccc f   RealConsole.obj
 0001:000a9cf4       ?QueryPromptStart@CRealConsole@@QEAA_NPEAU_COORD@@@Z 00000001400aacf4 f   RealConsole.obj
 0001:000a9d40       ?QueryRConModes@CRealConsole@@QEAAXPEA_WH_N@Z 00000001400aad40 f   RealConsole.obj
 0001:000a9e0c       ?QueryStartStopRet@CRealConsole@@QEAAXAEAUCESERVER_REQ_SRVSTARTSTOPRET@@@Z 00000001400aae0c f   RealConsole.obj
 0001:000a9fd0       ?QueryTermModes@CRealConsole@@QEAAXPEA_WH_N@Z 00000001400aafd0 f   RealConsole.obj
 0001:000aa24c       ?RecreateProcess@CRealConsole@@QEAA_NPEAURConStartArgsEx@@@Z 00000001400ab24c f   RealConsole.obj
 0001:000aa614       ?RecreateProcessStart@CRealConsole@@AEAA_NXZ 00000001400ab614 f   RealConsole.obj
 0001:000aa730       ?RefreshAfterRestore@CRealConsole@@SA_NPEAVCVirtualConsole@@_J@Z 00000001400ab730 f   RealConsole.obj
 0001:000aa810       ?RefreshFarPID@_TabsInfo@CRealConsole@@QEAA_NK@Z 00000001400ab810 f   RealConsole.obj
 0001:000aa8ac       ?ReloadFarWorkDir@CRealConsole@@IEAA_NXZ 00000001400ab8ac f   RealConsole.obj
 0001:000aa974       ?RenameTab@CRealConsole@@QEAAXPEB_W@Z 00000001400ab974 f   RealConsole.obj
 0001:000aaa5c       ?RenameWindow@CRealConsole@@QEAAXPEB_W@Z 00000001400aba5c f   RealConsole.obj
 0001:000aab50       ?ReopenServerPipes@CRealConsole@@IEAA_NXZ 00000001400abb50 f   RealConsole.obj
 0001:000aae1c       ?RepositionDialogWithTab@CRealConsole@@IEAAXPEAUHWND__@@@Z 00000001400abe1c f   RealConsole.obj
 0001:000aaf28       ?RequestStartup@CRealConsole@@AEAAX_N@Z 00000001400abf28 f   RealConsole.obj
 0001:000aaf74       ?ResetActiveAppSettingsId@CRealConsole@@QEAAXXZ 00000001400abf74 f   RealConsole.obj
 0001:000aaf7c       ?ResetTopLeft@CRealConsole@@QEAAXXZ 00000001400abf7c f   RealConsole.obj
 0001:000aaf9c       ?ResetVarsOnStart@CRealConsole@@AEAAXXZ 00000001400abf9c f   RealConsole.obj
 0001:000ab104       ?ScreenToBuffer@CRealConsole@@QEAA?AU_COORD@@U2@@Z 00000001400ac104 f   RealConsole.obj
 0001:000ab12c       ?Set@?$MMap@KH$0A@@@QEAA_NAEBKAEBH@Z 00000001400ac12c f i RealConsole.obj
 0001:000ab270       ?SetActiveBuffer@CRealConsole@@AEAA_NPEAVCRealBuffer@@_N@Z 00000001400ac270 f   RealConsole.obj
 0001:000ab330       ?SetActiveBuffer@CRealConsole@@QEAA_NW4RealBufferType@@@Z 00000001400ac330 f   RealConsole.obj
 0001:000ab388       ?SetActivePID@CRealConsole@@AEAAXPEBUConProcess@@@Z 00000001400ac388 f   RealConsole.obj
 0001:000ab470       ?SetAltSrvPID@CRealConsole@@IEAAXK@Z 00000001400ac470 f   RealConsole.obj
 0001:000ab4f4       ?SetAppDistinctPID@CRealConsole@@AEAAXPEBUConProcess@@@Z 00000001400ac4f4 f   RealConsole.obj
 0001:000ab630       ?SetConStatus@CRealConsole@@QEAAXPEB_WK@Z 00000001400ac630 f   RealConsole.obj
 0001:000ab81c       ?SetConsoleSize@CRealConsole@@QEAA_NFFGK@Z 00000001400ac81c f   RealConsole.obj
 0001:000ab848       ?SetCursorShape@CRealConsole@@QEAAXW4TermCursorShapes@@@Z 00000001400ac848 f   RealConsole.obj
 0001:000ab878       ?SetFarPID@CRealConsole@@QEAAXK@Z 00000001400ac878 f   RealConsole.obj
 0001:000ab97c       ?SetFarPluginPID@CRealConsole@@QEAAXK@Z 00000001400ac97c f   RealConsole.obj
 0001:000aba54       ?SetFullScreen@CRealConsole@@QEAA_NXZ 00000001400aca54 f   RealConsole.obj
 0001:000abaf8       ?SetGuiMode@CRealConsole@@QEAAXKPEAUHWND__@@KKPEB_WKHUtagRECT@@@Z 00000001400acaf8 f   RealConsole.obj
 0001:000ac0c0       ?SetHwnd@CRealConsole@@AEAAXPEAUHWND__@@_N@Z 00000001400ad0c0 f   RealConsole.obj
 0001:000ac218       ?SetInitEnvCommands@CRealConsole@@QEAAXAEAUCESERVER_REQ_SRVSTARTSTOPRET@@@Z 00000001400ad218 f   RealConsole.obj
 0001:000ac474       ?SetMainSrvPID@CRealConsole@@IEAAXKPEAX@Z 00000001400ad474 f   RealConsole.obj
 0001:000ac588       ?SetMonitorThreadEvent@CRealConsole@@IEAAXXZ 00000001400ad588 f   RealConsole.obj
 0001:000ac5a4       ?SetMountRoot@CRealConsole@@IEAAXPEAUCESERVER_REQ@@@Z 00000001400ad5a4 f   RealConsole.obj
 0001:000ac648       ?SetOtherWindowParent@CRealConsole@@QEAAPEAUHWND__@@PEAU2@0@Z 00000001400ad648 f   RealConsole.obj
 0001:000ac770       ?SetOtherWindowPos@CRealConsole@@QEAA_NPEAUHWND__@@0HHHHI@Z 00000001400ad770 f   RealConsole.obj
 0001:000ac9d8       ?SetOtherWindowRgn@CRealConsole@@QEAA_NPEAUHWND__@@HPEAUtagRECT@@_N@Z 00000001400ad9d8 f   RealConsole.obj
 0001:000acb0c       ?SetPaletteName@CRealConsole@@QEAAXPEB_W@Z 00000001400adb0c f   RealConsole.obj
 0001:000acb84       ?SetProgress@CRealConsole@@QEAA_NFFPEB_W@Z 00000001400adb84 f   RealConsole.obj
 0001:000acc6c       ?SetRootProcessName@CRealConsole@@IEAAXPEB_W@Z 00000001400adc6c f   RealConsole.obj
 0001:000acd84       ?SetSplitProperties@CRealConsole@@QEAAXW4SplitType@RConStartArgs@@II@Z 00000001400add84 f   RealConsole.obj
 0001:000acda0       ?SetSwitchActiveServer@CRealConsole@@IEAAX_NW4SwitchActiveServerEvt@1@1@Z 00000001400adda0 f   RealConsole.obj
 0001:000ace50       ?SetTabs@CRealConsole@@QEAAXPEAUConEmuTab@@HK@Z 00000001400ade50 f   RealConsole.obj
 0001:000ad2b8       ?SetTerminalPID@CRealConsole@@IEAAXK@Z 00000001400ae2b8 f   RealConsole.obj
 0001:000ad318       ?ShowConsole@CRealConsole@@QEAAXH@Z 00000001400ae318 f   RealConsole.obj
 0001:000ad454       ?ShowConsoleOrGuiClient@CRealConsole@@QEAAXH@Z 00000001400ae454 f   RealConsole.obj
 0001:000ad49c       ?ShowGuiClientExt@CRealConsole@@QEAAXH_N@Z 00000001400ae49c f   RealConsole.obj
 0001:000ad638       ?ShowGuiClientInt@CRealConsole@@QEAAX_N@Z 00000001400ae638 f   RealConsole.obj
 0001:000ad6e4       ?ShowKeyBarHint@CRealConsole@@QEAAXG@Z 00000001400ae6e4 f   RealConsole.obj
 0001:000ad704       ?ShowOtherWindow@CRealConsole@@QEAA_NPEAUHWND__@@H_N@Z 00000001400ae704 f   RealConsole.obj
 0001:000ad834       ?ShowPropertiesDialog@CRealConsole@@QEAAXXZ 00000001400ae834 f   RealConsole.obj
 0001:000ad924       ?StartDebugger@CRealConsole@@QEAA_NW4StartDebugType@@@Z 00000001400ae924 f   RealConsole.obj
 0001:000add94       ?StartMonitorThread@CRealConsole@@IEAA_NXZ 00000001400aed94 f   RealConsole.obj
 0001:000ade9c       ?StartProcess@CRealConsole@@IEAA_NXZ 00000001400aee9c f   RealConsole.obj
 0001:000ae918       ?StartProcessInt@CRealConsole@@AEAA_NAEAPEB_WAEAPEA_W0_NPEAUHWND__@@AEAK44EEEEAEAU_STARTUPINFOW@@AEAU_PROCESS_INFORMATION@@4@Z 00000001400af918 f   RealConsole.obj
 0001:000af114       ?StartSelection@CRealConsole@@QEAAX_NFF0K@Z 00000001400b0114 f   RealConsole.obj
 0001:000af144       ?StartStopAppCursorKeys@CRealConsole@@QEAAXK_N@Z 00000001400b0144 f   RealConsole.obj
 0001:000af280       ?StartStopBracketedPaste@CRealConsole@@QEAAXK_N@Z 00000001400b0280 f   RealConsole.obj
 0001:000af374       ?StartStopTermMode@CRealConsole@@QEAA_NW4TermModeCommand@@W4ChangeTermAction@@@Z 00000001400b0374 f   RealConsole.obj
 0001:000af458       ?StartStopXMouse@CRealConsole@@QEAAXKW4TermMouseMode@@@Z 00000001400b0458 f   RealConsole.obj
 0001:000af538       ?StartStopXTerm@CRealConsole@@QEAAXK_N@Z 00000001400b0538 f   RealConsole.obj
 0001:000af648       ?StopSignal@CRealConsole@@QEAAXXZ 00000001400b0648 f   RealConsole.obj
 0001:000af760       ?StopThread@CRealConsole@@QEAAX_N@Z 00000001400b0760 f   RealConsole.obj
 0001:000af9c0       ?StoreActiveTab@_TabsInfo@CRealConsole@@QEAAXHAEAVCTab@@@Z 00000001400b09c0 f   RealConsole.obj
 0001:000afa04       ?StoreCurWorkDir@CRealConsole@@IEAAXPEAUCESERVER_REQ_STORECURDIR@@@Z 00000001400b0a04 f   RealConsole.obj
 0001:000afc00       ?StoreGuiChildRect@CRealConsole@@QEAAXPEAUtagRECT@@@Z 00000001400b0c00 f   RealConsole.obj
 0001:000afc64       ?SwitchKeyboardLayout@CRealConsole@@QEAAX_K0@Z 00000001400b0c64 f   RealConsole.obj
 0001:000afdc4       ?SyncConsole2Window@CRealConsole@@QEAAX_NPEAUtagRECT@@@Z 00000001400b0dc4 f   RealConsole.obj
 0001:000afee4       ?SyncGui2Window@CRealConsole@@QEAAXUtagRECT@@@Z 00000001400b0ee4 f   RealConsole.obj
 0001:000b005c       ?TerminateActiveProcess@CRealConsole@@QEAA_N_NK@Z 00000001400b105c f   RealConsole.obj
 0001:000b01e4       ?TerminateActiveProcessConfirm@CRealConsole@@QEAA_NK@Z 00000001400b11e4 f   RealConsole.obj
 0001:000b02f8       ?TerminateAllButShell@CRealConsole@@QEAA_N_N@Z 00000001400b12f8 f   RealConsole.obj
 0001:000b05c8       ?TextHeight@CRealConsole@@QEAAIXZ 00000001400b15c8 f   RealConsole.obj
 0001:000b05e0       ?TextWidth@CRealConsole@@QEAAIXZ 00000001400b15e0 f   RealConsole.obj
 0001:000b05f8       ?Unfasten@CRealConsole@@QEAAXXZ 00000001400b15f8 f   RealConsole.obj
 0001:000b0828       ?UpdateCursorInfo@CRealConsole@@QEAAXXZ 00000001400b1828 f   RealConsole.obj
 0001:000b089c       ?UpdateFarSettings@CRealConsole@@QEAAXKPEAUFAR_REQ_FARSETCHANGED@@@Z 00000001400b189c f   RealConsole.obj
 0001:000b0a00       ?UpdateGuiInfoMapping@CRealConsole@@QEAAXPEBUConEmuGuiMapping@@@Z 00000001400b1a00 f   RealConsole.obj
 0001:000b0ad8       ?UpdateRootInfo@CRealConsole@@IEAAXAEBUCESERVER_ROOT_INFO@@@Z 00000001400b1ad8 f   RealConsole.obj
 0001:000b0c18       ?UpdateScrollInfo@CRealConsole@@QEAAXXZ 00000001400b1c18 f   RealConsole.obj
 0001:000b0d68       ?UpdateServerActive@CRealConsole@@QEAAX_N@Z 00000001400b1d68 f   RealConsole.obj
 0001:000b0f10       ?UpdateStartState@CRealConsole@@IEAAXW4RConStartState@@_N@Z 00000001400b1f10 f   RealConsole.obj
 0001:000b0f64       ?UpdateTextColorSettings@CRealConsole@@QEAAX_N0PEBUAppSettings@@@Z 00000001400b1f64 f   RealConsole.obj
 0001:000b11ac       ?VCon@CRealConsole@@QEAAPEAVCVirtualConsole@@XZ 00000001400b21ac f   RealConsole.obj
 0001:000b11b8       ?Write@CRealConsole@@QEAA_NPEB_WHPEAK@Z 00000001400b21b8 f   RealConsole.obj
 0001:000b12d0       ?isActive@CRealConsole@@QEAA_N_N@Z 00000001400b22d0 f   RealConsole.obj
 0001:000b12e4       ?isAdministrator@CRealConsole@@QEAA_NXZ 00000001400b22e4 f   RealConsole.obj
 0001:000b1324       ?isAlive@CRealConsole@@QEAA_NXZ 00000001400b2324 f   RealConsole.obj
 0001:000b1370       ?isAlternative@CRealConsole@@QEAA_NXZ 00000001400b2370 f   RealConsole.obj
 0001:000b1398       ?isBufferHeight@CRealConsole@@QEAA_NXZ 00000001400b2398 f   RealConsole.obj
 0001:000b13d4       ?isCloseTabConfirmed@CRealConsole@@QEAA_NIPEB_W_N@Z 00000001400b23d4 f   RealConsole.obj
 0001:000b1544       ?isConSelectMode@CRealConsole@@QEAA_NXZ 00000001400b2544 f   RealConsole.obj
 0001:000b155c       ?isConsoleClosing@CRealConsole@@QEAA_NXZ 00000001400b255c f   RealConsole.obj
 0001:000b1628       ?isConsoleReady@CRealConsole@@QEAA_NXZ 00000001400b2628 f   RealConsole.obj
 0001:000b1648       ?isDetached@CRealConsole@@QEAA_NXZ 00000001400b2648 f   RealConsole.obj
 0001:000b1670       ?isEditor@CRealConsole@@QEAA_NXZ 00000001400b2670 f   RealConsole.obj
 0001:000b168c       ?isFar@CRealConsole@@QEAA_N_N@Z 00000001400b268c f   RealConsole.obj
 0001:000b16a8       ?isFarBufferSupported@CRealConsole@@QEAA_NXZ 00000001400b26a8 f   RealConsole.obj
 0001:000b16ec       ?isFarInStack@CRealConsole@@QEAA_NXZ 00000001400b26ec f   RealConsole.obj
 0001:000b1724       ?isFarKeyBarShown@CRealConsole@@QEAA_NXZ 00000001400b2724 f   RealConsole.obj
 0001:000b17a4       ?isFarPanelAllowed@CRealConsole@@QEAA_NXZ 00000001400b27a4 f   RealConsole.obj
 0001:000b1930       ?isFilePanel@CRealConsole@@QEAA_N_N00@Z 00000001400b2930 f   RealConsole.obj
 0001:000b1ac0       ?isFixAndCenter@CRealConsole@@QEAA_NPEAU_COORD@@@Z 00000001400b2ac0 f   RealConsole.obj
 0001:000b1b00       ?isGuiEagerFocus@CRealConsole@@QEAA_NXZ 00000001400b2b00 f   RealConsole.obj
 0001:000b1b3c       ?isGuiForceConView@CRealConsole@@QEAA_NXZ 00000001400b2b3c f   RealConsole.obj
 0001:000b1b54       ?isGuiOverCon@CRealConsole@@QEAA_NXZ 00000001400b2b54 f   RealConsole.obj
 0001:000b1b70       ?isGuiVisible@CRealConsole@@QEAA_NXZ 00000001400b2b70 f   RealConsole.obj
 0001:000b1bbc       ?isHighlighted@CRealConsole@@QEAA_NXZ 00000001400b2bbc f   RealConsole.obj
 0001:000b1c10       ?isInFocus@CRealConsole@@QEAA_NXZ 00000001400b2c10 f   RealConsole.obj
 0001:000b1c54       ?isInternalScroll@CRealConsole@@QEAA_NXZ 00000001400b2c54 f   RealConsole.obj
 0001:000b1cb4       ?isLogging@CRealConsole@@QEAAII@Z 00000001400b2cb4 f   RealConsole.obj
 0001:000b1ce0       ?isMouseButtonDown@CRealConsole@@QEAA_NXZ 00000001400b2ce0 f   RealConsole.obj
 0001:000b1cf0       ?isMouseSelectionPresent@CRealConsole@@QEAA_NXZ 00000001400b2cf0 f   RealConsole.obj
 0001:000b1d04       ?isNeedCursorDraw@CRealConsole@@QEAA_NXZ 00000001400b2d04 f   RealConsole.obj
 0001:000b1d58       ?isNtvdm@CRealConsole@@QEAA_NXZ 00000001400b2d58 f   RealConsole.obj
 0001:000b1d6c       ?isPictureView@CRealConsole@@QEAAPEAUHWND__@@_N@Z 00000001400b2d6c f   RealConsole.obj
 0001:000b2080       ?isPosixConvertAllowed@CRealConsole@@QEAA_NXZ 00000001400b3080 f   RealConsole.obj
 0001:000b20ec       ?isSelectionPresent@CRealConsole@@QEAA_NXZ 00000001400b30ec f   RealConsole.obj
 0001:000b2100       ?isSendMouseAllowed@CRealConsole@@QEAA_NXZ 00000001400b3100 f   RealConsole.obj
 0001:000b212c       ?isServerAlive@CRealConsole@@QEAA_NXZ 00000001400b312c f   RealConsole.obj
 0001:000b2160       ?isServerAvailable@CRealConsole@@QEAA_NXZ 00000001400b3160 f   RealConsole.obj
 0001:000b2188       ?isServerClosing@CRealConsole@@QEAA_N_N@Z 00000001400b3188 f   RealConsole.obj
 0001:000b21b4       ?isServerCreated@CRealConsole@@QEAA_N_N@Z 00000001400b31b4 f   RealConsole.obj
 0001:000b21d0       ?isUnixFS@CRealConsole@@QEAA_NXZ 00000001400b31d0 f   RealConsole.obj
 0001:000b220c       ?isViewer@CRealConsole@@QEAA_NXZ 00000001400b320c f   RealConsole.obj
 0001:000b2228       ?isVisible@CRealConsole@@QEAA_NXZ 00000001400b3228 f   RealConsole.obj
 0001:000b223c       ?logProgress@CRealConsole@@IEAAXPEB_WHH@Z 00000001400b323c f   RealConsole.obj
 0001:000b22b8       ?priorityProc@CRealConsole@@KA_JPEAUHWND__@@I_K_J@Z 00000001400b32b8 f   RealConsole.obj
 0001:000b2658       ?push_back@?$MArray@UConProcess@@@@QEAA_JAEBUConProcess@@@Z 00000001400b3658 f i RealConsole.obj
 0001:000b26d0       ?push_back@?$MArray@UtagPROCESSENTRY32W@@@@QEAA_JAEBUtagPROCESSENTRY32W@@@Z 00000001400b36d0 f i RealConsole.obj
 0001:000b2748       ?renameProc@CRealConsole@@CA_JPEAUHWND__@@I_K_J@Z 00000001400b3748 f   RealConsole.obj
 0001:000b29c8       ?setAppProgress@CRealConsole@@IEAAXFF@Z 00000001400b39c8 f   RealConsole.obj
 0001:000b2a24       ?setConsoleProgress@CRealConsole@@IEAAXF@Z 00000001400b3a24 f   RealConsole.obj
 0001:000b2a64       ?setGuiWnd@CRealConsole@@AEAAXPEAUHWND__@@@Z 00000001400b3a64 f   RealConsole.obj
 0001:000b2a74       ?setGuiWndPID@CRealConsole@@AEAAXPEAUHWND__@@KHPEB_W@Z 00000001400b3a74 f   RealConsole.obj
 0001:000b2b98       ?setLastConsoleProgress@CRealConsole@@IEAAXF_N@Z 00000001400b3b98 f   RealConsole.obj
 0001:000b2bfc       ?setLastShownProgress@CRealConsole@@IEAAXF@Z 00000001400b3bfc f   RealConsole.obj
 0001:000b2c3c       ?setPreWarningProgress@CRealConsole@@IEAAXF@Z 00000001400b3c3c f   RealConsole.obj
 0001:000b2c7c       ?setProgress@CRealConsole@@IEAAXF@Z 00000001400b3c7c f   RealConsole.obj
 0001:000b2cec       sprintf_s                  00000001400b3cec f i RealConsole.obj
 0001:000b2d40       ??0CRealServer@@QEAA@XZ    00000001400b3d40 f   RealServer.obj
 0001:000b2d54       ??1CRealServer@@QEAA@XZ    00000001400b3d54 f   RealServer.obj
 0001:000b2d70       ?Init@CRealServer@@QEAAXPEAVCRealConsole@@@Z 00000001400b3d70 f   RealServer.obj
 0001:000b2db8       ?ServerCommand@CRealServer@@KAHPEAXPEAUCESERVER_REQ@@AEAPEAU2@AEAK3_J@Z 00000001400b3db8 f   RealServer.obj
 0001:000b3278       ?ServerThreadReady@CRealServer@@KAHPEAX_J@Z 00000001400b4278 f   RealServer.obj
 0001:000b32c0       ?Start@CRealServer@@QEAA_NXZ 00000001400b42c0 f   RealServer.obj
 0001:000b33d4       ?Stop@CRealServer@@QEAAX_N@Z 00000001400b43d4 f   RealServer.obj
 0001:000b3454       ?cmdActivateCon@CRealServer@@IEAAPEAUCESERVER_REQ@@PEAXPEAU2@I@Z 00000001400b4454 f   RealServer.obj
 0001:000b34a4       ?cmdActivateTab@CRealServer@@IEAAPEAUCESERVER_REQ@@PEAXPEAU2@I@Z 00000001400b44a4 f   RealServer.obj
 0001:000b358c       ?cmdExportEnvVarAll@CRealServer@@IEAAPEAUCESERVER_REQ@@PEAXPEAU2@I@Z 00000001400b458c f   RealServer.obj
 0001:000b35e8       ?cmdGetAllPanels@CRealServer@@IEAAPEAUCESERVER_REQ@@PEAXPEAU2@I@Z 00000001400b45e8 f   RealServer.obj
 0001:000b368c       ?cmdGetAllTabs@CRealServer@@IEAAPEAUCESERVER_REQ@@PEAXPEAU2@I@Z 00000001400b468c f   RealServer.obj
 0001:000b3720       ?cmdGetOutputFile@CRealServer@@IEAAPEAUCESERVER_REQ@@PEAXPEAU2@I@Z 00000001400b4720 f   RealServer.obj
 0001:000b379c       ?cmdGetTaskCmd@CRealServer@@IEAAPEAUCESERVER_REQ@@PEAXPEAU2@I@Z 00000001400b479c f   RealServer.obj
 0001:000b3950       ?cmdGuiMacro@CRealServer@@IEAAPEAUCESERVER_REQ@@PEAXPEAU2@I@Z 00000001400b4950 f   RealServer.obj
 0001:000b3a00       ?cmdIsAnsiExecAllowed@CRealServer@@IEAAPEAUCESERVER_REQ@@PEAXPEAU2@I@Z 00000001400b4a00 f   RealServer.obj
 0001:000b3b54       ?cmdLockDc@CRealServer@@IEAAPEAUCESERVER_REQ@@PEAXPEAU2@I@Z 00000001400b4b54 f   RealServer.obj
 0001:000b3b8c       ?cmdOnCreateProc@CRealServer@@IEAAPEAUCESERVER_REQ@@PEAXPEAU2@I@Z 00000001400b4b8c f   RealServer.obj
 0001:000b3bf8       ?cmdOnPeekReadInput@CRealServer@@IEAAPEAUCESERVER_REQ@@PEAXPEAU2@I@Z 00000001400b4bf8 f   RealServer.obj
 0001:000b3c80       ?cmdOnSetConsoleKeyShortcuts@CRealServer@@IEAAPEAUCESERVER_REQ@@PEAXPEAU2@I@Z 00000001400b4c80 f   RealServer.obj
 0001:000b3cbc       ?cmdQueryPalette@CRealServer@@IEAAPEAUCESERVER_REQ@@PEAXPEAU2@I@Z 00000001400b4cbc f   RealServer.obj
 0001:000b3d58       ?cmdRegPanelView@CRealServer@@IEAAPEAUCESERVER_REQ@@PEAXPEAU2@I@Z 00000001400b4d58 f   RealServer.obj
 0001:000b3dd0       ?cmdRenameTab@CRealServer@@IEAAPEAUCESERVER_REQ@@PEAXPEAU2@I@Z 00000001400b4dd0 f   RealServer.obj
 0001:000b3e18       ?cmdResources@CRealServer@@IEAAPEAUCESERVER_REQ@@PEAXPEAU2@I@Z 00000001400b4e18 f   RealServer.obj
 0001:000b3fe0       ?cmdSetBackground@CRealServer@@IEAAPEAUCESERVER_REQ@@PEAXPEAU2@I@Z 00000001400b4fe0 f   RealServer.obj
 0001:000b404c       ?cmdSetForeground@CRealServer@@IEAAPEAUCESERVER_REQ@@PEAXPEAU2@I@Z 00000001400b504c f   RealServer.obj
 0001:000b40d4       ?cmdSetProgress@CRealServer@@IEAAPEAUCESERVER_REQ@@PEAXPEAU2@I@Z 00000001400b50d4 f   RealServer.obj
 0001:000b4124       ?cmdStartStop@CRealServer@@IEAAPEAUCESERVER_REQ@@PEAXPEAU2@I@Z 00000001400b5124 f   RealServer.obj
 0001:000b4ae0       ?cmdStartXTerm@CRealServer@@IEAAPEAUCESERVER_REQ@@PEAXPEAU2@I@Z 00000001400b5ae0 f   RealServer.obj
 0001:000b4c08       ?cmdTabsChanged@CRealServer@@IEAAPEAUCESERVER_REQ@@PEAXPEAU2@I@Z 00000001400b5c08 f   RealServer.obj
 0001:000b4dac       ??0CRecreateDlg@@QEAA@XZ   00000001400b5dac f   Recreate.obj
 0001:000b4e20       ??1CRecreateDlg@@QEAA@XZ   00000001400b5e20 f   Recreate.obj
 0001:000b4e48       ?AddCommandList@CRecreateDlg@@IEAAXPEB_W_J@Z 00000001400b5e48 f   Recreate.obj
 0001:000b4edc       ?AddDirectoryList@CRecreateDlg@@IEAAXPEB_W_J@Z 00000001400b5edc f   Recreate.obj
 0001:000b4f58       ?BrowseCallbackProc@CRecreateDlg@@SAHPEAUHWND__@@I_J1@Z 00000001400b5f58 f   Recreate.obj
 0001:000b4f88       ?Close@CRecreateDlg@@QEAAXXZ 00000001400b5f88 f   Recreate.obj
 0001:000b4fcc       ?FreeVars@CRecreateDlg@@IEAAXXZ 00000001400b5fcc f   Recreate.obj
 0001:000b503c       ?InitVars@CRecreateDlg@@IEAAXXZ 00000001400b603c f   Recreate.obj
 0001:000b5294       ?OnButtonClicked@CRecreateDlg@@IEAA_JPEAUHWND__@@I_K_J@Z 00000001400b6294 f   Recreate.obj
 0001:000b58d0       ?OnComboSetFocus@CRecreateDlg@@IEAA_JPEAUHWND__@@I_K_J@Z 00000001400b68d0 f   Recreate.obj
 0001:000b590c       ?OnCtlColorStatic@CRecreateDlg@@IEAA_JPEAUHWND__@@I_K_J@Z 00000001400b690c f   Recreate.obj
 0001:000b596c       ?OnEditSetFocus@CRecreateDlg@@IEAA_JPEAUHWND__@@I_K_J@Z 00000001400b696c f   Recreate.obj
 0001:000b59b8       ?OnFillCmdList@CRecreateDlg@@IEAA_JPEAUHWND__@@I_K_J@Z 00000001400b69b8 f   Recreate.obj
 0001:000b5a88       ?OnInitDialog@CRecreateDlg@@IEAA_JPEAUHWND__@@I_K_J@Z 00000001400b6a88 f   Recreate.obj
 0001:000b6830       ?OnSysCommand@CRecreateDlg@@IEAA_JPEAUHWND__@@I_K_J@Z 00000001400b7830 f   Recreate.obj
 0001:000b6978       ?OnUserControls@CRecreateDlg@@IEAA_JPEAUHWND__@@I_K_J@Z 00000001400b7978 f   Recreate.obj
 0001:000b6d04       ?RecreateDlg@CRecreateDlg@@QEAAHPEAURConStartArgsEx@@_N@Z 00000001400b7d04 f   Recreate.obj
 0001:000b6e30       ?RecreateDlgProc@CRecreateDlg@@SA_JPEAUHWND__@@I_K_J@Z 00000001400b7e30 f   Recreate.obj
 0001:000b7074       ??$SafeDelete@V?$xml_document@D@rapidxml@@@@YAXAEAPEAV?$xml_document@D@rapidxml@@@Z 00000001400b8074 f i Registry.obj
 0001:000b76c0       ??$insert_coded_character@$0GA@@?$xml_document@D@rapidxml@@CAXAEAPEADK@Z 00000001400b86c0 f i Registry.obj
 0001:000b77a0       ??$parse@$0GA@@?$xml_document@D@rapidxml@@QEAAXPEAD@Z 00000001400b87a0 f i Registry.obj
 0001:000b78b8       ??$parse_and_append_data@$0GA@@?$xml_document@D@rapidxml@@AEAADPEAV?$xml_node@D@1@AEAPEADPEAD@Z 00000001400b88b8 f i Registry.obj
 0001:000b7990       ??$parse_cdata@$0GA@@?$xml_document@D@rapidxml@@AEAAPEAV?$xml_node@D@1@AEAPEAD@Z 00000001400b8990 f i Registry.obj
 0001:000b7a38       ??$parse_comment@$0GA@@?$xml_document@D@rapidxml@@AEAAPEAV?$xml_node@D@1@AEAPEAD@Z 00000001400b8a38 f i Registry.obj
 0001:000b7ae0       ??$parse_doctype@$0GA@@?$xml_document@D@rapidxml@@AEAAPEAV?$xml_node@D@1@AEAPEAD@Z 00000001400b8ae0 f i Registry.obj
 0001:000b7b80       ??$parse_element@$0GA@@?$xml_document@D@rapidxml@@AEAAPEAV?$xml_node@D@1@AEAPEAD@Z 00000001400b8b80 f i Registry.obj
 0001:000b7d0c       ??$parse_node@$0GA@@?$xml_document@D@rapidxml@@AEAAPEAV?$xml_node@D@1@AEAPEAD@Z 00000001400b8d0c f i Registry.obj
 0001:000b7ee8       ??$parse_node_attributes@$0GA@@?$xml_document@D@rapidxml@@AEAAXAEAPEADPEAV?$xml_node@D@1@@Z 00000001400b8ee8 f i Registry.obj
 0001:000b813c       ??$parse_node_contents@$0GA@@?$xml_document@D@rapidxml@@AEAAXAEAPEADPEAV?$xml_node@D@1@@Z 00000001400b913c f i Registry.obj
 0001:000b82a0       ??$parse_xml_declaration@$0GA@@?$xml_document@D@rapidxml@@AEAAPEAV?$xml_node@D@1@AEAPEAD@Z 00000001400b92a0 f i Registry.obj
 0001:000b980c       ??$skip_and_expand_character_refs@U?$attribute_value_pred@$0CC@@?$xml_document@D@rapidxml@@U?$attribute_value_pure_pred@$0CC@@23@$0GA@@?$xml_document@D@rapidxml@@CAPEADAEAPEAD@Z 00000001400ba80c f i Registry.obj
 0001:000b9a10       ??$skip_and_expand_character_refs@U?$attribute_value_pred@$0CH@@?$xml_document@D@rapidxml@@U?$attribute_value_pure_pred@$0CH@@23@$0GA@@?$xml_document@D@rapidxml@@CAPEADAEAPEAD@Z 00000001400baa10 f i Registry.obj
 0001:000b9c14       ??$skip_and_expand_character_refs@Utext_pred@?$xml_document@D@rapidxml@@Utext_pure_no_ws_pred@23@$0GA@@?$xml_document@D@rapidxml@@CAPEADAEAPEAD@Z 00000001400bac14 f i Registry.obj
 0001:000b9e18       ??$sprintf_c@$03@@YAHAEAY03DPEBDZZ 00000001400bae18 f i Registry.obj
 0001:000b9eb0       ??0SettingsINI@@QEAA@AEBUSettingsStorage@@@Z 00000001400baeb0 f   Registry.obj
 0001:000b9efc       ??0SettingsRegistry@@QEAA@XZ 00000001400baefc f   Registry.obj
 0001:000b9f64       ??0SettingsXML@@QEAA@AEBUSettingsStorage@@@Z 00000001400baf64 f   Registry.obj
 0001:000b9fc0       ??0exception@std@@QEAA@AEBV01@@Z 00000001400bafc0 f i Registry.obj
 0001:000b9ff8       ??0parse_error@rapidxml@@QEAA@AEBV01@@Z 00000001400baff8 f i Registry.obj
 0001:000ba050       ??0parse_error@rapidxml@@QEAA@PEBDPEAX@Z 00000001400bb050 f i Registry.obj
 0001:000ba070       ??1parse_error@rapidxml@@UEAA@XZ 00000001400bb070 f   Registry.obj
 0001:000ba070       ??1bad_exception@std@@UEAA@XZ 00000001400bb070 f   libvcruntime:frame.obj
 0001:000ba070       ??1length_error@std@@UEAA@XZ 00000001400bb070 f   libcpmt:xthrow.obj
 0001:000ba070       ??1bad_cast@std@@UEAA@XZ   00000001400bb070 f   libvcruntime:rtti.obj
 0001:000ba070       ??1__non_rtti_object@std@@UEAA@XZ 00000001400bb070 f   libvcruntime:rtti.obj
 0001:000ba0d0       ??1SettingsRegistry@@UEAA@XZ 00000001400bb0d0 f   Registry.obj
 0001:000ba108       ??_EFileException@?A0xba0c541b@@UEAAPEAXI@Z 00000001400bb108 f i Registry.obj
 0001:000ba108       ??_GFileException@?A0xba0c541b@@UEAAPEAXI@Z 00000001400bb108 f i Registry.obj
 0001:000ba14c       ??_ESettingsBase@@UEAAPEAXI@Z 00000001400bb14c f i Registry.obj
 0001:000ba14c       ??_GSettingsBase@@UEAAPEAXI@Z 00000001400bb14c f i Registry.obj
 0001:000ba178       ??_ESettingsINI@@UEAAPEAXI@Z 00000001400bb178 f i Registry.obj
 0001:000ba178       ??_GSettingsINI@@UEAAPEAXI@Z 00000001400bb178 f i Registry.obj
 0001:000ba1cc       ??_ESettingsRegistry@@UEAAPEAXI@Z 00000001400bb1cc f i Registry.obj
 0001:000ba1cc       ??_GSettingsRegistry@@UEAAPEAXI@Z 00000001400bb1cc f i Registry.obj
 0001:000ba200       ??_GSettingsXML@@UEAAPEAXI@Z 00000001400bb200 f i Registry.obj
 0001:000ba200       ??_ESettingsXML@@UEAAPEAXI@Z 00000001400bb200 f i Registry.obj
 0001:000ba248       ??_Gexception@std@@UEAAPEAXI@Z 00000001400bb248 f i Registry.obj
 0001:000ba248       ??_Eexception@std@@UEAAPEAXI@Z 00000001400bb248 f i Registry.obj
 0001:000ba28c       ??_Gparse_error@rapidxml@@UEAAPEAXI@Z 00000001400bb28c f i Registry.obj
 0001:000ba28c       ??_Eparse_error@rapidxml@@UEAAPEAXI@Z 00000001400bb28c f i Registry.obj
 0001:000ba2d0       ?ClearChildrenTail@SettingsXML@@IEAAXPEAV?$xml_node@D@rapidxml@@0PEBD@Z 00000001400bb2d0 f   Registry.obj
 0001:000ba344       ?CloseKey@SettingsINI@@UEAAXXZ 00000001400bb344 f   Registry.obj
 0001:000ba368       ?CloseKey@SettingsRegistry@@UEAAXXZ 00000001400bb368 f   Registry.obj
 0001:000ba38c       ?CloseKey@SettingsXML@@UEAAXXZ 00000001400bb38c f   Registry.obj
 0001:000ba3b8       ?CloseStorage@SettingsXML@@IEAAXXZ 00000001400bb3b8 f   Registry.obj
 0001:000ba6b4       ?ConvertData@SettingsXML@@SA_NPEBD0PEAEK@Z 00000001400bb6b4 f   Registry.obj
 0001:000ba91c       ?Delete@SettingsINI@@UEAAXPEB_W@Z 00000001400bb91c f   Registry.obj
 0001:000ba958       ?Delete@SettingsRegistry@@UEAAXPEB_W@Z 00000001400bb958 f   Registry.obj
 0001:000ba964       ?Delete@SettingsXML@@UEAAXPEB_W@Z 00000001400bb964 f   Registry.obj
 0001:000ba970       ?DeleteImpl@SettingsXML@@IEAAXPEB_W0@Z 00000001400bb970 f   Registry.obj
 0001:000ba9b8       ?DeleteKey@SettingsRegistry@@UEAAXPEB_W@Z 00000001400bb9b8 f   Registry.obj
 0001:000ba9c4       ?DeleteKey@SettingsXML@@UEAAXPEB_W@Z 00000001400bb9c4 f   Registry.obj
 0001:000ba9d0       ?FindItem@SettingsXML@@IEAAPEAV?$xml_node@D@rapidxml@@PEAV23@PEB_W1_N@Z 00000001400bb9d0 f   Registry.obj
 0001:000babbc       ?GetAttr@SettingsXML@@IEAAPEBDPEAV?$xml_node@D@rapidxml@@PEBD@Z 00000001400bbbbc f   Registry.obj
 0001:000bac10       ?Load@SettingsBase@@QEAA_NPEB_WAEAD@Z 00000001400bbc10 f   Registry.obj
 0001:000bac10       ?Load@SettingsBase@@QEAA_NPEB_WAEAE@Z 00000001400bbc10 f   Registry.obj
 0001:000bac20       ?Load@SettingsBase@@QEAA_NPEB_WAEAI@Z 00000001400bbc20 f   Registry.obj
 0001:000bac20       ?Load@SettingsBase@@QEAA_NPEB_WAEAK@Z 00000001400bbc20 f   Registry.obj
 0001:000bac20       ?Load@SettingsBase@@QEAA_NPEB_WAEAJ@Z 00000001400bbc20 f   Registry.obj
 0001:000bac20       ?Load@SettingsBase@@QEAA_NPEB_WAEAH@Z 00000001400bbc20 f   Registry.obj
 0001:000bac30       ?Load@SettingsBase@@QEAA_NPEB_WAEAUtagRECT@@@Z 00000001400bbc30 f   Registry.obj
 0001:000bad34       ?Load@SettingsBase@@QEAA_NPEB_WAEA_N@Z 00000001400bbd34 f   Registry.obj
 0001:000bad68       ?Load@SettingsRegistry@@UEAA_NPEB_WPEAEK@Z 00000001400bbd68 f   Registry.obj
 0001:000bae04       ?Load@SettingsRegistry@@UEAA_NPEB_WPEAPEA_W@Z 00000001400bbe04 f   Registry.obj
 0001:000baecc       ?Load@SettingsRegistry@@UEAA_NPEB_WPEA_WH@Z 00000001400bbecc f   Registry.obj
 0001:000baf70       ?Load@SettingsXML@@UEAA_NPEB_WPEAEK@Z 00000001400bbf70 f   Registry.obj
 0001:000bb068       ?Load@SettingsXML@@UEAA_NPEB_WPEAPEA_W@Z 00000001400bc068 f   Registry.obj
 0001:000bb3bc       ?Load@SettingsXML@@UEAA_NPEB_WPEA_WH@Z 00000001400bc3bc f   Registry.obj
 0001:000bb440       ?OpenKey@SettingsINI@@UEAA_NPEB_WIH@Z 00000001400bc440 f   Registry.obj
 0001:000bb65c       ?OpenKey@SettingsRegistry@@QEAA_NPEAUHKEY__@@PEB_WIH@Z 00000001400bc65c f   Registry.obj
 0001:000bb6c0       ?OpenKey@SettingsRegistry@@UEAA_NPEB_WIH@Z 00000001400bc6c0 f   Registry.obj
 0001:000bb6e0       ?OpenKey@SettingsXML@@UEAA_NPEB_WIH@Z 00000001400bc6e0 f   Registry.obj
 0001:000bb944       ?OpenStorage@SettingsXML@@IEAA_NIAEAPEA_W@Z 00000001400bc944 f   Registry.obj
 0001:000bbcec       ?Save@SettingsBase@@QEAAXPEB_W0@Z 00000001400bccec f   Registry.obj
 0001:000bbd30       ?Save@SettingsBase@@QEAAXPEB_WAEBE@Z 00000001400bcd30 f   Registry.obj
 0001:000bbd30       ?Save@SettingsBase@@QEAAXPEB_WAEBD@Z 00000001400bcd30 f   Registry.obj
 0001:000bbd30       ?Save@SettingsBase@@QEAAXPEB_WAEB_N@Z 00000001400bcd30 f   Registry.obj
 0001:000bbd5c       ?Save@SettingsBase@@QEAAXPEB_WAEBH@Z 00000001400bcd5c f   Registry.obj
 0001:000bbd5c       ?Save@SettingsBase@@QEAAXPEB_WAEBJ@Z 00000001400bcd5c f   Registry.obj
 0001:000bbd7c       ?Save@SettingsBase@@QEAAXPEB_WAEBI@Z 00000001400bcd7c f   Registry.obj
 0001:000bbd9c       ?Save@SettingsBase@@QEAAXPEB_WAEBK@Z 00000001400bcd9c f   Registry.obj
 0001:000bbdb8       ?Save@SettingsBase@@QEAAXPEB_WAEBUtagRECT@@@Z 00000001400bcdb8 f   Registry.obj
 0001:000bbe38       ?Save@SettingsRegistry@@UEAAXPEB_WPEBEKK@Z 00000001400bce38 f   Registry.obj
 0001:000bbe74       ?Save@SettingsXML@@UEAAXPEB_WPEBEKK@Z 00000001400bce74 f   Registry.obj
 0001:000bc394       ?SaveMSZ@SettingsBase@@QEAAXPEB_W0K@Z 00000001400bd394 f   Registry.obj
 0001:000bc3c8       ?SetAttr@SettingsXML@@IEAA_NPEAV?$xml_node@D@rapidxml@@PEBD1@Z 00000001400bd3c8 f   Registry.obj
 0001:000bc520       ?SetAttr@SettingsXML@@IEAA_NPEAV?$xml_node@D@rapidxml@@PEBDPEB_W@Z 00000001400bd520 f   Registry.obj
 0001:000bc574       ?SetMultiLine@SettingsXML@@IEAA_NPEAV?$xml_node@D@rapidxml@@PEB_WJ@Z 00000001400bd574 f   Registry.obj
 0001:000bc724       ?TouchKey@SettingsXML@@IEAAXPEAV?$xml_node@D@rapidxml@@@Z 00000001400bd724 f   Registry.obj
 0001:000bc858       ?allocate_aligned@?$memory_pool@D@rapidxml@@AEAAPEAX_K@Z 00000001400bd858 f i Registry.obj
 0001:000bc904       ?clear@?$memory_pool@D@rapidxml@@QEAAXXZ 00000001400bd904 f i Registry.obj
 0001:000bc980       ?first_attribute@?$xml_node@D@rapidxml@@QEBAPEAV?$xml_attribute@D@2@PEBD_K_N@Z 00000001400bd980 f i Registry.obj
 0001:000bca54       ?first_node@?$xml_node@D@rapidxml@@QEBAPEAV12@PEBD_K_N@Z 00000001400bda54 f i Registry.obj
 0001:000bcb28       ?insert_node@?$xml_node@D@rapidxml@@QEAAXPEAV12@0@Z 00000001400bdb28 f i Registry.obj
 0001:000bcba8       ?next_sibling@?$xml_node@D@rapidxml@@QEBAPEAV12@PEBD_K_N@Z 00000001400bdba8 f i Registry.obj
 0001:000bcc7c       ?push_back@?$MArray@D@@QEAA_JAEBD@Z 00000001400bdc7c f i Registry.obj
 0001:000bccf0       ?remove_attribute@?$xml_node@D@rapidxml@@QEAAXPEAV?$xml_attribute@D@2@@Z 00000001400bdcf0 f i Registry.obj
 0001:000bcd68       ?remove_node@?$xml_node@D@rapidxml@@QEAAXPEAV12@@Z 00000001400bdd68 f i Registry.obj
 0001:000bcde0       ?utf2wcs@SettingsXML@@KAPEB_WPEBDAEAUCEStr@@@Z 00000001400bdde0 f   Registry.obj
 0001:000bce80       ?wcs2utf@SettingsXML@@IEAAPEBDPEB_W@Z 00000001400bde80 f   Registry.obj
 0001:000bcf38       ?wcs2utf@SettingsXML@@IEBAPEBDPEB_WAEAUCEStrA@@@Z 00000001400bdf38 f   Registry.obj
 0001:000bcff4       ?what@exception@std@@UEBAPEBDXZ 00000001400bdff4 f i Registry.obj
 0001:000bd008       ?what@parse_error@rapidxml@@UEBAPEBDXZ 00000001400be008 f i Registry.obj
 0001:000bd010       ??0CRunQueue@@QEAA@XZ      00000001400be010 f   RunQueue.obj
 0001:000bd0bc       ??1CRunQueue@@QEAA@XZ      00000001400be0bc f   RunQueue.obj
 0001:000bd168       ?AdvanceQueue@CRunQueue@@QEAAXXZ 00000001400be168 f   RunQueue.obj
 0001:000bd1b8       ?ProcessRunQueue@CRunQueue@@AEAAXXZ 00000001400be1b8 f   RunQueue.obj
 0001:000bd358       ?RequestRConStartup@CRunQueue@@QEAAXPEAVCRealConsole@@@Z 00000001400be358 f   RunQueue.obj
 0001:000bd3f4       ?RunQueueThread@CRunQueue@@AEAAKXZ 00000001400be3f4 f   RunQueue.obj
 0001:000bd474       ?RunQueueThreadHelper@CRunQueue@@CAKPEAX@Z 00000001400be474 f   RunQueue.obj
 0001:000bd484       ?StartQueue@CRunQueue@@QEAAXXZ 00000001400be484 f   RunQueue.obj
 0001:000bd4c4       ?Terminate@CRunQueue@@QEAAXXZ 00000001400be4c4 f   RunQueue.obj
 0001:000bd528       ??$swprintf_c@$0BAF@@@YAHAEAY0BAF@_WPEB_WZZ 00000001400be528 f i ScreenDump.obj
 0001:000bd554       ?DumpImage@@YAHPEAUHDC__@@PEAUHBITMAP__@@HHHHPEB_W_N@Z 00000001400be554 f   ScreenDump.obj
 0001:000bd844       ?DumpImage@@YAHPEAUHDC__@@PEAUHBITMAP__@@HHPEB_W@Z 00000001400be844 f   ScreenDump.obj
 0001:000bd874       ?LoadScreen@@YAHPEAUHDC__@@HHHHPEAPEAEPEAK_N@Z 00000001400be874 f   ScreenDump.obj
 0001:000be838       ?EditIconHint_Process@@YA_NPEAUHWND__@@I_K_JAEA_J@Z 00000001400bf838 f   SearchCtrl.obj
 0001:000beaa4       ?EditIconHint_ResChanged@@YAXPEAUHWND__@@@Z 00000001400bfaa4 f   SearchCtrl.obj
 0001:000beb30       ?EditIconHint_Set@@YAXPEAUHWND__@@0_NPEB_W1IG@Z 00000001400bfb30 f   SearchCtrl.obj
 0001:000bed5c       ?EditIconHint_SetTimer@@YAXPEAUHWND__@@@Z 00000001400bfd5c f   SearchCtrl.obj
 0001:000bed74       ?EditIconHint_Subclass@@YAXPEAUHWND__@@0@Z 00000001400bfd74 f   SearchCtrl.obj
 0001:000bed8c       ?Get@?$MMap@PEAUHWND__@@UCEIconHintInfo@@$0A@@@QEAA_NAEBQEAUHWND__@@PEAUCEIconHintInfo@@_N@Z 00000001400bfd8c f i SearchCtrl.obj
 0001:000bee98       ?Get@?$MMap@PEAUHWND__@@UTabPanelWinMap@@$0A@@@QEAA_NAEBQEAUHWND__@@PEAUTabPanelWinMap@@_N@Z 00000001400bfe98 f i WinObjBase.obj
 0001:000bee98       ?Get@?$MMap@PEAUHWND__@@UCEIconHintOthers@@$0A@@@QEAA_NAEBQEAUHWND__@@PEAUCEIconHintOthers@@_N@Z 00000001400bfe98 f i SearchCtrl.obj
 0001:000bef2c       ?GetNext@?$MMap@PEAUHWND__@@UCEIconHintInfo@@$0A@@@QEAA_NPEBQEAUHWND__@@PEAPEAU2@PEAUCEIconHintInfo@@@Z 00000001400bff2c f i SearchCtrl.obj
 0001:000bf074       ?Init@?$MMap@PEAUHWND__@@UCEIconHintInfo@@$0A@@@QEAA_N_K_N@Z 00000001400c0074 f i SearchCtrl.obj
 0001:000bf0e8       ?Init@?$MMap@PEAUHWND__@@UCEIconHintOthers@@$0A@@@QEAA_N_K_N@Z 00000001400c00e8 f i SearchCtrl.obj
 0001:000bf15c       ?Set@?$MMap@HUCEIconDrawHandles@@$0A@@@QEAA_NAEBHAEBUCEIconDrawHandles@@@Z 00000001400c015c f i SearchCtrl.obj
 0001:000bf2bc       ?Set@?$MMap@PEAUHWND__@@UCEIconHintInfo@@$0A@@@QEAA_NAEBQEAUHWND__@@AEBUCEIconHintInfo@@@Z 00000001400c02bc f i SearchCtrl.obj
 0001:000bf580       ?Set@?$MMap@PEAUHWND__@@UCEIconHintOthers@@$0A@@@QEAA_NAEBQEAUHWND__@@AEBUCEIconHintOthers@@@Z 00000001400c0580 f i SearchCtrl.obj
 0001:000bf580       ?Set@?$MMap@PEAUHWND__@@UTabPanelWinMap@@$0A@@@QEAA_NAEBQEAUHWND__@@AEBUTabPanelWinMap@@@Z 00000001400c0580 f i WinObjBase.obj
 0001:000bf6fc       ?BackColorIdx@AppSettings@@QEBAEXZ 00000001400c06fc f   SetAppSettings.obj
 0001:000bf720       ?CTSBashMargin@AppSettings@@QEBA_NXZ 00000001400c0720 f   SetAppSettings.obj
 0001:000bf748       ?CTSClickPromptPosition@AppSettings@@QEBAEXZ 00000001400c0748 f   SetAppSettings.obj
 0001:000bf770       ?CTSDeleteLeftWord@AppSettings@@QEBAEXZ 00000001400c0770 f   SetAppSettings.obj
 0001:000bf798       ?CTSDetectLineEnd@AppSettings@@QEBA_NXZ 00000001400c0798 f   SetAppSettings.obj
 0001:000bf7c0       ?CTSEOL@AppSettings@@QEBAEXZ 00000001400c07c0 f   SetAppSettings.obj
 0001:000bf7e8       ?CTSShiftArrowStart@AppSettings@@QEBA_NXZ 00000001400c07e8 f   SetAppSettings.obj
 0001:000bf810       ?CTSTrimTrailing@AppSettings@@QEBAEXZ 00000001400c0810 f   SetAppSettings.obj
 0001:000bf838       ?Cursor@AppSettings@@QEBA?ATCECursorType@@_N@Z 00000001400c0838 f   SetAppSettings.obj
 0001:000bf890       ?CursorBlink@AppSettings@@QEBA_N_N@Z 00000001400c0890 f   SetAppSettings.obj
 0001:000bf8b0       ?CursorFixedSize@AppSettings@@QEBAE_N@Z 00000001400c08b0 f   SetAppSettings.obj
 0001:000bf8d0       ?CursorIgnoreSize@AppSettings@@QEBA_N_N@Z 00000001400c08d0 f   SetAppSettings.obj
 0001:000bf8f0       ?ExtendFonts@AppSettings@@QEBA_NXZ 00000001400c08f0 f   SetAppSettings.obj
 0001:000bf918       ?FontBoldColor@AppSettings@@QEBAEXZ 00000001400c0918 f   SetAppSettings.obj
 0001:000bf940       ?FontItalicColor@AppSettings@@QEBAEXZ 00000001400c0940 f   SetAppSettings.obj
 0001:000bf968       ?FontNormalColor@AppSettings@@QEBAEXZ 00000001400c0968 f   SetAppSettings.obj
 0001:000bf990       ?FreeApps@AppSettings@@QEAAXXZ 00000001400c0990 f   SetAppSettings.obj
 0001:000bf9cc       ?PasteAllLines@AppSettings@@QEBAEXZ 00000001400c09cc f   SetAppSettings.obj
 0001:000bf9f4       ?PasteFirstLine@AppSettings@@QEBAEXZ 00000001400c09f4 f   SetAppSettings.obj
 0001:000bfa1c       ?PopBackColorIdx@AppSettings@@QEBAEXZ 00000001400c0a1c f   SetAppSettings.obj
 0001:000bfa40       ?PopTextColorIdx@AppSettings@@QEBAEXZ 00000001400c0a40 f   SetAppSettings.obj
 0001:000bfa64       ?PosixAllLines@AppSettings@@QEBAEXZ 00000001400c0a64 f   SetAppSettings.obj
 0001:000bfa8c       ?PosixFirstLine@AppSettings@@QEBAEXZ 00000001400c0a8c f   SetAppSettings.obj
 0001:000bfab4       ?SetNames@AppSettings@@QEAAXPEB_W@Z 00000001400c0ab4 f   SetAppSettings.obj
 0001:000bfb84       ?TextColorIdx@AppSettings@@QEBAEXZ 00000001400c0b84 f   SetAppSettings.obj
 0001:000bfba8       ?FreePtr@CommandTasks@@QEAAXXZ 00000001400c0ba8 f   SetCmdTask.obj
 0001:000bfc08       ?LoadCmdTask@CommandTasks@@QEAA_NPEAUSettingsBase@@H@Z 00000001400c0c08 f   SetCmdTask.obj
 0001:000bff48       ?ParseGuiArgs@CommandTasks@@QEBAXPEAURConStartArgsEx@@@Z 00000001400c0f48 f   SetCmdTask.obj
 0001:000c02d0       ?SaveCmdTask@CommandTasks@@QEAA_NPEAUSettingsBase@@_N@Z 00000001400c12d0 f   SetCmdTask.obj
 0001:000c0540       ?SetCommands@CommandTasks@@QEAA_NPEB_W@Z 00000001400c1540 f   SetCmdTask.obj
 0001:000c0608       ?SetGuiArg@CommandTasks@@QEAA_NPEB_W@Z 00000001400c1608 f   SetCmdTask.obj
 0001:000c06d0       ?SetName@CommandTasks@@QEAAXPEB_WH@Z 00000001400c16d0 f   SetCmdTask.obj
 0001:000c07dc       ?FreePtr@ColorPalette@@QEAAXXZ 00000001400c17dc f   SetColorPalette.obj
 0001:000c0804       ?GetColors@ColorPalette@@QEAAPEAK_N@Z 00000001400c1804 f   SetColorPalette.obj
 0001:000c0830       ??$swprintf_c@$0BMM@@@YAHAEAY0BMM@_WPEB_WZZ 00000001400c1830 f i SetDlgButtons.obj
 0001:000c085c       ?CheckButtonMacro@CSetDlgButtons@@SAPEA_WGE@Z 00000001400c185c f   SetDlgButtons.obj
 0001:000c0948       ?OnBtn_ActivateSplitMouseOver@CSetDlgButtons@@KAXPEAUHWND__@@GE@Z 00000001400c1948 f   SetDlgButtons.obj
 0001:000c0984       ?OnBtn_ActivityReset@CSetDlgButtons@@KAXPEAUHWND__@@GE@Z 00000001400c1984 f   SetDlgButtons.obj
 0001:000c09dc       ?OnBtn_AddDefaults@CSetDlgButtons@@KAXPEAUHWND__@@GE@Z 00000001400c19dc f   SetDlgButtons.obj
 0001:000c0ac8       ?OnBtn_AdminSuffixOrShield@CSetDlgButtons@@KAXPEAUHWND__@@GE@Z 00000001400c1ac8 f   SetDlgButtons.obj
 0001:000c0bfc       ?OnBtn_AnsiSecureRadio@CSetDlgButtons@@KAXPEAUHWND__@@GE@Z 00000001400c1bfc f   SetDlgButtons.obj
 0001:000c0c54       ?OnBtn_AntiAliasing2@CSetDlgButtons@@KAXPEAUHWND__@@GE@Z 00000001400c1c54 f   SetDlgButtons.obj
 0001:000c0c84       ?OnBtn_ApplyPos@CSetDlgButtons@@KAXPEAUHWND__@@GE@Z 00000001400c1c84 f   SetDlgButtons.obj
 0001:000c0f70       ?OnBtn_BgAllowPlugin@CSetDlgButtons@@KAXPEAUHWND__@@GE@Z 00000001400c1f70 f   SetDlgButtons.obj
 0001:000c0fa0       ?OnBtn_BgImageChoose@CSetDlgButtons@@KAXPEAUHWND__@@GE@Z 00000001400c1fa0 f   SetDlgButtons.obj
 0001:000c11f0       ?OnBtn_BgImageEnable@CSetDlgButtons@@KAXPEAUHWND__@@GE@Z 00000001400c21f0 f   SetDlgButtons.obj
 0001:000c1330       ?OnBtn_CTSAutoCopy@CSetDlgButtons@@KAXPEAUHWND__@@GE@Z 00000001400c2330 f   SetDlgButtons.obj
 0001:000c139c       ?OnBtn_CTSEndCopyAuto@CSetDlgButtons@@KAXPEAUHWND__@@GE@Z 00000001400c239c f   SetDlgButtons.obj
 0001:000c148c       ?OnBtn_CascadeFixed@CSetDlgButtons@@KAXPEAUHWND__@@GE@Z 00000001400c248c f   SetDlgButtons.obj
 0001:000c1518       ?OnBtn_CloseConEmuOptions@CSetDlgButtons@@KAXPEAUHWND__@@GE@Z 00000001400c2518 f   SetDlgButtons.obj
 0001:000c1734       ?OnBtn_CloseConfirmFlags@CSetDlgButtons@@KAXPEAUHWND__@@GE@Z 00000001400c2734 f   SetDlgButtons.obj
 0001:000c1780       ?OnBtn_CmdAutoActions@CSetDlgButtons@@KAXPEAUHWND__@@GE@Z 00000001400c2780 f   SetDlgButtons.obj
 0001:000c17f8       ?OnBtn_CmdGroupApp@CSetDlgButtons@@KAXPEAUHWND__@@GE@Z 00000001400c27f8 f   SetDlgButtons.obj
 0001:000c1a1c       ?OnBtn_CmdGroupKey@CSetDlgButtons@@KAXPEAUHWND__@@GE@Z 00000001400c2a1c f   SetDlgButtons.obj
 0001:000c1b04       ?OnBtn_CmdTaskbarUpdate@CSetDlgButtons@@KAXPEAUHWND__@@GE@Z 00000001400c2b04 f   SetDlgButtons.obj
 0001:000c1b5c       ?OnBtn_CmdTasksActive@CSetDlgButtons@@KAXPEAUHWND__@@GE@Z 00000001400c2b5c f   SetDlgButtons.obj
 0001:000c1ba8       ?OnBtn_CmdTasksAdd@CSetDlgButtons@@KAXPEAUHWND__@@GE@Z 00000001400c2ba8 f   SetDlgButtons.obj
 0001:000c1c9c       ?OnBtn_CmdTasksDel@CSetDlgButtons@@KAXPEAUHWND__@@GE@Z 00000001400c2c9c f   SetDlgButtons.obj
 0001:000c1f70       ?OnBtn_CmdTasksDir@CSetDlgButtons@@KAXPEAUHWND__@@GE@Z 00000001400c2f70 f   SetDlgButtons.obj
 0001:000c20f8       ?OnBtn_CmdTasksDup@CSetDlgButtons@@KAXPEAUHWND__@@GE@Z 00000001400c30f8 f   SetDlgButtons.obj
 0001:000c226c       ?OnBtn_CmdTasksFlags@CSetDlgButtons@@KAXPEAUHWND__@@GE@Z 00000001400c326c f   SetDlgButtons.obj
 0001:000c23f8       ?OnBtn_CmdTasksParm@CSetDlgButtons@@KAXPEAUHWND__@@GE@Z 00000001400c33f8 f   SetDlgButtons.obj
 0001:000c2528       ?OnBtn_CmdTasksReload@CSetDlgButtons@@KAXPEAUHWND__@@GE@Z 00000001400c3528 f   SetDlgButtons.obj
 0001:000c2600       ?OnBtn_CmdTasksUpDown@CSetDlgButtons@@KAXPEAUHWND__@@GE@Z 00000001400c3600 f   SetDlgButtons.obj
 0001:000c2704       ?OnBtn_ColorField@CSetDlgButtons@@KAXPEAUHWND__@@GE@Z 00000001400c3704 f   SetDlgButtons.obj
 0001:000c2878       ?OnBtn_ColorFormat@CSetDlgButtons@@KAXPEAUHWND__@@GE@Z 00000001400c3878 f   SetDlgButtons.obj
 0001:000c28e8       ?OnBtn_ComspecBitsRadio@CSetDlgButtons@@KAXPEAUHWND__@@GE@Z 00000001400c38e8 f   SetDlgButtons.obj
 0001:000c293c       ?OnBtn_ComspecExplicit@CSetDlgButtons@@KAXPEAUHWND__@@GE@Z 00000001400c393c f   SetDlgButtons.obj
 0001:000c2ab4       ?OnBtn_ComspecRadio@CSetDlgButtons@@KAXPEAUHWND__@@GE@Z 00000001400c3ab4 f   SetDlgButtons.obj
 0001:000c2b54       ?OnBtn_ComspecTest@CSetDlgButtons@@KAXPEAUHWND__@@GE@Z 00000001400c3b54 f   SetDlgButtons.obj
 0001:000c2bb4       ?OnBtn_CursorOptions@CSetDlgButtons@@KAXPEAUHWND__@@GE@Z 00000001400c3bb4 f   SetDlgButtons.obj
 0001:000c2be4       ?OnBtn_DebugActivityRadio@CSetDlgButtons@@KAXPEAUHWND__@@GE@Z 00000001400c3be4 f   SetDlgButtons.obj
 0001:000c2c58       ?OnBtn_DebugLog@CSetDlgButtons@@KAXPEAUHWND__@@GE@Z 00000001400c3c58 f   SetDlgButtons.obj
 0001:000c2d04       ?OnBtn_DefTerm@CSetDlgButtons@@KAXPEAUHWND__@@GE@Z 00000001400c3d04 f   SetDlgButtons.obj
 0001:000c2ff4       ?OnBtn_DosBox@CSetDlgButtons@@KAXPEAUHWND__@@GE@Z 00000001400c3ff4 f   SetDlgButtons.obj
 0001:000c3078       ?OnBtn_ExtendFonts@CSetDlgButtons@@KAXPEAUHWND__@@GE@Z 00000001400c4078 f   SetDlgButtons.obj
 0001:000c30b0       ?OnBtn_FixFarBorders@CSetDlgButtons@@KAXPEAUHWND__@@GE@Z 00000001400c40b0 f   SetDlgButtons.obj
 0001:000c30e8       ?OnBtn_FontAuto@CSetDlgButtons@@KAXPEAUHWND__@@GE@Z 00000001400c40e8 f   SetDlgButtons.obj
 0001:000c3188       ?OnBtn_GotoEditorCmd@CSetDlgButtons@@KAXPEAUHWND__@@GE@Z 00000001400c4188 f   SetDlgButtons.obj
 0001:000c3338       ?OnBtn_HideCaption@CSetDlgButtons@@KAXPEAUHWND__@@GE@Z 00000001400c4338 f   SetDlgButtons.obj
 0001:000c3394       ?OnBtn_HideCaptionAlways@CSetDlgButtons@@KAXPEAUHWND__@@GE@Z 00000001400c4394 f   SetDlgButtons.obj
 0001:000c3424       ?OnBtn_HideChildCaption@CSetDlgButtons@@KAXPEAUHWND__@@GE@Z 00000001400c4424 f   SetDlgButtons.obj
 0001:000c3450       ?OnBtn_HideInactiveConTabs@CSetDlgButtons@@KAXPEAUHWND__@@GE@Z 00000001400c4450 f   SetDlgButtons.obj
 0001:000c347c       ?OnBtn_HideOrMinOnLastTabClose@CSetDlgButtons@@KAXPEAUHWND__@@GE@Z 00000001400c447c f   SetDlgButtons.obj
 0001:000c35c0       ?OnBtn_InstallKeybHooks@CSetDlgButtons@@KAXPEAUHWND__@@GE@Z 00000001400c45c0 f   SetDlgButtons.obj
 0001:000c362c       ?OnBtn_LongOutput@CSetDlgButtons@@KAXPEAUHWND__@@GE@Z 00000001400c462c f   SetDlgButtons.obj
 0001:000c3680       ?OnBtn_MinByEscRadio@CSetDlgButtons@@KAXPEAUHWND__@@GE@Z 00000001400c4680 f   SetDlgButtons.obj
 0001:000c36e0       ?OnBtn_MinMaxKey@CSetDlgButtons@@KAXPEAUHWND__@@GE@Z 00000001400c46e0 f   SetDlgButtons.obj
 0001:000c37ac       ?OnBtn_Monospace@CSetDlgButtons@@KAXPEAUHWND__@@GE@Z 00000001400c47ac f   SetDlgButtons.obj
 0001:000c3804       ?OnBtn_MultiShowPanes@CSetDlgButtons@@KAXPEAUHWND__@@GE@Z 00000001400c4804 f   SetDlgButtons.obj
 0001:000c3854       ?OnBtn_NormalFullscreenMaximized@CSetDlgButtons@@KAXPEAUHWND__@@GE@Z 00000001400c4854 f   SetDlgButtons.obj
 0001:000c38a0       ?OnBtn_OneTabPerGroup@CSetDlgButtons@@KAXPEAUHWND__@@GE@Z 00000001400c48a0 f   SetDlgButtons.obj
 0001:000c38cc       ?OnBtn_QuakeStyles@CSetDlgButtons@@KAXPEAUHWND__@@GE@Z 00000001400c48cc f   SetDlgButtons.obj
 0001:000c3940       ?OnBtn_RConVisible@CSetDlgButtons@@KAXPEAUHWND__@@GE@Z 00000001400c4940 f   SetDlgButtons.obj
 0001:000c3988       ?OnBtn_ScrollbarStyle@CSetDlgButtons@@KAXPEAUHWND__@@GE@Z 00000001400c4988 f   SetDlgButtons.obj
 0001:000c3a90       ?OnBtn_SendConsoleSpecials@CSetDlgButtons@@KAXPEAUHWND__@@GE@Z 00000001400c4a90 f   SetDlgButtons.obj
 0001:000c3b24       ?OnBtn_ShowFarWindows@CSetDlgButtons@@KAXPEAUHWND__@@GE@Z 00000001400c4b24 f   SetDlgButtons.obj
 0001:000c3b50       ?OnBtn_SnapToDesktopEdges@CSetDlgButtons@@KAXPEAUHWND__@@GE@Z 00000001400c4b50 f   SetDlgButtons.obj
 0001:000c3b88       ?OnBtn_StatusAddDel@CSetDlgButtons@@KAXPEAUHWND__@@GE@Z 00000001400c4b88 f   SetDlgButtons.obj
 0001:000c3d54       ?OnBtn_StatusHorzSep@CSetDlgButtons@@KAXPEAUHWND__@@GE@Z 00000001400c4d54 f   SetDlgButtons.obj
 0001:000c3d9c       ?OnBtn_StatusSystemColors@CSetDlgButtons@@KAXPEAUHWND__@@GE@Z 00000001400c4d9c f   SetDlgButtons.obj
 0001:000c3dfc       ?OnBtn_StatusVertPad@CSetDlgButtons@@KAXPEAUHWND__@@GE@Z 00000001400c4dfc f   SetDlgButtons.obj
 0001:000c3e44       ?OnBtn_StatusVertSep@CSetDlgButtons@@KAXPEAUHWND__@@GE@Z 00000001400c4e44 f   SetDlgButtons.obj
 0001:000c3e78       ?OnBtn_TabsLocationBottom@CSetDlgButtons@@KAXPEAUHWND__@@GE@Z 00000001400c4e78 f   SetDlgButtons.obj
 0001:000c3ebc       ?OnBtn_TabsRadioAuto@CSetDlgButtons@@KAXPEAUHWND__@@GE@Z 00000001400c4ebc f   SetDlgButtons.obj
 0001:000c3f54       ?OnBtn_TaskbarBtnRadio@CSetDlgButtons@@KAXPEAUHWND__@@GE@Z 00000001400c4f54 f   SetDlgButtons.obj
 0001:000c3fe0       ?OnBtn_ThumbBackColors@CSetDlgButtons@@KAXPEAUHWND__@@GE@Z 00000001400c4fe0 f   SetDlgButtons.obj
 0001:000c4038       ?OnBtn_ThumbLoadFiles@CSetDlgButtons@@KAXPEAUHWND__@@GE@Z 00000001400c5038 f   SetDlgButtons.obj
 0001:000c4068       ?OnBtn_ThumbPreviewBoxColors@CSetDlgButtons@@KAXPEAUHWND__@@GE@Z 00000001400c5068 f   SetDlgButtons.obj
 0001:000c40c0       ?OnBtn_ThumbSelectionBoxColors@CSetDlgButtons@@KAXPEAUHWND__@@GE@Z 00000001400c50c0 f   SetDlgButtons.obj
 0001:000c4118       ?OnBtn_Transparent@CSetDlgButtons@@KAXPEAUHWND__@@GE@Z 00000001400c5118 f   SetDlgButtons.obj
 0001:000c41cc       ?OnBtn_TransparentSeparate@CSetDlgButtons@@KAXPEAUHWND__@@GE@Z 00000001400c51cc f   SetDlgButtons.obj
 0001:000c42b8       ?OnBtn_TrueColorer@CSetDlgButtons@@KAXPEAUHWND__@@GE@Z 00000001400c52b8 f   SetDlgButtons.obj
 0001:000c42e8       ?OnBtn_TryToCenter@CSetDlgButtons@@KAXPEAUHWND__@@GE@Z 00000001400c52e8 f   SetDlgButtons.obj
 0001:000c4328       ?OnBtn_UnicodeRangesApply@CSetDlgButtons@@KAXPEAUHWND__@@GE@Z 00000001400c5328 f   SetDlgButtons.obj
 0001:000c43e8       ?OnBtn_UpdateApplyAndCheck@CSetDlgButtons@@KAXPEAUHWND__@@GE@Z 00000001400c53e8 f   SetDlgButtons.obj
 0001:000c44a0       ?OnBtn_UpdateArcCmdLine@CSetDlgButtons@@KAXPEAUHWND__@@GE@Z 00000001400c54a0 f   SetDlgButtons.obj
 0001:000c45e4       ?OnBtn_UpdateCheckFast@CSetDlgButtons@@KAXPEAUHWND__@@GE@Z 00000001400c55e4 f   SetDlgButtons.obj
 0001:000c4630       ?OnBtn_UpdateDownloadPath@CSetDlgButtons@@KAXPEAUHWND__@@GE@Z 00000001400c5630 f   SetDlgButtons.obj
 0001:000c4774       ?OnBtn_UpdateInetTool@CSetDlgButtons@@KAXPEAUHWND__@@GE@Z 00000001400c5774 f   SetDlgButtons.obj
 0001:000c47fc       ?OnBtn_UpdateInetToolCmd@CSetDlgButtons@@KAXPEAUHWND__@@GE@Z 00000001400c57fc f   SetDlgButtons.obj
 0001:000c499c       ?OnBtn_UpdateTypeRadio@CSetDlgButtons@@KAXPEAUHWND__@@GE@Z 00000001400c599c f   SetDlgButtons.obj
 0001:000c4a18       ?OnBtn_UpdateUseProxy@CSetDlgButtons@@KAXPEAUHWND__@@GE@Z 00000001400c5a18 f   SetDlgButtons.obj
 0001:000c4ab0       ?OnBtn_UseClink@CSetDlgButtons@@KAXPEAUHWND__@@GE@Z 00000001400c5ab0 f   SetDlgButtons.obj
 0001:000c4b6c       ?OnBtn_UseCurrentSizePos@CSetDlgButtons@@KAXPEAUHWND__@@GE@Z 00000001400c5b6c f   SetDlgButtons.obj
 0001:000c4c34       ?OnBtn_UseWinArrowNumTab@CSetDlgButtons@@KAXPEAUHWND__@@GE@Z 00000001400c5c34 f   SetDlgButtons.obj
 0001:000c4c94       ?OnBtn_UserScreenTransparent@CSetDlgButtons@@KAXPEAUHWND__@@GE@Z 00000001400c5c94 f   SetDlgButtons.obj
 0001:000c4cd0       ?OnButtonClicked@CSetDlgButtons@@KA_JPEAUHWND__@@_K_J@Z 00000001400c5cd0 f   SetDlgButtons.obj
 0001:000c4d1c       ?OnButtonClicked_Cursor@CSetDlgButtons@@KAXPEAUHWND__@@GEPEAUAppSettings@@@Z 00000001400c5d1c f   SetDlgButtons.obj
 0001:000c4e60       ?ProcessButtonClick@CSetDlgButtons@@KA_NPEAUHWND__@@GE@Z 00000001400c5e60 f   SetDlgButtons.obj
 0001:000c6c84       ?ColorBoxProc@CSetDlgColors@@KA_JPEAUHWND__@@I_K_J@Z 00000001400c7c84 f   SetDlgColors.obj
 0001:000c6f4c       ?ColorCtlStatic@CSetDlgColors@@SA_JPEAUHWND__@@G0@Z 00000001400c7f4c f   SetDlgColors.obj
 0001:000c70a8       ?ColorEditDialog@CSetDlgColors@@SA_NPEAUHWND__@@G@Z 00000001400c80a8 f   SetDlgColors.obj
 0001:000c713c       ?ColorSetEdit@CSetDlgColors@@SAXPEAUHWND__@@G@Z 00000001400c813c f   SetDlgColors.obj
 0001:000c730c       ?FillBgImageColors@CSetDlgColors@@SAXPEAUHWND__@@@Z 00000001400c830c f   SetDlgColors.obj
 0001:000c7428       ?GetColorById@CSetDlgColors@@SA_NGPEAK@Z 00000001400c8428 f   SetDlgColors.obj
 0001:000c74f8       ?GetColorRef@CSetDlgColors@@SA_NPEAUHWND__@@GPEAK@Z 00000001400c84f8 f   SetDlgColors.obj
 0001:000c7564       ?OnSettingsLoaded@CSetDlgColors@@SAXAEAY0BA@$$CBK@Z 00000001400c8564 f   SetDlgColors.obj
 0001:000c7584       ?ReleaseHandles@CSetDlgColors@@SAXXZ 00000001400c8584 f   SetDlgColors.obj
 0001:000c75d8       ?SetColorById@CSetDlgColors@@SA_NGK@Z 00000001400c85d8 f   SetDlgColors.obj
 0001:000c771c       ?ShowColorDialog@CSetDlgColors@@SA_NPEAUHWND__@@PEAK@Z 00000001400c871c f   SetDlgColors.obj
 0001:000c778c       ?EnumFamCallBack@CSetDlgFonts@@KAHPEAUtagLOGFONTW@@PEAUtagNEWTEXTMETRICW@@KPEAX@Z 00000001400c878c f   SetDlgFonts.obj
 0001:000c789c       ?EnumFontCallBackEx@CSetDlgFonts@@KAHPEAUtagENUMLOGFONTEXW@@PEAUtagNEWTEXTMETRICEXW@@K_J@Z 00000001400c889c f   SetDlgFonts.obj
 0001:000c78e8       ?EnumFontsFinished@CSetDlgFonts@@SA_NXZ 00000001400c88e8 f   SetDlgFonts.obj
 0001:000c78f0       ?EnumFontsThread@CSetDlgFonts@@CAKPEAX@Z 00000001400c88f0 f   SetDlgFonts.obj
 0001:000c7bf0       ?StartEnumFontsThread@CSetDlgFonts@@KA_NXZ 00000001400c8bf0 f   SetDlgFonts.obj
 0001:000c7c30       ?EnableDlgItems@CSetDlgLists@@SAXPEAUHWND__@@PEBK_K_N@Z 00000001400c8c30 f   SetDlgLists.obj
 0001:000c7c8c       ?EnableDlgItems@CSetDlgLists@@SAXPEAUHWND__@@W4eWordItems@1@_N@Z 00000001400c8c8c f   SetDlgLists.obj
 0001:000c7cc8       ?FillCBList@CSetDlgLists@@SAXPEAUHWND__@@_NPEAPEB_WPEB_W@Z 00000001400c8cc8 f   SetDlgLists.obj
 0001:000c7d94       ?FillListBox@CSetDlgLists@@SAXPEAUHWND__@@GW4eFillListBoxItems@1@@Z 00000001400c8d94 f   SetDlgLists.obj
 0001:000c7e04       ?FillListBoxItems@CSetDlgLists@@SAXPEAUHWND__@@W4eFillListBoxItems@1@AEAE_N@Z 00000001400c8e04 f   SetDlgLists.obj
 0001:000c7e44       ?FillListBoxItems@CSetDlgLists@@SAXPEAUHWND__@@W4eFillListBoxItems@1@AEAI_N@Z 00000001400c8e44 f   SetDlgLists.obj
 0001:000c7f48       ?FillListBoxItems@CSetDlgLists@@SAXPEAUHWND__@@W4eFillListBoxItems@1@AEBI@Z 00000001400c8f48 f   SetDlgLists.obj
 0001:000c7f68       ?FillListBoxItems@CSetDlgLists@@SAXPEAUHWND__@@W4eWordItems@1@AEAI_N@Z 00000001400c8f68 f   SetDlgLists.obj
 0001:000c807c       ?GetListBoxItem@CSetDlgLists@@SA_NPEAUHWND__@@GW4eFillListBoxItems@1@AEAE@Z 00000001400c907c f   SetDlgLists.obj
 0001:000c80a4       ?GetListBoxItem@CSetDlgLists@@SA_NPEAUHWND__@@GW4eFillListBoxItems@1@AEAI@Z 00000001400c90a4 f   SetDlgLists.obj
 0001:000c8160       ?GetListBoxItem@CSetDlgLists@@SA_NPEAUHWND__@@GW4eWordItems@1@AEAI@Z 00000001400c9160 f   SetDlgLists.obj
 0001:000c8218       ?GetListItems@CSetDlgLists@@SAIW4eFillListBoxItems@1@AEAPEBUListBoxItem@@@Z 00000001400c9218 f   SetDlgLists.obj
 0001:000c83a8       ?GetListItems@CSetDlgLists@@SAIW4eWordItems@1@AEAPEBK@Z 00000001400c93a8 f   SetDlgLists.obj
 0001:000c8458       ?GetListboxCurSel@CSetDlgLists@@SAHPEAUHWND__@@I_N@Z 00000001400c9458 f   SetDlgLists.obj
 0001:000c84f8       ?GetListboxSelection@CSetDlgLists@@SAHPEAUHWND__@@IAEAPEAH@Z 00000001400c94f8 f   SetDlgLists.obj
 0001:000c85dc       ?GetSelectedString@CSetDlgLists@@SA_JPEAUHWND__@@GAEAUCEStr@@@Z 00000001400c95dc f   SetDlgLists.obj
 0001:000c872c       ?ListBoxMultiSel@CSetDlgLists@@SAXPEAUHWND__@@IH@Z 00000001400c972c f   SetDlgLists.obj
 0001:000c879c       ?SelectString@CSetDlgLists@@SAHPEAUHWND__@@GPEB_W@Z 00000001400c979c f   SetDlgLists.obj
 0001:000c87c8       ?SelectStringExact@CSetDlgLists@@SAHPEAUHWND__@@GPEB_W@Z 00000001400c97c8 f   SetDlgLists.obj
 0001:000c8970       ??0CSetPgANSI@@QEAA@XZ     00000001400c9970 f   SetPgANSI.obj
 0001:000c8994       ??_GCSetPgANSI@@UEAAPEAXI@Z 00000001400c9994 f i SetPgANSI.obj
 0001:000c8994       ??_ECSetPgANSI@@UEAAPEAXI@Z 00000001400c9994 f i SetPgANSI.obj
 0001:000c89d4       ?GetPageType@CSetPgANSI@@UEAA?AW4TabHwndIndex@@XZ 00000001400c99d4 f i SetPgANSI.obj
 0001:000c89dc       ?OnEditChanged@CSetPgANSI@@UEAA_JPEAUHWND__@@G@Z 00000001400c99dc f   SetPgANSI.obj
 0001:000c8a38       ?OnInitDialog@CSetPgANSI@@UEAA_JPEAUHWND__@@_N@Z 00000001400c9a38 f   SetPgANSI.obj
 0001:000c8ab4       ??0CSetPgAppear@@QEAA@XZ   00000001400c9ab4 f   SetPgAppear.obj
 0001:000c8ad8       ??_ECSetPgAppear@@UEAAPEAXI@Z 00000001400c9ad8 f i SetPgAppear.obj
 0001:000c8ad8       ??_GCSetPgAppear@@UEAAPEAXI@Z 00000001400c9ad8 f i SetPgAppear.obj
 0001:000c8b18       ?GetPageType@CSetPgAppear@@UEAA?AW4TabHwndIndex@@XZ 00000001400c9b18 f i SetPgAppear.obj
 0001:000c8b20       ?OnEditChanged@CSetPgAppear@@UEAA_JPEAUHWND__@@G@Z 00000001400c9b20 f   SetPgAppear.obj
 0001:000c8cc0       ?OnInitDialog@CSetPgAppear@@UEAA_JPEAUHWND__@@_N@Z 00000001400c9cc0 f   SetPgAppear.obj
 0001:000c8f30       ??0CSetPgApps@@QEAA@XZ     00000001400c9f30 f   SetPgApps.obj
 0001:000c8f68       ??1CSetPgApps@@UEAA@XZ     00000001400c9f68 f   SetPgApps.obj
 0001:000c8fc0       ??_ECSetPgApps@@UEAAPEAXI@Z 00000001400c9fc0 f i SetPgApps.obj
 0001:000c8fc0       ??_GCSetPgApps@@UEAAPEAXI@Z 00000001400c9fc0 f i SetPgApps.obj
 0001:000c8ff4       ?CreateChildDlg@CSetPgApps@@IEAA_NXZ 00000001400c9ff4 f   SetPgApps.obj
 0001:000c921c       ?DoAppAdd@CSetPgApps@@IEAAXXZ 00000001400ca21c f   SetPgApps.obj
 0001:000c92d0       ?DoAppDel@CSetPgApps@@IEAAXXZ 00000001400ca2d0 f   SetPgApps.obj
 0001:000c93f0       ?DoAppMove@CSetPgApps@@IEAAX_N@Z 00000001400ca3f0 f   SetPgApps.obj
 0001:000c94ec       ?DoEnableControls@CSetPgApps@@QEAAXG@Z 00000001400ca4ec f   SetPgApps.obj
 0001:000c962c       ?DoFillControls@CSetPgApps@@QEAAXPEBUAppSettings@@@Z 00000001400ca62c f   SetPgApps.obj
 0001:000c9918       ?DoReloadApps@CSetPgApps@@IEAAXXZ 00000001400ca918 f   SetPgApps.obj
 0001:000c997c       ?GetPageType@CSetPgApps@@UEAA?AW4TabHwndIndex@@XZ 00000001400ca97c f i SetPgApps.obj
 0001:000c9984       ?OnAppSelectionChanged@CSetPgApps@@IEAAXXZ 00000001400ca984 f   SetPgApps.obj
 0001:000c9a50       ?OnButtonClicked@CSetPgApps@@UEAA_JPEAUHWND__@@0G@Z 00000001400caa50 f   SetPgApps.obj
 0001:000c9ec8       ?OnComboBox@CSetPgApps@@UEAA_JPEAUHWND__@@GG@Z 00000001400caec8 f   SetPgApps.obj
 0001:000ca170       ?OnEditChanged@CSetPgApps@@UEAA_JPEAUHWND__@@G@Z 00000001400cb170 f   SetPgApps.obj
 0001:000ca2a8       ?OnInitDialog@CSetPgApps@@UEAA_JPEAUHWND__@@_N@Z 00000001400cb2a8 f   SetPgApps.obj
 0001:000ca4d0       ?PageDlgProc@CSetPgApps@@UEAA_JPEAUHWND__@@I_K_J@Z 00000001400cb4d0 f   SetPgApps.obj
 0001:000ca6d8       ?ProcessDpiChange@CSetPgApps@@UEAAXPEBVCDpiForDialog@@@Z 00000001400cb6d8 f   SetPgApps.obj
 0001:000ca7a8       ?SetListAppName@CSetPgApps@@IEAA_JPEBUAppSettings@@H_J@Z 00000001400cb7a8 f   SetPgApps.obj
 0001:000ca8e4       ?pageOpProc_AppsChild@CSetPgApps@@SA_JPEAUHWND__@@I_K_J@Z 00000001400cb8e4 f   SetPgApps.obj
 0001:000cab54       ??0CSetPgBackgr@@QEAA@XZ   00000001400cbb54 f   SetPgBackgr.obj
 0001:000cab78       ??_GCSetPgBackgr@@UEAAPEAXI@Z 00000001400cbb78 f i SetPgBackgr.obj
 0001:000cab78       ??_ECSetPgBackgr@@UEAAPEAXI@Z 00000001400cbb78 f i SetPgBackgr.obj
 0001:000cabb8       ?GetPageType@CSetPgBackgr@@UEAA?AW4TabHwndIndex@@XZ 00000001400cbbb8 f i SetPgBackgr.obj
 0001:000cabc0       ?OnComboBox@CSetPgBackgr@@UEAA_JPEAUHWND__@@GG@Z 00000001400cbbc0 f   SetPgBackgr.obj
 0001:000cac38       ?OnEditChanged@CSetPgBackgr@@UEAA_JPEAUHWND__@@G@Z 00000001400cbc38 f   SetPgBackgr.obj
 0001:000cae60       ?OnInitDialog@CSetPgBackgr@@UEAA_JPEAUHWND__@@_N@Z 00000001400cbe60 f   SetPgBackgr.obj
 0001:000caff4       ??0CSetPgBase@@QEAA@XZ     00000001400cbff4 f   SetPgBase.obj
 0001:000cb030       ??1CSetPgBase@@UEAA@XZ     00000001400cc030 f   SetPgBase.obj
 0001:000cb080       ??_ECSetPgBase@@UEAAPEAXI@Z 00000001400cc080 f i SetPgBase.obj
 0001:000cb080       ??_GCSetPgBase@@UEAAPEAXI@Z 00000001400cc080 f i SetPgBase.obj
 0001:000cb0b4       ?CreatePage@CSetPgBase@@SAPEAUHWND__@@PEAUConEmuSetupPages@@PEAU2@IPEBVCDpiForDialog@@@Z 00000001400cc0b4 f   SetPgBase.obj
 0001:000cb178       ?InitObject@CSetPgBase@@UEAAXPEAUHWND__@@IPEBVCDpiForDialog@@PEAUConEmuSetupPages@@@Z 00000001400cc178 f   SetPgBase.obj
 0001:000cb1b8       ?OnButtonClicked@CSetPgBase@@UEAA_JPEAUHWND__@@0G@Z 00000001400cc1b8 f   SetPgBase.obj
 0001:000cb1c4       ?OnCtlColorStatic@CSetPgBase@@UEAA_JPEAUHWND__@@PEAUHDC__@@0G@Z 00000001400cc1c4 f   SetPgBase.obj
 0001:000cb284       ?OnDpiChanged@CSetPgBase@@UEAAXPEBVCDpiForDialog@@@Z 00000001400cc284 f   SetPgBase.obj
 0001:000cb2d4       ?OnSetCursor@CSetPgBase@@UEAA_JPEAUHWND__@@0GGG@Z 00000001400cc2d4 f   SetPgBase.obj
 0001:000cb330       ?ProcessDpiChange@CSetPgBase@@UEAAXPEBVCDpiForDialog@@@Z 00000001400cc330 f   SetPgBase.obj
 0001:000cb3d4       ?pageOpProc@CSetPgBase@@SA_JPEAUHWND__@@I_K_J@Z 00000001400cc3d4 f   SetPgBase.obj
 0001:000cbc44       ?setCtrlTitleByHotkey@CSetPgBase@@SAXPEAUHWND__@@GHPEB_W1@Z 00000001400ccc44 f   SetPgBase.obj
 0001:000cbeb0       ?setHotkeyCheckbox@CSetPgBase@@SAXPEAUHWND__@@GHPEB_W1I@Z 00000001400cceb0 f   SetPgBase.obj
 0001:000cc054       ??0CSetPgChildGui@@QEAA@XZ 00000001400cd054 f   SetPgChildGui.obj
 0001:000cc078       ??_ECSetPgChildGui@@UEAAPEAXI@Z 00000001400cd078 f i SetPgChildGui.obj
 0001:000cc078       ??_GCSetPgChildGui@@UEAAPEAXI@Z 00000001400cd078 f i SetPgChildGui.obj
 0001:000cc0b8       ?GetPageType@CSetPgChildGui@@UEAA?AW4TabHwndIndex@@XZ 00000001400cd0b8 f i SetPgChildGui.obj
 0001:000cc0c0       ?OnInitDialog@CSetPgChildGui@@UEAA_JPEAUHWND__@@_N@Z 00000001400cd0c0 f   SetPgChildGui.obj
 0001:000cc10c       ??0CSetPgColors@@QEAA@XZ   00000001400cd10c f   SetPgColors.obj
 0001:000cc130       ??_GCSetPgColors@@UEAAPEAXI@Z 00000001400cd130 f i SetPgColors.obj
 0001:000cc130       ??_ECSetPgColors@@UEAAPEAXI@Z 00000001400cd130 f i SetPgColors.obj
 0001:000cc170       ?ColorSchemeSaveDelete@CSetPgColors@@QEAAXGE@Z 00000001400cd170 f   SetPgColors.obj
 0001:000cc274       ?GetPageType@CSetPgColors@@UEAA?AW4TabHwndIndex@@XZ 00000001400cd274 f i SetPgColors.obj
 0001:000cc27c       ?OnComboBox@CSetPgColors@@UEAA_JPEAUHWND__@@GG@Z 00000001400cd27c f   SetPgColors.obj
 0001:000cc574       ?OnEditChanged@CSetPgColors@@UEAA_JPEAUHWND__@@G@Z 00000001400cd574 f   SetPgColors.obj
 0001:000cc6b0       ?OnInitDialog@CSetPgColors@@UEAA_JPEAUHWND__@@_N@Z 00000001400cd6b0 f   SetPgColors.obj
 0001:000cca04       ??$swprintf_c@$0BIE@@@YAHAEAY0BIE@_WPEB_WZZ 00000001400cda04 f i SetPgComspec.obj
 0001:000cca30       ??0CSetPgComspec@@QEAA@XZ  00000001400cda30 f   SetPgComspec.obj
 0001:000cca54       ??_GCSetPgComspec@@UEAAPEAXI@Z 00000001400cda54 f i SetPgComspec.obj
 0001:000cca54       ??_ECSetPgComspec@@UEAAPEAXI@Z 00000001400cda54 f i SetPgComspec.obj
 0001:000cca94       ?GetPageType@CSetPgComspec@@UEAA?AW4TabHwndIndex@@XZ 00000001400cda94 f i SetPgComspec.obj
 0001:000cca9c       ?LoadAutorunValue@CSetPgComspec@@QEAAPEA_WPEAUHKEY__@@_N@Z 00000001400cda9c f   SetPgComspec.obj
 0001:000ccc44       ?OnEditChanged@CSetPgComspec@@UEAA_JPEAUHWND__@@G@Z 00000001400cdc44 f   SetPgComspec.obj
 0001:000ccc78       ?OnInitDialog@CSetPgComspec@@UEAA_JPEAUHWND__@@_N@Z 00000001400cdc78 f   SetPgComspec.obj
 0001:000ccd74       ?RegisterCmdAutorun@CSetPgComspec@@QEAAX_N0@Z 00000001400cdd74 f   SetPgComspec.obj
 0001:000ccfdc       ?ReloadAutorun@CSetPgComspec@@QEAAXXZ 00000001400cdfdc f   SetPgComspec.obj
 0001:000cd0cc       ??0CSetPgConfirm@@QEAA@XZ  00000001400ce0cc f   SetPgConfirm.obj
 0001:000cd0f0       ??_GCSetPgConfirm@@UEAAPEAXI@Z 00000001400ce0f0 f i SetPgConfirm.obj
 0001:000cd0f0       ??_ECSetPgConfirm@@UEAAPEAXI@Z 00000001400ce0f0 f i SetPgConfirm.obj
 0001:000cd130       ?GetPageType@CSetPgConfirm@@UEAA?AW4TabHwndIndex@@XZ 00000001400ce130 f i SetPgConfirm.obj
 0001:000cd138       ?OnInitDialog@CSetPgConfirm@@UEAA_JPEAUHWND__@@_N@Z 00000001400ce138 f   SetPgConfirm.obj
 0001:000cd274       ??0CSetPgCursor@@QEAA@XZ   00000001400ce274 f   SetPgCursor.obj
 0001:000cd298       ??_ECSetPgCursor@@UEAAPEAXI@Z 00000001400ce298 f i SetPgCursor.obj
 0001:000cd298       ??_GCSetPgCursor@@UEAAPEAXI@Z 00000001400ce298 f i SetPgCursor.obj
 0001:000cd2d8       ?GetPageType@CSetPgCursor@@UEAA?AW4TabHwndIndex@@XZ 00000001400ce2d8 f i SetPgCursor.obj
 0001:000cd2e0       ?InitCursorCtrls@CSetPgCursor@@SAXPEAUHWND__@@PEBUAppSettings@@@Z 00000001400ce2e0 f   SetPgCursor.obj
 0001:000cd494       ?OnEditChanged@CSetPgCursor@@UEAA_JPEAUHWND__@@G@Z 00000001400ce494 f   SetPgCursor.obj
 0001:000cd4f0       ?OnEditChangedCursor@CSetPgCursor@@SA_NPEAUHWND__@@GPEAUAppSettings@@@Z 00000001400ce4f0 f   SetPgCursor.obj
 0001:000cd614       ?OnInitDialog@CSetPgCursor@@UEAA_JPEAUHWND__@@_N@Z 00000001400ce614 f   SetPgCursor.obj
 0001:000cd638       ??0CSetPgDebug@@QEAA@XZ    00000001400ce638 f   SetPgDebug.obj
 0001:000cd664       ??_GCSetPgDebug@@UEAAPEAXI@Z 00000001400ce664 f i SetPgDebug.obj
 0001:000cd664       ??_ECSetPgDebug@@UEAAPEAXI@Z 00000001400ce664 f i SetPgDebug.obj
 0001:000cd6a4       ?GetActivityLoggingType@CSetPgDebug@@SA?AW4GuiLoggingType@@XZ 00000001400ce6a4 f   SetPgDebug.obj
 0001:000cd6c8       ?GetPageType@CSetPgDebug@@UEAA?AW4TabHwndIndex@@XZ 00000001400ce6c8 f i SetPgDebug.obj
 0001:000cd6d0       ?OnActivityLogNotify@CSetPgDebug@@QEAA_J_K_J@Z 00000001400ce6d0 f   SetPgDebug.obj
 0001:000cd8e0       ?OnInitDialog@CSetPgDebug@@UEAA_JPEAUHWND__@@_N@Z 00000001400ce8e0 f   SetPgDebug.obj
 0001:000cda1c       ?OnSaveActivityLogFile@CSetPgDebug@@QEAAXXZ 00000001400cea1c f   SetPgDebug.obj
 0001:000cdd28       ?SetLoggingType@CSetPgDebug@@QEAAXW4GuiLoggingType@@@Z 00000001400ced28 f   SetPgDebug.obj
 0001:000ce53c       ?debugLog@CSetPgDebug@@QEAAX_K_J@Z 00000001400cf53c f   SetPgDebug.obj
 0001:000ce58c       ?debugLogCommand@CSetPgDebug@@QEAAXPEAULogCommandsData@1@@Z 00000001400cf58c f   SetPgDebug.obj
 0001:000ce818       ?debugLogCommand@CSetPgDebug@@SAXPEAUCESERVER_REQ@@HKKPEB_W0@Z 00000001400cf818 f   SetPgDebug.obj
 0001:000cea04       ?debugLogInfo@CSetPgDebug@@QEAAXPEAUCESERVER_REQ_PEEKREADINFO@@@Z 00000001400cfa04 f   SetPgDebug.obj
 0001:000cf1d0       ?debugLogShell@CSetPgDebug@@QEAAXPEAUDebugLogShellActivity@1@@Z 00000001400d01d0 f   SetPgDebug.obj
 0001:000cf64c       ?debugLogShell@CSetPgDebug@@SAXKPEAUCESERVER_REQ_ONCREATEPROCESS@@@Z 00000001400d064c f   SetPgDebug.obj
 0001:000cfae8       ?debugLogShellText@CSetPgDebug@@KAXAEAPEA_WPEB_W@Z 00000001400d0ae8 f   SetPgDebug.obj
 0001:000cfc30       ?debugLogString@CSetPgDebug@@QEAAXPEAULogRConString@1@@Z 00000001400d0c30 f   SetPgDebug.obj
 0001:000cfdc4       ??0CSetPgDefTerm@@QEAA@XZ  00000001400d0dc4 f   SetPgDefTerm.obj
 0001:000cfde8       ??_ECSetPgDefTerm@@UEAAPEAXI@Z 00000001400d0de8 f i SetPgDefTerm.obj
 0001:000cfde8       ??_GCSetPgDefTerm@@UEAAPEAXI@Z 00000001400d0de8 f i SetPgDefTerm.obj
 0001:000cfe28       ?GetPageType@CSetPgDefTerm@@UEAA?AW4TabHwndIndex@@XZ 00000001400d0e28 f i SetPgDefTerm.obj
 0001:000cfe30       ?OnEditChanged@CSetPgDefTerm@@UEAA_JPEAUHWND__@@G@Z 00000001400d0e30 f   SetPgDefTerm.obj
 0001:000cfec8       ?OnInitDialog@CSetPgDefTerm@@UEAA_JPEAUHWND__@@_N@Z 00000001400d0ec8 f   SetPgDefTerm.obj
 0001:000d0088       ??0CSetPgEnvironment@@QEAA@XZ 00000001400d1088 f   SetPgEnvironment.obj
 0001:000d00ac       ??_ECSetPgEnvironment@@UEAAPEAXI@Z 00000001400d10ac f i SetPgEnvironment.obj
 0001:000d00ac       ??_GCSetPgEnvironment@@UEAAPEAXI@Z 00000001400d10ac f i SetPgEnvironment.obj
 0001:000d00ec       ?GetPageType@CSetPgEnvironment@@UEAA?AW4TabHwndIndex@@XZ 00000001400d10ec f i SetPgEnvironment.obj
 0001:000d00f4       ?OnEditChanged@CSetPgEnvironment@@UEAA_JPEAUHWND__@@G@Z 00000001400d10f4 f   SetPgEnvironment.obj
 0001:000d0150       ?OnInitDialog@CSetPgEnvironment@@UEAA_JPEAUHWND__@@_N@Z 00000001400d1150 f   SetPgEnvironment.obj
 0001:000d01c8       ??0CSetPgFar@@QEAA@XZ      00000001400d11c8 f   SetPgFar.obj
 0001:000d01ec       ??_GCSetPgFar@@UEAAPEAXI@Z 00000001400d11ec f i SetPgFar.obj
 0001:000d01ec       ??_ECSetPgFar@@UEAAPEAXI@Z 00000001400d11ec f i SetPgFar.obj
 0001:000d022c       ?GetPageType@CSetPgFar@@UEAA?AW4TabHwndIndex@@XZ 00000001400d122c f i SetPgFar.obj
 0001:000d0234       ?OnComboBox@CSetPgFar@@UEAA_JPEAUHWND__@@GG@Z 00000001400d1234 f   SetPgFar.obj
 0001:000d028c       ?OnEditChanged@CSetPgFar@@UEAA_JPEAUHWND__@@G@Z 00000001400d128c f   SetPgFar.obj
 0001:000d03b4       ?OnInitDialog@CSetPgFar@@UEAA_JPEAUHWND__@@_N@Z 00000001400d13b4 f   SetPgFar.obj
 0001:000d0698       ??0CSetPgFarMacro@@QEAA@XZ 00000001400d1698 f   SetPgFarMacro.obj
 0001:000d06bc       ??_ECSetPgFarMacro@@UEAAPEAXI@Z 00000001400d16bc f i SetPgFarMacro.obj
 0001:000d06bc       ??_GCSetPgFarMacro@@UEAAPEAXI@Z 00000001400d16bc f i SetPgFarMacro.obj
 0001:000d06fc       ?GetPageType@CSetPgFarMacro@@UEAA?AW4TabHwndIndex@@XZ 00000001400d16fc f i SetPgFarMacro.obj
 0001:000d0704       ?OnComboBox@CSetPgFarMacro@@UEAA_JPEAUHWND__@@GG@Z 00000001400d1704 f   SetPgFarMacro.obj
 0001:000d07dc       ?OnInitDialog@CSetPgFarMacro@@UEAA_JPEAUHWND__@@_N@Z 00000001400d17dc f   SetPgFarMacro.obj
 0001:000d09b0       ??0CSetPgFeatures@@QEAA@XZ 00000001400d19b0 f   SetPgFeatures.obj
 0001:000d09d4       ??_ECSetPgFeatures@@UEAAPEAXI@Z 00000001400d19d4 f i SetPgFeatures.obj
 0001:000d09d4       ??_GCSetPgFeatures@@UEAAPEAXI@Z 00000001400d19d4 f i SetPgFeatures.obj
 0001:000d0a14       ?GetPageType@CSetPgFeatures@@UEAA?AW4TabHwndIndex@@XZ 00000001400d1a14 f i SetPgFeatures.obj
 0001:000d0a1c       ?OnEditChanged@CSetPgFeatures@@UEAA_JPEAUHWND__@@G@Z 00000001400d1a1c f   SetPgFeatures.obj
 0001:000d0a80       ?OnInitDialog@CSetPgFeatures@@UEAA_JPEAUHWND__@@_N@Z 00000001400d1a80 f   SetPgFeatures.obj
 0001:000d0d58       ?UpdateLogLocation@CSetPgFeatures@@IEAAXXZ 00000001400d1d58 f   SetPgFeatures.obj
 0001:000d0e30       ??0CSetPgFonts@@QEAA@XZ    00000001400d1e30 f   SetPgFonts.obj
 0001:000d0e54       ??_ECSetPgFonts@@UEAAPEAXI@Z 00000001400d1e54 f i SetPgFonts.obj
 0001:000d0e54       ??_GCSetPgFonts@@UEAAPEAXI@Z 00000001400d1e54 f i SetPgFonts.obj
 0001:000d0e94       ?CopyFontsTo@CSetPgFonts@@QEAAXPEAUHWND__@@HZZ 00000001400d1e94 f   SetPgFonts.obj
 0001:000d10a4       ?OnComboBox@CSetPgFonts@@UEAA_JPEAUHWND__@@GG@Z 00000001400d20a4 f   SetPgFonts.obj
 0001:000d1278       ?OnInitDialog@CSetPgFonts@@UEAA_JPEAUHWND__@@_N@Z 00000001400d2278 f   SetPgFonts.obj
 0001:000d1858       ??0CSetPgGeneral@@QEAA@XZ  00000001400d2858 f   SetPgGeneral.obj
 0001:000d188c       ??_ECSetPgGeneral@@UEAAPEAXI@Z 00000001400d288c f i SetPgGeneral.obj
 0001:000d188c       ??_GCSetPgGeneral@@UEAAPEAXI@Z 00000001400d288c f i SetPgGeneral.obj
 0001:000d18dc       ?ColorBoxProc@CSetPgGeneral@@KA_JPEAUHWND__@@I_K_J@Z 00000001400d28dc f   SetPgGeneral.obj
 0001:000d1a04       ?OnComboBox@CSetPgGeneral@@UEAA_JPEAUHWND__@@GG@Z 00000001400d2a04 f   SetPgGeneral.obj
 0001:000d1bc4       ?OnInitDialog@CSetPgGeneral@@UEAA_JPEAUHWND__@@_N@Z 00000001400d2bc4 f   SetPgGeneral.obj
 0001:000d2188       ??0CSetPgHilight@@QEAA@XZ  00000001400d3188 f   SetPgHilight.obj
 0001:000d21ac       ??_ECSetPgHilight@@UEAAPEAXI@Z 00000001400d31ac f i SetPgHilight.obj
 0001:000d21ac       ??_GCSetPgHilight@@UEAAPEAXI@Z 00000001400d31ac f i SetPgHilight.obj
 0001:000d21ec       ?GetPageType@CSetPgHilight@@UEAA?AW4TabHwndIndex@@XZ 00000001400d31ec f i SetPgHilight.obj
 0001:000d21f4       ?OnComboBox@CSetPgHilight@@UEAA_JPEAUHWND__@@GG@Z 00000001400d31f4 f   SetPgHilight.obj
 0001:000d2284       ?OnInitDialog@CSetPgHilight@@UEAA_JPEAUHWND__@@_N@Z 00000001400d3284 f   SetPgHilight.obj
 0001:000d23dc       ??0CSetPgInfo@@QEAA@XZ     00000001400d33dc f   SetPgInfo.obj
 0001:000d2400       ??_ECSetPgInfo@@UEAAPEAXI@Z 00000001400d3400 f i SetPgInfo.obj
 0001:000d2400       ??_GCSetPgInfo@@UEAAPEAXI@Z 00000001400d3400 f i SetPgInfo.obj
 0001:000d2440       ?FillConsoleMode@CSetPgInfo@@QEAAXPEAUHWND__@@PEAVCRealConsole@@@Z 00000001400d3440 f   SetPgInfo.obj
 0001:000d2588       ?FillCursorInfo@CSetPgInfo@@QEAAXPEAUHWND__@@PEBUConsoleInfoArg@@@Z 00000001400d3588 f   SetPgInfo.obj
 0001:000d2614       ?FillFontInfo@CSetPgInfo@@QEAAXPEAUHWND__@@@Z 00000001400d3614 f   SetPgInfo.obj
 0001:000d2754       ?GetPageType@CSetPgInfo@@UEAA?AW4TabHwndIndex@@XZ 00000001400d3754 f i SetPgInfo.obj
 0001:000d275c       ?OnInitDialog@CSetPgInfo@@UEAA_JPEAUHWND__@@_N@Z 00000001400d375c f   SetPgInfo.obj
 0001:000d2858       ?OnPostLocalize@CSetPgInfo@@UEAAXPEAUHWND__@@@Z 00000001400d3858 f   SetPgInfo.obj
 0001:000d28e4       ??$SafeDelete@USwitch@@@@YAXAEAPEAUSwitch@@@Z 00000001400d38e4 f i SetPgIntegr.obj
 0001:000d2938       ??0CSetPgIntegr@@QEAA@XZ   00000001400d3938 f   SetPgIntegr.obj
 0001:000d295c       ??0Switch@@QEAA@$$QEAPEA_W0@Z 00000001400d395c f i SetPgIntegr.obj
 0001:000d29c8       ??0SwitchParser@@QEAA@XZ   00000001400d39c8 f i SetPgIntegr.obj
 0001:000d2a50       ??1SwitchParser@@QEAA@XZ   00000001400d3a50 f i SetPgIntegr.obj
 0001:000d2ad0       ??_ECSetPgIntegr@@UEAAPEAXI@Z 00000001400d3ad0 f i SetPgIntegr.obj
 0001:000d2ad0       ??_GCSetPgIntegr@@UEAAPEAXI@Z 00000001400d3ad0 f i SetPgIntegr.obj
 0001:000d2b10       ?CreateCommand@SwitchParser@@QEAAPEB_WAEAUCEStr@@@Z 00000001400d3b10 f i SetPgIntegr.obj
 0001:000d2cc8       ?FillHereValues@CSetPgIntegr@@IEAAXG@Z 00000001400d3cc8 f   SetPgIntegr.obj
 0001:000d3048       ?GetNextPair@SwitchParser@@QEAAPEAUSwitch@@AEAPEB_W@Z 00000001400d4048 f i SetPgIntegr.obj
 0001:000d3104       ?GetNextSwitch@SwitchParser@@QEAAPEAUSwitch@@AEAPEB_WAEAUCEStr@@@Z 00000001400d4104 f i SetPgIntegr.obj
 0001:000d31e8       ?GetPageType@CSetPgIntegr@@UEAA?AW4TabHwndIndex@@XZ 00000001400d41e8 f i SetPgIntegr.obj
 0001:000d31f0       ?IsIgnored@SwitchParser@@QEAA_NPEAUSwitch@@AEAV?$MArray@PEAUSwitch@@@@@Z 00000001400d41f0 f i SetPgIntegr.obj
 0001:000d3270       ?LoadCommand@SwitchParser@@QEAAXPEB_W@Z 00000001400d4270 f i SetPgIntegr.obj
 0001:000d3624       ?OnInitDialog@CSetPgIntegr@@UEAA_JPEAUHWND__@@_N@Z 00000001400d4624 f   SetPgIntegr.obj
 0001:000d3850       ?PageDlgProc@CSetPgIntegr@@UEAA_JPEAUHWND__@@I_K_J@Z 00000001400d4850 f   SetPgIntegr.obj
 0001:000d3a58       ?ParseStdSwitches@SwitchParser@@QEAAXXZ 00000001400d4a58 f i SetPgIntegr.obj
 0001:000d3b84       ?RegisterShell@CSetPgIntegr@@SAXPEB_W0000@Z 00000001400d4b84 f   SetPgIntegr.obj
 0001:000d40a8       ?ReleaseVectors@SwitchParser@@QEAAXXZ 00000001400d50a8 f i SetPgIntegr.obj
 0001:000d4138       ?ReloadHereList@CSetPgIntegr@@IEAA_NPEAH0@Z 00000001400d5138 f   SetPgIntegr.obj
 0001:000d456c       ?ShellIntegration@CSetPgIntegr@@QEAAXPEAUHWND__@@W4ShellIntegrType@1@_N2@Z 00000001400d556c f   SetPgIntegr.obj
 0001:000d4860       ?UnregisterShell@CSetPgIntegr@@SAXPEB_W@Z 00000001400d5860 f   SetPgIntegr.obj
 0001:000d48ec       ?UnregisterShellInvalids@CSetPgIntegr@@SAXXZ 00000001400d58ec f   SetPgIntegr.obj
 0001:000d4bc8       ??0CSetPgKeyboard@@QEAA@XZ 00000001400d5bc8 f   SetPgKeyboard.obj
 0001:000d4bec       ??_GCSetPgKeyboard@@UEAAPEAXI@Z 00000001400d5bec f i SetPgKeyboard.obj
 0001:000d4bec       ??_ECSetPgKeyboard@@UEAAPEAXI@Z 00000001400d5bec f i SetPgKeyboard.obj
 0001:000d4c2c       ?GetPageType@CSetPgKeyboard@@UEAA?AW4TabHwndIndex@@XZ 00000001400d5c2c f i SetPgKeyboard.obj
 0001:000d4c34       ?OnInitDialog@CSetPgKeyboard@@UEAA_JPEAUHWND__@@_N@Z 00000001400d5c34 f   SetPgKeyboard.obj
 0001:000d4e04       ??0CSetPgKeys@@QEAA@XZ     00000001400d5e04 f   SetPgKeys.obj
 0001:000d4e4c       ??1CSetPgKeys@@UEAA@XZ     00000001400d5e4c f   SetPgKeys.obj
 0001:000d4e78       ??_GCSetPgKeys@@UEAAPEAXI@Z 00000001400d5e78 f i SetPgKeys.obj
 0001:000d4e78       ??_ECSetPgKeys@@UEAAPEAXI@Z 00000001400d5e78 f i SetPgKeys.obj
 0001:000d4eac       ?FillHotKeysList@CSetPgKeys@@QEAAXPEAUHWND__@@_N@Z 00000001400d5eac f   SetPgKeys.obj
 0001:000d53fc       ?GetPageType@CSetPgKeys@@UEAA?AW4TabHwndIndex@@XZ 00000001400d63fc f i SetPgKeys.obj
 0001:000d5404       ?HotkeysCompare@CSetPgKeys@@SAH_J00@Z 00000001400d6404 f   SetPgKeys.obj
 0001:000d5598       ?OnButtonClicked@CSetPgKeys@@UEAA_JPEAUHWND__@@0G@Z 00000001400d6598 f   SetPgKeys.obj
 0001:000d55c0       ?OnComboBox@CSetPgKeys@@UEAA_JPEAUHWND__@@GG@Z 00000001400d65c0 f   SetPgKeys.obj
 0001:000d58bc       ?OnEditChanged@CSetPgKeys@@UEAA_JPEAUHWND__@@G@Z 00000001400d68bc f   SetPgKeys.obj
 0001:000d59e4       ?OnHotkeysNotify@CSetPgKeys@@QEAA_JPEAUHWND__@@_K_J@Z 00000001400d69e4 f   SetPgKeys.obj
 0001:000d5eec       ?OnInitDialog@CSetPgKeys@@UEAA_JPEAUHWND__@@_N@Z 00000001400d6eec f   SetPgKeys.obj
 0001:000d6208       ?PageDlgProc@CSetPgKeys@@UEAA_JPEAUHWND__@@I_K_J@Z 00000001400d7208 f   SetPgKeys.obj
 0001:000d6328       ?QueryDialogCancel@CSetPgKeys@@UEAA_NXZ 00000001400d7328 f   SetPgKeys.obj
 0001:000d6398       ?ReInitHotkeys@CSetPgKeys@@SAXXZ 00000001400d7398 f   SetPgKeys.obj
 0001:000d63f4       ?RefilterHotkeys@CSetPgKeys@@QEAAX_N@Z 00000001400d73f4 f   SetPgKeys.obj
 0001:000d6424       ?SetHotkeyVkMod@CSetPgKeys@@QEAAXPEAUConEmuHotKey@@K@Z 00000001400d7424 f   SetPgKeys.obj
 0001:000d6454       ??0CSetPgMarkCopy@@QEAA@XZ 00000001400d7454 f   SetPgMarkCopy.obj
 0001:000d647c       ??_ECSetPgMarkCopy@@UEAAPEAXI@Z 00000001400d747c f i SetPgMarkCopy.obj
 0001:000d647c       ??_GCSetPgMarkCopy@@UEAAPEAXI@Z 00000001400d747c f i SetPgMarkCopy.obj
 0001:000d64bc       ?GetPageType@CSetPgMarkCopy@@UEAA?AW4TabHwndIndex@@XZ 00000001400d74bc f i SetPgMarkCopy.obj
 0001:000d64c4       ?MarkCopyPreviewProc@CSetPgMarkCopy@@KA_JPEAUHWND__@@I_K_J@Z 00000001400d74c4 f   SetPgMarkCopy.obj
 0001:000d67c8       ?OnComboBox@CSetPgMarkCopy@@UEAA_JPEAUHWND__@@GG@Z 00000001400d77c8 f   SetPgMarkCopy.obj
 0001:000d6988       ?OnEditChanged@CSetPgMarkCopy@@UEAA_JPEAUHWND__@@G@Z 00000001400d7988 f   SetPgMarkCopy.obj
 0001:000d69cc       ?OnInitDialog@CSetPgMarkCopy@@UEAA_JPEAUHWND__@@_N@Z 00000001400d79cc f   SetPgMarkCopy.obj
 0001:000d6dfc       ??0CSetPgMouse@@QEAA@XZ    00000001400d7dfc f   SetPgMouse.obj
 0001:000d6e20       ??_GCSetPgMouse@@UEAAPEAXI@Z 00000001400d7e20 f i SetPgMouse.obj
 0001:000d6e20       ??_ECSetPgMouse@@UEAAPEAXI@Z 00000001400d7e20 f i SetPgMouse.obj
 0001:000d6e60       ?GetPageType@CSetPgMouse@@UEAA?AW4TabHwndIndex@@XZ 00000001400d7e60 f i SetPgMouse.obj
 0001:000d6e68       ?OnComboBox@CSetPgMouse@@UEAA_JPEAUHWND__@@GG@Z 00000001400d7e68 f   SetPgMouse.obj
 0001:000d6f48       ?OnInitDialog@CSetPgMouse@@UEAA_JPEAUHWND__@@_N@Z 00000001400d7f48 f   SetPgMouse.obj
 0001:000d70ec       ?OnPostLocalize@CSetPgMouse@@UEAAXPEAUHWND__@@@Z 00000001400d80ec f   SetPgMouse.obj
 0001:000d711c       ??0CSetPgPaste@@QEAA@XZ    00000001400d811c f   SetPgPaste.obj
 0001:000d7140       ??_ECSetPgPaste@@UEAAPEAXI@Z 00000001400d8140 f i SetPgPaste.obj
 0001:000d7140       ??_GCSetPgPaste@@UEAAPEAXI@Z 00000001400d8140 f i SetPgPaste.obj
 0001:000d7180       ?GetPageType@CSetPgPaste@@UEAA?AW4TabHwndIndex@@XZ 00000001400d8180 f i SetPgPaste.obj
 0001:000d7188       ?OnBtn_ClipConfirmEnter@CSetPgPaste@@SAXPEAUHWND__@@GE@Z 00000001400d8188 f   SetPgPaste.obj
 0001:000d719c       ?OnBtn_ClipConfirmLimit@CSetPgPaste@@SAXPEAUHWND__@@GE@Z 00000001400d819c f   SetPgPaste.obj
 0001:000d721c       ?OnBtn_ClipCtrlV@CSetPgPaste@@SAXPEAUHWND__@@GE@Z 00000001400d821c f   SetPgPaste.obj
 0001:000d7274       ?OnBtn_ClipPosixCvt@CSetPgPaste@@SAXPEAUHWND__@@GE@Z 00000001400d8274 f   SetPgPaste.obj
 0001:000d72b4       ?OnBtn_ClipShiftIns@CSetPgPaste@@SAXPEAUHWND__@@GE@Z 00000001400d82b4 f   SetPgPaste.obj
 0001:000d730c       ?OnEditChanged@CSetPgPaste@@UEAA_JPEAUHWND__@@G@Z 00000001400d830c f   SetPgPaste.obj
 0001:000d73c8       ?OnInitDialog@CSetPgPaste@@UEAA_JPEAUHWND__@@_N@Z 00000001400d83c8 f   SetPgPaste.obj
 0001:000d7504       ?OnPostLocalize@CSetPgPaste@@UEAAXPEAUHWND__@@@Z 00000001400d8504 f   SetPgPaste.obj
 0001:000d7564       ??0CSetPgQuake@@QEAA@XZ    00000001400d8564 f   SetPgQuake.obj
 0001:000d7588       ??_GCSetPgQuake@@UEAAPEAXI@Z 00000001400d8588 f i SetPgQuake.obj
 0001:000d7588       ??_ECSetPgQuake@@UEAAPEAXI@Z 00000001400d8588 f i SetPgQuake.obj
 0001:000d75c8       ?GetPageType@CSetPgQuake@@UEAA?AW4TabHwndIndex@@XZ 00000001400d85c8 f i SetPgQuake.obj
 0001:000d75d0       ?OnEditChanged@CSetPgQuake@@UEAA_JPEAUHWND__@@G@Z 00000001400d85d0 f   SetPgQuake.obj
 0001:000d770c       ?OnInitDialog@CSetPgQuake@@UEAA_JPEAUHWND__@@_N@Z 00000001400d870c f   SetPgQuake.obj
 0001:000d7868       ??0CSetPgSizePos@@QEAA@XZ  00000001400d8868 f   SetPgSizePos.obj
 0001:000d788c       ??_ECSetPgSizePos@@UEAAPEAXI@Z 00000001400d888c f i SetPgSizePos.obj
 0001:000d788c       ??_GCSetPgSizePos@@UEAAPEAXI@Z 00000001400d888c f i SetPgSizePos.obj
 0001:000d78cc       ?EnablePosSizeControls@CSetPgSizePos@@QEAAXPEAUHWND__@@@Z 00000001400d88cc f   SetPgSizePos.obj
 0001:000d7998       ?FillSizeControls@CSetPgSizePos@@QEAAXPEAUHWND__@@@Z 00000001400d8998 f   SetPgSizePos.obj
 0001:000d7ad8       ?GetPageType@CSetPgSizePos@@UEAA?AW4TabHwndIndex@@XZ 00000001400d8ad8 f i SetPgSizePos.obj
 0001:000d7ae0       ?OnComboBox@CSetPgSizePos@@UEAA_JPEAUHWND__@@GG@Z 00000001400d8ae0 f   SetPgSizePos.obj
 0001:000d7b50       ?OnEditChanged@CSetPgSizePos@@UEAA_JPEAUHWND__@@G@Z 00000001400d8b50 f   SetPgSizePos.obj
 0001:000d7de4       ?OnInitDialog@CSetPgSizePos@@UEAA_JPEAUHWND__@@_N@Z 00000001400d8de4 f   SetPgSizePos.obj
 0001:000d8238       ?OnPostLocalize@CSetPgSizePos@@UEAAXPEAUHWND__@@@Z 00000001400d9238 f   SetPgSizePos.obj
 0001:000d8314       ??0CSetPgStartup@@QEAA@XZ  00000001400d9314 f   SetPgStartup.obj
 0001:000d8338       ??_GCSetPgStartup@@UEAAPEAXI@Z 00000001400d9338 f i SetPgStartup.obj
 0001:000d8338       ??_ECSetPgStartup@@UEAAPEAXI@Z 00000001400d9338 f i SetPgStartup.obj
 0001:000d8378       ?GetPageType@CSetPgStartup@@UEAA?AW4TabHwndIndex@@XZ 00000001400d9378 f i SetPgStartup.obj
 0001:000d8380       ?OnInitDialog@CSetPgStartup@@UEAA_JPEAUHWND__@@_N@Z 00000001400d9380 f   SetPgStartup.obj
 0001:000d83a4       ?PageDlgProc@CSetPgStartup@@UEAA_JPEAUHWND__@@I_K_J@Z 00000001400d93a4 f   SetPgStartup.obj
 0001:000d8be0       ??0CSetPgStatus@@QEAA@XZ   00000001400d9be0 f   SetPgStatus.obj
 0001:000d8c04       ??_ECSetPgStatus@@UEAAPEAXI@Z 00000001400d9c04 f i SetPgStatus.obj
 0001:000d8c04       ??_GCSetPgStatus@@UEAAPEAXI@Z 00000001400d9c04 f i SetPgStatus.obj
 0001:000d8c44       ?GetPageType@CSetPgStatus@@UEAA?AW4TabHwndIndex@@XZ 00000001400d9c44 f i SetPgStatus.obj
 0001:000d8c4c       ?OnComboBox@CSetPgStatus@@UEAA_JPEAUHWND__@@GG@Z 00000001400d9c4c f   SetPgStatus.obj
 0001:000d8dc4       ?OnEditChanged@CSetPgStatus@@UEAA_JPEAUHWND__@@G@Z 00000001400d9dc4 f   SetPgStatus.obj
 0001:000d8e68       ?OnInitDialog@CSetPgStatus@@UEAA_JPEAUHWND__@@_N@Z 00000001400d9e68 f   SetPgStatus.obj
 0001:000d904c       ?UpdateStatusItems@CSetPgStatus@@QEAAXPEAUHWND__@@@Z 00000001400da04c f   SetPgStatus.obj
 0001:000d91e8       ??0CSetPgTabs@@QEAA@XZ     00000001400da1e8 f   SetPgTabs.obj
 0001:000d920c       ??_GCSetPgTabs@@UEAAPEAXI@Z 00000001400da20c f i SetPgTabs.obj
 0001:000d920c       ??_ECSetPgTabs@@UEAAPEAXI@Z 00000001400da20c f i SetPgTabs.obj
 0001:000d924c       ?GetPageType@CSetPgTabs@@UEAA?AW4TabHwndIndex@@XZ 00000001400da24c f i SetPgTabs.obj
 0001:000d9254       ?OnComboBox@CSetPgTabs@@UEAA_JPEAUHWND__@@GG@Z 00000001400da254 f   SetPgTabs.obj
 0001:000d9484       ?OnEditChanged@CSetPgTabs@@UEAA_JPEAUHWND__@@G@Z 00000001400da484 f   SetPgTabs.obj
 0001:000d96c4       ?OnInitDialog@CSetPgTabs@@UEAA_JPEAUHWND__@@_N@Z 00000001400da6c4 f   SetPgTabs.obj
 0001:000d9a2c       ??0CSetPgTaskbar@@QEAA@XZ  00000001400daa2c f   SetPgTaskbar.obj
 0001:000d9a50       ??_GCSetPgTaskbar@@UEAAPEAXI@Z 00000001400daa50 f i SetPgTaskbar.obj
 0001:000d9a50       ??_ECSetPgTaskbar@@UEAAPEAXI@Z 00000001400daa50 f i SetPgTaskbar.obj
 0001:000d9a90       ?GetPageType@CSetPgTaskbar@@UEAA?AW4TabHwndIndex@@XZ 00000001400daa90 f i SetPgTaskbar.obj
 0001:000d9a98       ?OnInitDialog@CSetPgTaskbar@@UEAA_JPEAUHWND__@@_N@Z 00000001400daa98 f   SetPgTaskbar.obj
 0001:000d9dfc       ??0CSetPgTasks@@QEAA@XZ    00000001400dadfc f   SetPgTasks.obj
 0001:000d9e24       ??_GCSetPgTasks@@UEAAPEAXI@Z 00000001400dae24 f i SetPgTasks.obj
 0001:000d9e24       ??_ECSetPgTasks@@UEAAPEAXI@Z 00000001400dae24 f i SetPgTasks.obj
 0001:000d9e64       ?GetPageType@CSetPgTasks@@UEAA?AW4TabHwndIndex@@XZ 00000001400dae64 f i SetPgTasks.obj
 0001:000d9e6c       ?OnComboBox@CSetPgTasks@@UEAA_JPEAUHWND__@@GG@Z 00000001400dae6c f   SetPgTasks.obj
 0001:000da0ec       ?OnEditChanged@CSetPgTasks@@UEAA_JPEAUHWND__@@G@Z 00000001400db0ec f   SetPgTasks.obj
 0001:000da2d0       ?OnInitDialog@CSetPgTasks@@UEAA_JPEAUHWND__@@_N@Z 00000001400db2d0 f   SetPgTasks.obj
 0001:000da54c       ?SelectNextItem@CSetPgTasks@@UEAA_N_N0@Z 00000001400db54c f   SetPgTasks.obj
 0001:000da5ec       ??0CSetPgTransparent@@QEAA@XZ 00000001400db5ec f   SetPgTransparent.obj
 0001:000da610       ??_GCSetPgTransparent@@UEAAPEAXI@Z 00000001400db610 f i SetPgTransparent.obj
 0001:000da610       ??_ECSetPgTransparent@@UEAAPEAXI@Z 00000001400db610 f i SetPgTransparent.obj
 0001:000da650       ?GetPageType@CSetPgTransparent@@UEAA?AW4TabHwndIndex@@XZ 00000001400db650 f i SetPgTransparent.obj
 0001:000da658       ?OnInitDialog@CSetPgTransparent@@UEAA_JPEAUHWND__@@_N@Z 00000001400db658 f   SetPgTransparent.obj
 0001:000da838       ??0CSetPgUpdate@@QEAA@XZ   00000001400db838 f   SetPgUpdate.obj
 0001:000da85c       ??_GCSetPgUpdate@@UEAAPEAXI@Z 00000001400db85c f i SetPgUpdate.obj
 0001:000da85c       ??_ECSetPgUpdate@@UEAAPEAXI@Z 00000001400db85c f i SetPgUpdate.obj
 0001:000da89c       ?GetPageType@CSetPgUpdate@@UEAA?AW4TabHwndIndex@@XZ 00000001400db89c f i SetPgUpdate.obj
 0001:000da8a4       ?OnEditChanged@CSetPgUpdate@@UEAA_JPEAUHWND__@@G@Z 00000001400db8a4 f   SetPgUpdate.obj
 0001:000da9a8       ?OnInitDialog@CSetPgUpdate@@UEAA_JPEAUHWND__@@_N@Z 00000001400db9a8 f   SetPgUpdate.obj
 0001:000dac88       ??0CSetPgViews@@QEAA@XZ    00000001400dbc88 f   SetPgViews.obj
 0001:000dacac       ??_GCSetPgViews@@UEAAPEAXI@Z 00000001400dbcac f i SetPgViews.obj
 0001:000dacac       ??_ECSetPgViews@@UEAAPEAXI@Z 00000001400dbcac f i SetPgViews.obj
 0001:000dacec       ?GetPageType@CSetPgViews@@UEAA?AW4TabHwndIndex@@XZ 00000001400dbcec f i SetPgViews.obj
 0001:000dacf4       ?OnComboBox@CSetPgViews@@UEAA_JPEAUHWND__@@GG@Z 00000001400dbcf4 f   SetPgViews.obj
 0001:000daf78       ?OnEditChanged@CSetPgViews@@UEAA_JPEAUHWND__@@G@Z 00000001400dbf78 f   SetPgViews.obj
 0001:000db19c       ?OnInitDialog@CSetPgViews@@UEAA_JPEAUHWND__@@_N@Z 00000001400dc19c f   SetPgViews.obj
 0001:000db720       ??0SizeInfo@@QEAA@AEBV0@@Z 00000001400dc720 f   SizeInfo.obj
 0001:000db7d8       ??0SizeInfo@@QEAA@PEAVCConEmuMain@@@Z 00000001400dc7d8 f   SizeInfo.obj
 0001:000db838       ??1SizeInfo@@UEAA@XZ       00000001400dc838 f   SizeInfo.obj
 0001:000db84c       ??_ESizeInfo@@UEAAPEAXI@Z  00000001400dc84c f i SizeInfo.obj
 0001:000db84c       ??_GSizeInfo@@UEAAPEAXI@Z  00000001400dc84c f i SizeInfo.obj
 0001:000db890       ?ClientRect@SizeInfo@@QEAA?AUtagRECT@@XZ 00000001400dc890 f   SizeInfo.obj
 0001:000db8c0       ?CreateSelfFrameRgn@SizeInfo@@QEAAPEAUHRGN__@@XZ 00000001400dc8c0 f   SizeInfo.obj
 0001:000db998       ?DoCalculate@SizeInfo@@IEAAXXZ 00000001400dc998 f   SizeInfo.obj
 0001:000dbf10       ?FrameMargins@SizeInfo@@QEAA?AUtagRECT@@XZ 00000001400dcf10 f   SizeInfo.obj
 0001:000dbf40       ?GetRectState@SizeInfo@@QEBAAEBUWindowRectangles@1@XZ 00000001400dcf40 f   SizeInfo.obj
 0001:000dbf48       ?IsRectMinimized@SizeInfo@@SA_NAEBUtagRECT@@@Z 00000001400dcf48 f   SizeInfo.obj
 0001:000dbf70       ?IsRectMinimized@SizeInfo@@SA_NHH@Z 00000001400dcf70 f   SizeInfo.obj
 0001:000dbf84       ?LogRequest@SizeInfo@@IEAAXAEBUtagRECT@@PEB_W@Z 00000001400dcf84 f   SizeInfo.obj
 0001:000dc06c       ?LogRequest@SizeInfo@@IEAAXHPEB_W@Z 00000001400dd06c f   SizeInfo.obj
 0001:000dc0e0       ?LogRequest@SizeInfo@@IEAAXPEB_W0@Z 00000001400dd0e0 f   SizeInfo.obj
 0001:000dc1bc       ?RealClientRect@SizeInfo@@QEAA?AUtagRECT@@XZ 00000001400dd1bc f   SizeInfo.obj
 0001:000dc1ec       ?RebarRect@SizeInfo@@QEAA?AUtagRECT@@XZ 00000001400dd1ec f   SizeInfo.obj
 0001:000dc21c       ?RequestDpi@SizeInfo@@QEAAXAEBUDpiValue@@@Z 00000001400dd21c f   SizeInfo.obj
 0001:000dc284       ?RequestPos@SizeInfo@@QEAAXHH@Z 00000001400dd284 f   SizeInfo.obj
 0001:000dc318       ?RequestRecalc@SizeInfo@@QEAAXXZ 00000001400dd318 f   SizeInfo.obj
 0001:000dc320       ?RequestRect@SizeInfo@@QEAAXAEBUtagRECT@@@Z 00000001400dd320 f   SizeInfo.obj
 0001:000dc32c       ?RequestRectInt@SizeInfo@@IEAAXAEBUtagRECT@@PEB_W@Z 00000001400dd32c f   SizeInfo.obj
 0001:000dc5b0       ?RequestSize@SizeInfo@@QEAAXHH@Z 00000001400dd5b0 f   SizeInfo.obj
 0001:000dc60c       ?StatusRect@SizeInfo@@QEAA?AUtagRECT@@XZ 00000001400dd60c f   SizeInfo.obj
 0001:000dc63c       ?WindowRect@SizeInfo@@QEAA?AUtagRECT@@XZ 00000001400dd63c f   SizeInfo.obj
 0001:000dc668       ?WorkspaceRect@SizeInfo@@QEAA?AUtagRECT@@XZ 00000001400dd668 f   SizeInfo.obj
 0001:000dc698       ?isCalculated@SizeInfo@@QEBA_NXZ 00000001400dd698 f   SizeInfo.obj
 0001:000dc69c       ?Transparent_IsMenuChecked@CStatus@@SAHHPEAH@Z 00000001400dd69c f   Status.obj
 0001:000dc760       ?Zoom_IsMenuChecked@CStatus@@SAHHPEAH@Z 00000001400dd760 f   Status.obj
 0001:000dc7b0       ?TermMode_IsMenuChecked@CStatus@@SAHHPEAH@Z 00000001400dd7b0 f   Status.obj
 0001:000dc84c       ??0CStatus@@QEAA@PEAVCConEmuMain@@@Z 00000001400dd84c f   Status.obj
 0001:000dcaec       ??1CStatus@@UEAA@XZ        00000001400ddaec f   Status.obj
 0001:000dcb38       ??_GCStatus@@UEAAPEAXI@Z   00000001400ddb38 f i Status.obj
 0001:000dcb38       ??_ECStatus@@UEAAPEAXI@Z   00000001400ddb38 f i Status.obj
 0001:000dcb6c       ?CreateStatusMenu@CStatus@@IEAAPEAUHMENU__@@PEAUStatusMenuOptions@1@_K@Z 00000001400ddb6c f   Status.obj
 0001:000dcc80       ?GetAllStatusCols@CStatus@@SA_KPEAPEAUStatusColInfo@@@Z 00000001400ddc80 f   Status.obj
 0001:000dcc98       ?GetSettingName@CStatus@@QEAAPEB_WW4CEStatusItems@@@Z 00000001400ddc98 f   Status.obj
 0001:000dccb8       ?GetStatusBarClientRect@CStatus@@QEAA_NAEAUtagRECT@@@Z 00000001400ddcb8 f   Status.obj
 0001:000dcd18       ?GetStatusBarItemRect@CStatus@@QEAA_NW4CEStatusItems@@PEAUtagRECT@@@Z 00000001400ddd18 f   Status.obj
 0001:000dcd84       ?InvalidateStatusBar@CStatus@@QEAAXPEAUtagRECT@@@Z 00000001400ddd84 f   Status.obj
 0001:000dce14       ?IsCursorOverResizeMark@CStatus@@QEAA_NAEBUtagPOINT@@@Z 00000001400dde14 f   Status.obj
 0001:000dce54       ?IsKeyboardChanged@CStatus@@AEAA_NXZ 00000001400dde54 f   Status.obj
 0001:000dcf70       ?IsResizeAllowed@CStatus@@QEAA_NXZ 00000001400ddf70 f   Status.obj
 0001:000dcfbc       ?IsTimeChanged@CStatus@@AEAA_NXZ 00000001400ddfbc f   Status.obj
 0001:000dd070       ?IsWindowChanged@CStatus@@AEAA_NXZ 00000001400de070 f   Status.obj
 0001:000dd288       ?LoadActiveProcess@CStatus@@AEAA_NPEAVCRealConsole@@PEA_WH@Z 00000001400de288 f   Status.obj
 0001:000dd334       ?OnActiveVConChanged@CStatus@@QEAAXHPEAVCRealConsole@@@Z 00000001400de334 f   Status.obj
 0001:000dd538       ?OnConsoleBufferChanged@CStatus@@QEAAXPEAVCRealConsole@@@Z 00000001400de538 f   Status.obj
 0001:000dd650       ?OnConsoleChanged@CStatus@@QEAAXPEBU_CONSOLE_SCREEN_BUFFER_INFO@@PEBU_CONSOLE_CURSOR_INFO@@PEBUTOPLEFTCOORD@@_N@Z 00000001400de650 f   Status.obj
 0001:000dd9c4       ?OnCursorChanged@CStatus@@QEAAXPEBU_COORD@@PEBU_CONSOLE_CURSOR_INFO@@HH@Z 00000001400de9c4 f   Status.obj
 0001:000ddc30       ?OnDataChanged@CStatus@@AEAA_NPEAW4CEStatusItems@@_K_N@Z 00000001400dec30 f   Status.obj
 0001:000ddce0       ?OnKeyboardChanged@CStatus@@QEAAXXZ 00000001400dece0 f   Status.obj
 0001:000ddd08       ?OnServerChanged@CStatus@@QEAAXKK@Z 00000001400ded08 f   Status.obj
 0001:000dddac       ?OnTimer@CStatus@@QEAAXXZ  00000001400dedac f   Status.obj
 0001:000ddedc       ?OnTransparency@CStatus@@QEAAXXZ 00000001400deedc f   Status.obj
 0001:000ddf88       ?OnWindowReposition@CStatus@@QEAAXPEBUtagRECT@@@Z 00000001400def88 f   Status.obj
 0001:000de308       ?PaintStatus@CStatus@@QEAAXPEAUHDC__@@PEAUtagRECT@@@Z 00000001400df308 f   Status.obj
 0001:000df380       ?ProcessMenuHighlight@CStatus@@QEAAXPEAUHMENU__@@GG@Z 00000001400e0380 f   Status.obj
 0001:000df3fc       ?ProcessStatusMessage@CStatus@@QEAA_NPEAUHWND__@@I_K_JUtagPOINT@@AEA_J@Z 00000001400e03fc f   Status.obj
 0001:000df844       ?ProcessTermModeMenuId@CStatus@@AEAA_NG@Z 00000001400e0844 f   Status.obj
 0001:000df8dc       ?ProcessTransparentMenuId@CStatus@@AEAA_NG_N@Z 00000001400e08dc f   Status.obj
 0001:000df9ec       ?ProcessZoomMenuId@CStatus@@AEAA_NG@Z 00000001400e09ec f   Status.obj
 0001:000dfa3c       ?SetClickedItemDesc@CStatus@@AEAAXW4CEStatusItems@@@Z 00000001400e0a3c f   Status.obj
 0001:000dfa7c       ?SetStatus@CStatus@@QEAAXPEB_W@Z 00000001400e0a7c f   Status.obj
 0001:000dfb20       ?ShowStatusBarMenu@CStatus@@IEAAHUtagPOINT@@PEAUHMENU__@@W4CEStatusItems@@@Z 00000001400e0b20 f   Status.obj
 0001:000dfbf4       ?ShowStatusSetupMenu@CStatus@@AEAAXXZ 00000001400e0bf4 f   Status.obj
 0001:000dffac       ?ShowTermModeMenu@CStatus@@AEAAXUtagPOINT@@@Z 00000001400e0fac f   Status.obj
 0001:000e0020       ?ShowTransparencyMenu@CStatus@@AEAAXUtagPOINT@@@Z 00000001400e1020 f   Status.obj
 0001:000e0118       ?ShowVConMenu@CStatus@@AEAAXUtagPOINT@@@Z 00000001400e1118 f   Status.obj
 0001:000e014c       ?ShowZoomMenu@CStatus@@AEAAXUtagPOINT@@@Z 00000001400e114c f   Status.obj
 0001:000e0208       ?UpdateStatusBar@CStatus@@QEAAX_N0@Z 00000001400e1208 f   Status.obj
 0001:000e02b8       ?isSettingsOpened@CStatus@@AEAA_NI@Z 00000001400e12b8 f   Status.obj
 0001:000e0318       ??0CTabBarClass@@QEAA@XZ   00000001400e1318 f   TabBar.obj
 0001:000e043c       ??1CTabBarClass@@UEAA@XZ   00000001400e143c f   TabBar.obj
 0001:000e0574       ??_ECTabBarClass@@UEAAPEAXI@Z 00000001400e1574 f i TabBar.obj
 0001:000e0574       ??_GCTabBarClass@@UEAAPEAXI@Z 00000001400e1574 f i TabBar.obj
 0001:000e05a8       ?Activate@CTabBarClass@@QEAAXH@Z 00000001400e15a8 f   TabBar.obj
 0001:000e068c       ?ActivateSearchPane@CTabBarClass@@QEAAPEAUHWND__@@_N@Z 00000001400e168c f   TabBar.obj
 0001:000e06e4       ?ActivateTabByPoint@CTabBarClass@@QEAAHPEAUtagPOINT@@_N1@Z 00000001400e16e4 f   TabBar.obj
 0001:000e0750       ?ActiveTabByName@CTabBarClass@@QEAAHHPEB_WPEAVCVConGuard@@@Z 00000001400e1750 f   TabBar.obj
 0001:000e0924       ?AddStack@CTabBarClass@@IEAA_NAEAVCTab@@@Z 00000001400e1924 f   TabBar.obj
 0001:000e0a1c       ?CanActivateTab@CTabBarClass@@AEAA_NH@Z 00000001400e1a1c f   TabBar.obj
 0001:000e0a9c       ?CheckRebarCreated@CTabBarClass@@QEAAXXZ 00000001400e1a9c f   TabBar.obj
 0001:000e0b14       ?CheckStack@CTabBarClass@@IEAA_NXZ 00000001400e1b14 f   TabBar.obj
 0001:000e0d00       ?CountActiveTabs@CTabBarClass@@AEAAHH@Z 00000001400e1d00 f   TabBar.obj
 0001:000e0dc0       ?CreateTabIcon@CTabBarClass@@QEAAHPEB_W_N0@Z 00000001400e1dc0 f   TabBar.obj
 0001:000e0de0       ?Deactivate@CTabBarClass@@QEAAXH@Z 00000001400e1de0 f   TabBar.obj
 0001:000e0e14       ?DeleteItem@CTabBarClass@@AEAAXH@Z 00000001400e1e14 f   TabBar.obj
 0001:000e0e80       ?GetActiveTabRect@CTabBarClass@@QEAA_NPEAUtagRECT@@@Z 00000001400e1e80 f   TabBar.obj
 0001:000e0ee4       ?GetCurSel@CTabBarClass@@QEAAHXZ 00000001400e1ee4 f   TabBar.obj
 0001:000e0f14       ?GetFirstLastVConTab@CTabBarClass@@IEAAHPEAVCVirtualConsole@@_NH@Z 00000001400e1f14 f   TabBar.obj
 0001:000e0fe8       ?GetItemCount@CTabBarClass@@AEAAHXZ 00000001400e1fe8 f   TabBar.obj
 0001:000e1020       ?GetMargins@CTabBarClass@@QEAA?AUtagRECT@@_N@Z 00000001400e2020 f   TabBar.obj
 0001:000e10b8       ?GetNextTab@CTabBarClass@@AEAAH_N0@Z 00000001400e20b8 f   TabBar.obj
 0001:000e11e4       ?GetNextTabHelper@CTabBarClass@@AEAAHH_N0@Z 00000001400e21e4 f   TabBar.obj
 0001:000e13d4       ?GetTabFromPoint@CTabBarClass@@QEAAHPEAUtagPOINT@@_N1@Z 00000001400e23d4 f   TabBar.obj
 0001:000e1464       ?GetTabIcon@CTabBarClass@@QEAAH_N@Z 00000001400e2464 f   TabBar.obj
 0001:000e1470       ?GetTabIconByIndex@CTabBarClass@@QEAAPEAUHICON__@@H@Z 00000001400e2470 f   TabBar.obj
 0001:000e147c       ?GetTabIcons@CTabBarClass@@QEAAPEAU_IMAGELIST@@H@Z 00000001400e247c f   TabBar.obj
 0001:000e14b0       ?GetTabbarHeight@CTabBarClass@@QEAAHXZ 00000001400e24b0 f   TabBar.obj
 0001:000e14e4       ?GetVConFromTab@CTabBarClass@@QEAA_NHPEAVCVConGuard@@PEAK@Z 00000001400e24e4 f   TabBar.obj
 0001:000e15e0       ?HighlightTab@CTabBarClass@@QEAAXPEBVCTabID@@_N@Z 00000001400e25e0 f   TabBar.obj
 0001:000e1630       ?Invalidate@CTabBarClass@@QEAAXXZ 00000001400e2630 f   TabBar.obj
 0001:000e1660       ?IsInSwitch@CTabBarClass@@QEAA_NXZ 00000001400e2660 f   TabBar.obj
 0001:000e1668       ?IsSearchShown@CTabBarClass@@QEAA_N_N@Z 00000001400e2668 f   TabBar.obj
 0001:000e168c       ?IsTabsActive@CTabBarClass@@QEAA_NXZ 00000001400e268c f   TabBar.obj
 0001:000e1698       ?IsTabsShown@CTabBarClass@@QEAA_NXZ 00000001400e2698 f   TabBar.obj
 0001:000e16c8       ?NeedPostUpdate@CTabBarClass@@QEAA_NXZ 00000001400e26c8 f   TabBar.obj
 0001:000e16e0       ?OnAlternative@CTabBarClass@@QEAAXH@Z 00000001400e26e0 f   TabBar.obj
 0001:000e1720       ?OnBufferHeight@CTabBarClass@@QEAAXH@Z 00000001400e2720 f   TabBar.obj
 0001:000e1760       ?OnCaptionHidden@CTabBarClass@@QEAAXXZ 00000001400e2760 f   TabBar.obj
 0001:000e17a8       ?OnChooseTabPopup@CTabBarClass@@QEAAXXZ 00000001400e27a8 f   TabBar.obj
 0001:000e1814       ?OnCommand@CTabBarClass@@QEAAX_K_J@Z 00000001400e2814 f   TabBar.obj
 0001:000e1b74       ?OnConsoleActivated@CTabBarClass@@QEAAXH@Z 00000001400e2b74 f   TabBar.obj
 0001:000e1bac       ?OnKeyboard@CTabBarClass@@QEAA_NI_K_J@Z 00000001400e2bac f   TabBar.obj
 0001:000e1c78       ?OnNotify@CTabBarClass@@QEAA_NPEAUtagNMHDR@@AEA_J@Z 00000001400e2c78 f   TabBar.obj
 0001:000e1fe8       ?OnShowButtonsChanged@CTabBarClass@@QEAAXXZ 00000001400e2fe8 f   TabBar.obj
 0001:000e2038       ?OnTimer@CTabBarClass@@QEAA_N_K@Z 00000001400e3038 f   TabBar.obj
 0001:000e2050       ?OnWindowStateChanged@CTabBarClass@@QEAAXXZ 00000001400e3050 f   TabBar.obj
 0001:000e2094       ?PrepareTab@CTabBarClass@@AEAAHAEAVCTab@@PEAVCVirtualConsole@@@Z 00000001400e3094 f   TabBar.obj
 0001:000e28b4       ?RePaint@CTabBarClass@@QEAAXXZ 00000001400e38b4 f   TabBar.obj
 0001:000e28c4       ?Recreate@CTabBarClass@@QEAAXXZ 00000001400e38c4 f   TabBar.obj
 0001:000e295c       ?Reposition@CTabBarClass@@QEAAXXZ 00000001400e395c f   TabBar.obj
 0001:000e2984       ?RequestPostUpdate@CTabBarClass@@AEAAXXZ 00000001400e3984 f   TabBar.obj
 0001:000e29e0       ?Retrieve@CTabBarClass@@QEAAXXZ 00000001400e39e0 f   TabBar.obj
 0001:000e2a1c       ?SelectTab@CTabBarClass@@AEAAXH@Z 00000001400e3a1c f   TabBar.obj
 0001:000e2ad0       ?SetRedraw@CTabBarClass@@QEAAXH@Z 00000001400e3ad0 f   TabBar.obj
 0001:000e2ae0       ?ShowSearchPane@CTabBarClass@@QEAA_N_N0@Z 00000001400e3ae0 f   TabBar.obj
 0001:000e2af0       ?ShowTabError@CTabBarClass@@QEAAXPEB_WH@Z 00000001400e3af0 f   TabBar.obj
 0001:000e2afc       ?Switch@CTabBarClass@@QEAAX_N0@Z 00000001400e3afc f   TabBar.obj
 0001:000e2b98       ?SwitchCommit@CTabBarClass@@QEAAXXZ 00000001400e3b98 f   TabBar.obj
 0001:000e2bf0       ?SwitchNext@CTabBarClass@@QEAAX_N@Z 00000001400e3bf0 f   TabBar.obj
 0001:000e2bfc       ?SwitchPrev@CTabBarClass@@QEAAX_N@Z 00000001400e3bfc f   TabBar.obj
 0001:000e2c08       ?SwitchRollback@CTabBarClass@@QEAAXXZ 00000001400e3c08 f   TabBar.obj
 0001:000e2c28       ?Toolbar_GetBtnRect@CTabBarClass@@QEAA_NHPEAUtagRECT@@@Z 00000001400e3c28 f   TabBar.obj
 0001:000e2c80       ?Update@CTabBarClass@@QEAAXH@Z 00000001400e3c80 f   TabBar.obj
 0001:000e3194       ?UpdateAddTab@CTabBarClass@@AEAAHPEAXAEAH1AEA_NPEAVCVirtualConsole@@K@Z 00000001400e4194 f   TabBar.obj
 0001:000e3398       ?UpdatePosition@CTabBarClass@@QEAAXXZ 00000001400e4398 f   TabBar.obj
 0001:000e343c       ?UpdateToolConsoles@CTabBarClass@@QEAAX_N@Z 00000001400e443c f   TabBar.obj
 0001:000e3470       ??0CTabPanelBase@@QEAA@PEAVCTabBarClass@@@Z 00000001400e4470 f   TabCtrlBase.obj
 0001:000e34e8       ??1CTabPanelBase@@UEAA@XZ  00000001400e44e8 f   TabCtrlBase.obj
 0001:000e351c       ??_GCTabPanelBase@@UEAAPEAXI@Z 00000001400e451c f i TabCtrlBase.obj
 0001:000e351c       ??_ECTabPanelBase@@UEAAPEAXI@Z 00000001400e451c f i TabCtrlBase.obj
 0001:000e3550       ?DoTabDrag@CTabPanelBase@@IEAAXI@Z 00000001400e4550 f   TabCtrlBase.obj
 0001:000e3830       ?EndTabDrag@CTabPanelBase@@IEAAXXZ 00000001400e4830 f   TabCtrlBase.obj
 0001:000e3860       ?FarSendChangeTab@CTabPanelBase@@QEAA_NHPEAVCVConGuard@@@Z 00000001400e4860 f   TabCtrlBase.obj
 0001:000e3a6c       ?InitTooltips@CTabPanelBase@@IEAAXPEAUHWND__@@@Z 00000001400e4a6c f   TabCtrlBase.obj
 0001:000e3c20       ?OnMouseRebar@CTabPanelBase@@QEAA_JIHH@Z 00000001400e4c20 f   TabCtrlBase.obj
 0001:000e3e04       ?OnMouseTabbar@CTabPanelBase@@QEAA_JIHHH@Z 00000001400e4e04 f   TabCtrlBase.obj
 0001:000e4240       ?OnMouseToolbar@CTabPanelBase@@QEAA_JIHHH@Z 00000001400e5240 f   TabCtrlBase.obj
 0001:000e439c       ?OnSetCursorRebar@CTabPanelBase@@QEAA_NXZ 00000001400e539c f   TabCtrlBase.obj
 0001:000e4450       ?OnTimerInt@CTabPanelBase@@UEAA_N_K@Z 00000001400e5450 f   TabCtrlBase.obj
 0001:000e44ac       ?ShowTabErrorInt@CTabPanelBase@@QEAAXPEB_WH@Z 00000001400e54ac f   TabCtrlBase.obj
 0001:000e45f0       ?UpdateTabFontInt@CTabPanelBase@@QEAAXXZ 00000001400e55f0 f   TabCtrlBase.obj
 0001:000e4708       ??$SafeDelete@VCFindPanel@@@@YAXAEAPEAVCFindPanel@@@Z 00000001400e5708 f i TabCtrlWin.obj
 0001:000e4750       ??0CTabPanelWin@@QEAA@PEAVCTabBarClass@@@Z 00000001400e5750 f   TabCtrlWin.obj
 0001:000e47dc       ??1CTabPanelWin@@UEAA@XZ   00000001400e57dc f   TabCtrlWin.obj
 0001:000e4814       ??_ECTabPanelWin@@UEAAPEAXI@Z 00000001400e5814 f i TabCtrlWin.obj
 0001:000e4814       ??_GCTabPanelWin@@UEAAPEAXI@Z 00000001400e5814 f i TabCtrlWin.obj
 0001:000e4848       ?ActivateSearchPaneInt@CTabPanelWin@@UEAAPEAUHWND__@@_N@Z 00000001400e5848 f   TabCtrlWin.obj
 0001:000e4884       ?AddTabInt@CTabPanelWin@@UEAAXPEB_WHIH@Z 00000001400e5884 f   TabCtrlWin.obj
 0001:000e4a54       ?CreateRebar@CTabPanelWin@@UEAAXXZ 00000001400e5a54 f   TabCtrlWin.obj
 0001:000e4c6c       ?CreateTabbar@CTabPanelWin@@AEAAPEAUHWND__@@XZ 00000001400e5c6c f   TabCtrlWin.obj
 0001:000e4eac       ?CreateToolbar@CTabPanelWin@@AEAAPEAUHWND__@@XZ 00000001400e5eac f   TabCtrlWin.obj
 0001:000e5384       ?DeleteItemInt@CTabPanelWin@@UEAAXH@Z 00000001400e6384 f   TabCtrlWin.obj
 0001:000e53ac       ?DestroyRebar@CTabPanelWin@@UEAAXXZ 00000001400e63ac f   TabCtrlWin.obj
 0001:000e542c       ?GetCurSelInt@CTabPanelWin@@UEAAHXZ 00000001400e642c f   TabCtrlWin.obj
 0001:000e5450       ?GetItemCountInt@CTabPanelWin@@UEAAHXZ 00000001400e6450 f   TabCtrlWin.obj
 0001:000e546c       ?GetRebarClientRect@CTabPanelWin@@UEAA_NPEAUtagRECT@@@Z 00000001400e646c f   TabCtrlWin.obj
 0001:000e54cc       ?GetRect@CTabPanelWin@@AEAA?AUtagRECT@@XZ 00000001400e64cc f   TabCtrlWin.obj
 0001:000e55ac       ?GetTabBarClientRect@CTabPanelWin@@UEAA_NPEAUtagRECT@@@Z 00000001400e65ac f   TabCtrlWin.obj
 0001:000e55d0       ?GetTabFromPoint@CTabPanelWin@@UEAAHUtagPOINT@@_N1@Z 00000001400e65d0 f   TabCtrlWin.obj
 0001:000e5710       ?GetTabRect@CTabPanelWin@@UEAA_NHPEAUtagRECT@@@Z 00000001400e6710 f   TabCtrlWin.obj
 0001:000e5800       ?GetTabText@CTabPanelWin@@UEAA_NHPEA_WH@Z 00000001400e6800 f   TabCtrlWin.obj
 0001:000e5878       ?GetToolBtnChecked@CTabPanelWin@@UEAA_NW4ToolbarCommandIdx@@@Z 00000001400e6878 f   TabCtrlWin.obj
 0001:000e589c       ?GetToolBtnRect@CTabPanelWin@@UEAA_NHPEAUtagRECT@@@Z 00000001400e689c f   TabCtrlWin.obj
 0001:000e590c       ?HighlightTab@CTabPanelWin@@UEAAXH_N@Z 00000001400e690c f   TabCtrlWin.obj
 0001:000e594c       ?InvalidateBar@CTabPanelWin@@UEAAXXZ 00000001400e694c f   TabCtrlWin.obj
 0001:000e5988       ?IsCreated@CTabPanelWin@@UEAA_NXZ 00000001400e6988 f   TabCtrlWin.obj
 0001:000e599c       ?IsSearchShownInt@CTabPanelWin@@UEAA_N_N@Z 00000001400e699c f   TabCtrlWin.obj
 0001:000e5a0c       ?IsTabbarCreated@CTabPanelWin@@UEAA_NXZ 00000001400e6a0c f   TabCtrlWin.obj
 0001:000e5a20       ?IsTabbarNotify@CTabPanelWin@@UEAA_NPEAUtagNMHDR@@@Z 00000001400e6a20 f   TabCtrlWin.obj
 0001:000e5a40       ?IsToolbarCommand@CTabPanelWin@@UEAA_N_K_J@Z 00000001400e6a40 f   TabCtrlWin.obj
 0001:000e5a58       ?IsToolbarCreated@CTabPanelWin@@UEAA_NXZ 00000001400e6a58 f   TabCtrlWin.obj
 0001:000e5a6c       ?IsToolbarNotify@CTabPanelWin@@UEAA_NPEAUtagNMHDR@@@Z 00000001400e6a6c f   TabCtrlWin.obj
 0001:000e5a84       ?OnCaptionHiddenChanged@CTabPanelWin@@UEAAX_N@Z 00000001400e6a84 f   TabCtrlWin.obj
 0001:000e5b78       ?OnConsoleActivatedInt@CTabPanelWin@@UEAAXH@Z 00000001400e6b78 f   TabCtrlWin.obj
 0001:000e5ca4       ?OnNotifyInt@CTabPanelWin@@UEAA_NPEAUtagNMHDR@@AEA_J@Z 00000001400e6ca4 f   TabCtrlWin.obj
 0001:000e5e10       ?OnWindowStateChanged@CTabPanelWin@@UEAAXW4ConEmuWindowMode@@@Z 00000001400e6e10 f   TabCtrlWin.obj
 0001:000e5e7c       ?QueryTabbarHeight@CTabPanelWin@@UEAAHXZ 00000001400e6e7c f   TabCtrlWin.obj
 0001:000e5f9c       ?ReBarProc@CTabPanelWin@@AEAA_JPEAUHWND__@@I_K_JP6A_J0I12@Z@Z 00000001400e6f9c f   TabCtrlWin.obj
 0001:000e6144       ?RePaintInt@CTabPanelWin@@UEAAXXZ 00000001400e7144 f   TabCtrlWin.obj
 0001:000e61f4       ?RepositionInt@CTabPanelWin@@UEAAXXZ 00000001400e71f4 f   TabCtrlWin.obj
 0001:000e661c       ?SelectTabInt@CTabPanelWin@@UEAAHH@Z 00000001400e761c f   TabCtrlWin.obj
 0001:000e66e4       ?SetTabbarFont@CTabPanelWin@@UEAAXPEAUHFONT__@@@Z 00000001400e76e4 f   TabCtrlWin.obj
 0001:000e6724       ?SetToolBtnChecked@CTabPanelWin@@UEAAXW4ToolbarCommandIdx@@_N@Z 00000001400e7724 f   TabCtrlWin.obj
 0001:000e674c       ?ShowBar@CTabPanelWin@@UEAAX_N@Z 00000001400e774c f   TabCtrlWin.obj
 0001:000e6790       ?ShowSearchPane@CTabPanelWin@@UEAA_N_N0@Z 00000001400e7790 f   TabCtrlWin.obj
 0001:000e6a18       ?ShowTabsPane@CTabPanelWin@@UEAAX_N@Z 00000001400e7a18 f   TabCtrlWin.obj
 0001:000e6b08       ?ShowToolsPane@CTabPanelWin@@UEAAX_N@Z 00000001400e7b08 f   TabCtrlWin.obj
 0001:000e6cd8       ?TabHitTest@CTabPanelWin@@AEAA_J_NPEAH@Z 00000001400e7cd8 f   TabCtrlWin.obj
 0001:000e6d74       ?TabProc@CTabPanelWin@@AEAA_JPEAUHWND__@@I_K_JP6A_J0I12@Z@Z 00000001400e7d74 f   TabCtrlWin.obj
 0001:000e6ef0       ?ToolProc@CTabPanelWin@@AEAA_JPEAUHWND__@@I_K_JP6A_J0I12@Z@Z 00000001400e7ef0 f   TabCtrlWin.obj
 0001:000e7110       ?UpdateToolbarPos@CTabPanelWin@@AEAAXXZ 00000001400e8110 f   TabCtrlWin.obj
 0001:000e72a8       ?_ReBarProc@CTabPanelWin@@CA_JPEAUHWND__@@I_K_J@Z 00000001400e82a8 f   TabCtrlWin.obj
 0001:000e7334       ?_TabProc@CTabPanelWin@@CA_JPEAUHWND__@@I_K_J@Z 00000001400e8334 f   TabCtrlWin.obj
 0001:000e73c0       ?_ToolProc@CTabPanelWin@@CA_JPEAUHWND__@@I_K_J@Z 00000001400e83c0 f   TabCtrlWin.obj
 0001:000e744c       ??0CTab@@QEAA@PEBDH@Z      00000001400e844c f   TabID.obj
 0001:000e744c       ??0CEStrA@@QEAA@XZ         00000001400e844c f   common-kernel64:CEStr.obj
 0001:000e7454       ??0CTabID@@QEAA@PEAVCVirtualConsole@@PEB_WIHHH@Z 00000001400e8454 f   TabID.obj
 0001:000e754c       ??0CTabStack@@QEAA@XZ      00000001400e854c f   TabID.obj
 0001:000e75b0       ??1CTab@@QEAA@XZ           00000001400e85b0 f   TabID.obj
 0001:000e75f4       ??1CTabID@@MEAA@XZ         00000001400e85f4 f   TabID.obj
 0001:000e7634       ??1CTabStack@@QEAA@XZ      00000001400e8634 f   TabID.obj
 0001:000e7670       ??_GCTabID@@MEAAPEAXI@Z    00000001400e8670 f i TabID.obj
 0001:000e7670       ??_ECTabID@@MEAAPEAXI@Z    00000001400e8670 f i TabID.obj
 0001:000e76a4       ?AddRef@CTab@@QEAAPEAVCTabID@@PEBDH@Z 00000001400e86a4 f   TabID.obj
 0001:000e76b4       ?AppendInt@CTabStack@@IEAAHPEAVCTabID@@HPEAUMSectionLockSimple@@@Z 00000001400e86b4 f   TabID.obj
 0001:000e774c       ?CleanNulls@CTabStack@@IEAAXXZ 00000001400e874c f   TabID.obj
 0001:000e77e0       ?Empty@TabName@@QEBA_NXZ   00000001400e87e0 f   TabID.obj
 0001:000e77ec       ?GetCount@CTabStack@@QEAAHXZ 00000001400e87ec f   TabID.obj
 0001:000e77f0       ?GetIndexByTab@CTabStack@@QEAAHPEBVCTabID@@@Z 00000001400e87f0 f   TabID.obj
 0001:000e7884       ?GetLabel@CTabID@@QEAAPEB_WXZ 00000001400e8884 f   TabID.obj
 0001:000e78b8       ?GetName@CTabID@@QEAAPEB_WXZ 00000001400e88b8 f   TabID.obj
 0001:000e78d8       ?GetTabByIndex@CTabStack@@QEAA_NHAEAVCTab@@@Z 00000001400e88d8 f   TabID.obj
 0001:000e7978       ?GetTabInfoByIndex@CTabStack@@QEAA_NHAEAUTabInfo@@@Z 00000001400e8978 f   TabID.obj
 0001:000e7a1c       ?GetVisualToRealIndex@CTabStack@@IEAAHH@Z 00000001400e8a1c f   TabID.obj
 0001:000e7a58       ?Init@CTab@@QEAAXAEAV1@@Z  00000001400e8a58 f   TabID.obj
 0001:000e7a60       ?Init@CTab@@QEAAXPEAVCTabID@@@Z 00000001400e8a60 f   TabID.obj
 0001:000e7ab8       ?IsEqual@CTabID@@QEAA_NPEAVCVirtualConsole@@PEB_WIHHI@Z 00000001400e8ab8 f   TabID.obj
 0001:000e7b7c       ?MarkTabsInvalid@CTabStack@@QEAAXW4MatchTabEnum@1@K@Z 00000001400e8b7c f   TabID.obj
 0001:000e7c28       ?Ptr@TabName@@QEBAPEB_WXZ  00000001400e8c28 f   TabID.obj
 0001:000e7c30       ?RefreshFarStatus@CTabStack@@QEAA_NKAEAVCTab@@AEAH1AEA_N@Z 00000001400e8c30 f   TabID.obj
 0001:000e7e28       ?ReleaseDrawRegion@CTabID@@QEAAXXZ 00000001400e8e28 f   TabID.obj
 0001:000e7e54       ?ReleaseTabs@CTabStack@@QEAAXH@Z 00000001400e8e54 f   TabID.obj
 0001:000e7f84       ?RequestSize@CTabStack@@IEAAXHPEAUMSectionLockSimple@@@Z 00000001400e8f84 f   TabID.obj
 0001:000e7ff4       ?Set@CTabID@@QEAA_NPEB_WIHHHI@Z 00000001400e8ff4 f   TabID.obj
 0001:000e80a0       ?Set@TabName@@QEAAPEB_WPEB_W_N@Z 00000001400e90a0 f   TabID.obj
 0001:000e813c       ?SetLabel@CTabID@@QEAAXPEB_W@Z 00000001400e913c f   TabID.obj
 0001:000e814c       ?SetName@CTabID@@QEAA_NPEB_W@Z 00000001400e914c f   TabID.obj
 0001:000e81d0       ?UpdateAppend@CTabStack@@QEAAXPEAXAEAVCTab@@H@Z 00000001400e91d0 f   TabID.obj
 0001:000e81d8       ?UpdateAppend@CTabStack@@QEAAXPEAXPEAVCTabID@@H@Z 00000001400e91d8 f   TabID.obj
 0001:000e82e0       ?UpdateBegin@CTabStack@@QEAAPEAXXZ 00000001400e92e0 f   TabID.obj
 0001:000e833c       ?UpdateEnd@CTabStack@@QEAA_NPEAXK@Z 00000001400e933c f   TabID.obj
 0001:000e8544       ?UpdateFarWindow@CTabStack@@QEAA_NPEAXPEAVCVirtualConsole@@PEB_WIHHHAEAVCTab@@@Z 00000001400e9544 f   TabID.obj
 0001:000e875c       ??0CTaskBar@@QEAA@PEAVCConEmuMain@@@Z 00000001400e975c f   TaskBar.obj
 0001:000e87c4       ??1CTaskBar@@UEAA@XZ       00000001400e97c4 f   TaskBar.obj
 0001:000e8824       ??_ECTaskBar@@UEAAPEAXI@Z  00000001400e9824 f i TaskBar.obj
 0001:000e8824       ??_GCTaskBar@@UEAAPEAXI@Z  00000001400e9824 f i TaskBar.obj
 0001:000e8858       ?Taskbar_AddTabXP@CTaskBar@@QEAAJPEAUHWND__@@@Z 00000001400e9858 f   TaskBar.obj
 0001:000e8870       ?Taskbar_DeleteTabXP@CTaskBar@@QEAAJPEAUHWND__@@@Z 00000001400e9870 f   TaskBar.obj
 0001:000e8888       ?Taskbar_GhostAppend@CTaskBar@@IEAAXPEAX@Z 00000001400e9888 f   TaskBar.obj
 0001:000e88c8       ?Taskbar_GhostRemove@CTaskBar@@IEAAXPEAX@Z 00000001400e98c8 f   TaskBar.obj
 0001:000e8944       ?Taskbar_GhostReorder@CTaskBar@@QEAAXXZ 00000001400e9944 f   TaskBar.obj
 0001:000e8a58       ?Taskbar_GhostSnapshotRequired@CTaskBar@@QEAA_NXZ 00000001400e9a58 f   TaskBar.obj
 0001:000e8a64       ?Taskbar_Init@CTaskBar@@QEAAXXZ 00000001400e9a64 f   TaskBar.obj
 0001:000e8b70       ?Taskbar_MarkFullscreenWindow@CTaskBar@@QEAAJPEAUHWND__@@H@Z 00000001400e9b70 f   TaskBar.obj
 0001:000e8ce0       ?Taskbar_RegisterTab@CTaskBar@@QEAAJPEAUHWND__@@PEAXH@Z 00000001400e9ce0 f   TaskBar.obj
 0001:000e8d98       ?Taskbar_Release@CTaskBar@@QEAAXXZ 00000001400e9d98 f   TaskBar.obj
 0001:000e8df8       ?Taskbar_SetActiveTab@CTaskBar@@QEAAJPEAUHWND__@@@Z 00000001400e9df8 f   TaskBar.obj
 0001:000e8e50       ?Taskbar_SetOverlay@CTaskBar@@QEAAXPEAUHICON__@@@Z 00000001400e9e50 f   TaskBar.obj
 0001:000e8f18       ?Taskbar_SetProgressState@CTaskBar@@QEAAJI@Z 00000001400e9f18 f   TaskBar.obj
 0001:000e8f64       ?Taskbar_SetProgressValue@CTaskBar@@QEAAJH@Z 00000001400e9f64 f   TaskBar.obj
 0001:000e8fc4       ?Taskbar_SetShield@CTaskBar@@QEAAX_N@Z 00000001400e9fc4 f   TaskBar.obj
 0001:000e902c       ?Taskbar_UnregisterTab@CTaskBar@@QEAAJPEAUHWND__@@PEAX@Z 00000001400ea02c f   TaskBar.obj
 0001:000e907c       ?Taskbar_UpdateOverlay@CTaskBar@@QEAAXXZ 00000001400ea07c f   TaskBar.obj
 0001:000e9154       ?isTaskbarSmallIcons@CTaskBar@@QEAA_NXZ 00000001400ea154 f   TaskBar.obj
 0001:000e9200       ??0CTaskBarGhost@@QEAA@PEAVCVirtualConsole@@@Z 00000001400ea200 f   TaskBarGhost.obj
 0001:000e92a4       ??1CTaskBarGhost@@UEAA@XZ  00000001400ea2a4 f   TaskBarGhost.obj
 0001:000e9340       ??_ECTaskBarGhost@@UEAAPEAXI@Z 00000001400ea340 f i TaskBarGhost.obj
 0001:000e9340       ??_GCTaskBarGhost@@UEAAPEAXI@Z 00000001400ea340 f i TaskBarGhost.obj
 0001:000e9374       ?ActivateTaskbar@CTaskBarGhost@@QEAAXXZ 00000001400ea374 f   TaskBarGhost.obj
 0001:000e93a0       ?CalcThumbnailSize@CTaskBarGhost@@IEAA_NHHAEAH0@Z 00000001400ea3a0 f   TaskBarGhost.obj
 0001:000e9418       ?CheckTitle@CTaskBarGhost@@QEAAPEB_WH@Z 00000001400ea418 f   TaskBarGhost.obj
 0001:000e94e8       ?Create@CTaskBarGhost@@SAPEAV1@PEAVCVirtualConsole@@@Z 00000001400ea4e8 f   TaskBarGhost.obj
 0001:000e9690       ?CreateTabSnapshot@CTaskBarGhost@@QEAAHXZ 00000001400ea690 f   TaskBarGhost.obj
 0001:000e9a60       ?CreateThumbnail@CTaskBarGhost@@IEAAPEAUHBITMAP__@@HH@Z 00000001400eaa60 f   TaskBarGhost.obj
 0001:000e9dc8       ?GetPreviewPosSize@CTaskBarGhost@@IEAAXPEAUtagPOINT@@000@Z 00000001400eadc8 f   TaskBarGhost.obj
 0001:000e9ec4       ?GhostProc@CTaskBarGhost@@IEAA_JI_K_J@Z 00000001400eaec4 f   TaskBarGhost.obj
 0001:000ea028       ?GhostStatic@CTaskBarGhost@@KA_JPEAUHWND__@@I_K_J@Z 00000001400eb028 f   TaskBarGhost.obj
 0001:000ea0d8       ?GhostWnd@CTaskBarGhost@@QEAAPEAUHWND__@@XZ 00000001400eb0d8 f   TaskBarGhost.obj
 0001:000ea0e8       ?NeedSnapshotCache@CTaskBarGhost@@QEAA_NXZ 00000001400eb0e8 f   TaskBarGhost.obj
 0001:000ea19c       ?OnActivate@CTaskBarGhost@@IEAA_J_K_J@Z 00000001400eb19c f   TaskBarGhost.obj
 0001:000ea2f0       ?OnClose@CTaskBarGhost@@IEAA_JXZ 00000001400eb2f0 f   TaskBarGhost.obj
 0001:000ea32c       ?OnCreate@CTaskBarGhost@@IEAA_JXZ 00000001400eb32c f   TaskBarGhost.obj
 0001:000ea45c       ?OnDestroy@CTaskBarGhost@@IEAA_JXZ 00000001400eb45c f   TaskBarGhost.obj
 0001:000ea4a4       ?OnDwmSendIconicLivePreviewBitmap@CTaskBarGhost@@IEAA_JXZ 00000001400eb4a4 f   TaskBarGhost.obj
 0001:000ea558       ?OnDwmSendIconicThumbnail@CTaskBarGhost@@IEAA_JFF@Z 00000001400eb558 f   TaskBarGhost.obj
 0001:000ea5a4       ?OnSysCommand@CTaskBarGhost@@IEAA_J_K_J@Z 00000001400eb5a4 f   TaskBarGhost.obj
 0001:000ea68c       ?OnTimer@CTaskBarGhost@@IEAA_J_K@Z 00000001400eb68c f   TaskBarGhost.obj
 0001:000ea6ec       ?UpdateGhostSize@CTaskBarGhost@@IEAAXXZ 00000001400eb6ec f   TaskBarGhost.obj
 0001:000ea7f0       ?UpdateTabSnapshot@CTaskBarGhost@@QEAAHHH@Z 00000001400eb7f0 f   TaskBarGhost.obj
 0001:000ea890       ??$SafeDelete@VMModule@@@@YAXAEAPEAVMModule@@@Z 00000001400eb890 f i TaskScheduler.obj
 0001:000ea8d8       ??0CTaskScheduler1@@QEAA@XZ 00000001400eb8d8 f   TaskScheduler.obj
 0001:000ea918       ??0CTaskScheduler2@@QEAA@XZ 00000001400eb918 f   TaskScheduler.obj
 0001:000ea968       ??0CTaskSchedulerBase@@QEAA@XZ 00000001400eb968 f   TaskScheduler.obj
 0001:000ea9cc       ??1CTaskScheduler1@@UEAA@XZ 00000001400eb9cc f   TaskScheduler.obj
 0001:000eaa5c       ??1CTaskScheduler2@@UEAA@XZ 00000001400eba5c f   TaskScheduler.obj
 0001:000eabc8       ??1CTaskSchedulerBase@@UEAA@XZ 00000001400ebbc8 f   TaskScheduler.obj
 0001:000eac04       ??_ECTaskScheduler1@@UEAAPEAXI@Z 00000001400ebc04 f i TaskScheduler.obj
 0001:000eac04       ??_GCTaskScheduler1@@UEAAPEAXI@Z 00000001400ebc04 f i TaskScheduler.obj
 0001:000eac38       ??_ECTaskScheduler2@@UEAAPEAXI@Z 00000001400ebc38 f i TaskScheduler.obj
 0001:000eac38       ??_GCTaskScheduler2@@UEAAPEAXI@Z 00000001400ebc38 f i TaskScheduler.obj
 0001:000eac6c       ??_GCTaskSchedulerBase@@UEAAPEAXI@Z 00000001400ebc6c f i TaskScheduler.obj
 0001:000eac6c       ??_ECTaskSchedulerBase@@UEAAPEAXI@Z 00000001400ebc6c f i TaskScheduler.obj
 0001:000eaca0       ?Create@CTaskScheduler1@@UEAAJ_NPEB_W111@Z 00000001400ebca0 f   TaskScheduler.obj
 0001:000eb040       ?Create@CTaskScheduler2@@UEAAJ_NPEB_W111@Z 00000001400ec040 f   TaskScheduler.obj
 0001:000eb660       ?CreateProcessScheduled@@YAH_NKPEA_WPEAU_SECURITY_ATTRIBUTES@@2HKPEAXPEB_WPEAU_STARTUPINFOW@@PEAU_PROCESS_INFORMATION@@PEAK@Z 00000001400ec660 f   TaskScheduler.obj
 0001:000eba84       ?DisplaySchedulerError@CTaskSchedulerBase@@QEAAXPEB_W@Z 00000001400eca84 f   TaskScheduler.obj
 0001:000ebb9c       ?GetState@CTaskScheduler1@@UEAA?AW4TaskSchedulerState@@XZ 00000001400ecb9c f   TaskScheduler.obj
 0001:000ebd0c       ?GetState@CTaskScheduler2@@UEAA?AW4TaskSchedulerState@@XZ 00000001400ecd0c f   TaskScheduler.obj
 0001:000ebe88       ?Run@CTaskScheduler1@@UEAAJXZ 00000001400ece88 f   TaskScheduler.obj
 0001:000ec014       ?Run@CTaskScheduler2@@UEAAJXZ 00000001400ed014 f   TaskScheduler.obj
 0001:000ec15c       ??0TermX@@QEAA@XZ          00000001400ed15c f   TermX.obj
 0001:000ec174       ?GetSubstitute@TermX@@QEAA_NAEBU_KEY_EVENT_RECORD@@AEAUCEStr@@@Z 00000001400ed174 f   TermX.obj
 0001:000ec7e4       ?GetSubstitute@TermX@@QEAA_NAEBU_MOUSE_EVENT_RECORD@@W4TermMouseMode@@AEAUCEStr@@@Z 00000001400ed7e4 f   TermX.obj
 0001:000ecc7c       ?Reset@TermX@@QEAAXXZ      00000001400edc7c f   TermX.obj
 0001:000eccac       ??0CToolImg@@QEAA@XZ       00000001400edcac f   ToolImg.obj
 0001:000eccf4       ??1CToolImg@@QEAA@XZ       00000001400edcf4 f   ToolImg.obj
 0001:000ecd1c       ?AddBitmap@CToolImg@@IEAAHPEAUHBITMAP__@@H@Z 00000001400edd1c f   ToolImg.obj
 0001:000ecdf4       ?AddButtons@CToolImg@@QEAAHPEAUHINSTANCE__@@_JH@Z 00000001400eddf4 f   ToolImg.obj
 0001:000ece6c       ?AddButtonsMapped@CToolImg@@QEAAHPEAUHINSTANCE__@@_JHHKKZZ 00000001400ede6c f   ToolImg.obj
 0001:000ecee4       ?Create@CToolImg@@QEAA_NHHHK@Z 00000001400edee4 f   ToolImg.obj
 0001:000ecf5c       ?CreateButtonField@CToolImg@@IEAA_NPEB_WKPEAUButtonRowInfo@1@H_N@Z 00000001400edf5c f   ToolImg.obj
 0001:000ed068       ?CreateDonateButton@CToolImg@@SAPEAV1@XZ 00000001400ee068 f   ToolImg.obj
 0001:000ed15c       ?CreateField@CToolImg@@IEAA_NHHK@Z 00000001400ee15c f   ToolImg.obj
 0001:000ed2b0       ?CreateSearchButton@CToolImg@@SAPEAV1@XZ 00000001400ee2b0 f   ToolImg.obj
 0001:000ed3b4       ?FreeBMP@CToolImg@@IEAAXXZ 00000001400ee3b4 f   ToolImg.obj
 0001:000ed3ec       ?FreeDC@CToolImg@@IEAAXXZ  00000001400ee3ec f   ToolImg.obj
 0001:000ed438       ?GetBitmap@CToolImg@@QEAAPEAUHBITMAP__@@XZ 00000001400ee438 f   ToolImg.obj
 0001:000ed450       ?GetSizeForHeight@CToolImg@@QEAA_NHAEAH0@Z 00000001400ee450 f   ToolImg.obj
 0001:000ed520       ?PaintBitmap@CToolImg@@IEAA_NPEAUHBITMAP__@@HHPEAUHDC__@@HHHH@Z 00000001400ee520 f   ToolImg.obj
 0001:000ed610       ?PaintButton@CToolImg@@QEAA_NHPEAUHDC__@@HHHH@Z 00000001400ee610 f   ToolImg.obj
 0001:000ed8c4       ?AddTrayIcon@TrayIcon@@QEAAXXZ 00000001400ee8c4 f   TrayIcon.obj
 0001:000ed91c       ?HideWindowToTray@TrayIcon@@QEAAXPEB_W@Z 00000001400ee91c f   TrayIcon.obj
 0001:000ed9e4       ?LoadIconW@TrayIcon@@QEAAXPEAUHWND__@@H@Z 00000001400ee9e4 f   TrayIcon.obj
 0001:000eda1c       ?OnTaskbarCreated@TrayIcon@@QEAAXXZ 00000001400eea1c f   TrayIcon.obj
 0001:000eda3c       ?OnTryIcon@TrayIcon@@QEAA_JPEAUHWND__@@I_K_J@Z 00000001400eea3c f   TrayIcon.obj
 0001:000edd40       ?RemoveTrayIcon@TrayIcon@@QEAAX_N@Z 00000001400eed40 f   TrayIcon.obj
 0001:000edd90       ?RestoreWindowFromTray@TrayIcon@@QEAAX_N0@Z 00000001400eed90 f   TrayIcon.obj
 0001:000ede78       ?SetMenuItemText@TrayIcon@@AEAAXPEAUHMENU__@@IPEB_W@Z 00000001400eee78 f   TrayIcon.obj
 0001:000edf0c       ?SettingsChanged@TrayIcon@@QEAAXXZ 00000001400eef0c f   TrayIcon.obj
 0001:000edf98       ?ShowTrayIcon@TrayIcon@@QEAAXPEB_WW4TrayIconMsgSource@@@Z 00000001400eef98 f   TrayIcon.obj
 0001:000ee024       ?UpdateTitle@TrayIcon@@QEAAXXZ 00000001400ef024 f   TrayIcon.obj
 0001:000ee10c       ??$swprintf_c@$0IAA@@@YAHAEAY0IAA@_WPEB_WZZ 00000001400ef10c f i Update.obj
 0001:000ee138       ??0CConEmuUpdate@@QEAA@XZ  00000001400ef138 f   Update.obj
 0001:000ee2dc       ??1CConEmuUpdate@@QEAA@XZ  00000001400ef2dc f   Update.obj
 0001:000ee5c4       ?Check7zipInstalled@CConEmuUpdate@@IEAA_NXZ 00000001400ef5c4 f   Update.obj
 0001:000ee6c8       ?CheckProcInt@CConEmuUpdate@@IEAAKXZ 00000001400ef6c8 f   Update.obj
 0001:000eee28       ?CheckThreadProc@CConEmuUpdate@@KAKPEAX@Z 00000001400efe28 f   Update.obj
 0001:000eee68       ?CreateBatchFile@CConEmuUpdate@@IEAAPEA_WPEB_W@Z 00000001400efe68 f   Update.obj
 0001:000efdf4       ?CreateTempFile@CConEmuUpdate@@IEAAPEA_WPEB_W0AEAPEAX@Z 00000001400f0df4 f   Update.obj
 0001:000f0178       ?CreateVersionOnServerInfo@CConEmuUpdate@@IEAAPEA_W_NPEB_W@Z 00000001400f1178 f   Update.obj
 0001:000f01e8       ?Deinit@wininet@CConEmuUpdate@@QEAA_N_N@Z 00000001400f11e8 f   Update.obj
 0001:000f0214       ?DeleteBadTempFiles@CConEmuUpdate@@IEAAXXZ 00000001400f1214 f   Update.obj
 0001:000f029c       ?DownloadFile@CConEmuUpdate@@IEAAHPEB_W0AEAKHPEAT_LARGE_INTEGER@@@Z 00000001400f129c f   Update.obj
 0001:000f04c8       ?ErrorCallback@CConEmuUpdate@@KAXPEBUCEDownloadInfo@@@Z 00000001400f14c8 f   Update.obj
 0001:000f04f4       ?GetCurVerInfo@CConEmuUpdate@@QEAAPEA_WXZ 00000001400f14f4 f   Update.obj
 0001:000f05a0       ?GetFormatted@CEDownloadInfo@@QEBAPEA_W_N@Z 00000001400f15a0 f i Update.obj
 0001:000f06f8       ?GetUpdateProgress@CConEmuUpdate@@QEAAFXZ 00000001400f16f8 f   Update.obj
 0001:000f0798       ?GetVersionsFromIni@CConEmuUpdate@@IEAAXPEB_WAEAY0GE@_W11@Z 00000001400f1798 f   Update.obj
 0001:000f0a00       ?InUpdate@CConEmuUpdate@@QEAA?AW4UpdateStep@1@XZ 00000001400f1a00 f   Update.obj
 0001:000f0a4c       ?Init@wininet@CConEmuUpdate@@QEAA_NPEAV2@@Z 00000001400f1a4c f   Update.obj
 0001:000f0bfc       ?IsLocalFile@CConEmuUpdate@@IEAA_NAEAPEA_W@Z 00000001400f1bfc f   Update.obj
 0001:000f0cb4       ?IsLocalFile@CConEmuUpdate@@IEAA_NAEAPEB_W@Z 00000001400f1cb4 f   Update.obj
 0001:000f0ce0       ?IsUpdatePackage@CConEmuUpdate@@SA_NPEB_W@Z 00000001400f1ce0 f   Update.obj
 0001:000f0e0c       ?LoadVersionInfoFromServer@CConEmuUpdate@@IEAA_NXZ 00000001400f1e0c f   Update.obj
 0001:000f11e4       ?LocalUpdate@CConEmuUpdate@@SA_NPEB_W@Z 00000001400f21e4 f   Update.obj
 0001:000f1250       ?LogCallback@CConEmuUpdate@@KAXPEBUCEDownloadInfo@@@Z 00000001400f2250 f   Update.obj
 0001:000f1314       ?NeedRunElevation@CConEmuUpdate@@SA_NXZ 00000001400f2314 f   Update.obj
 0001:000f14f4       ?ProgressCallback@CConEmuUpdate@@KAXPEBUCEDownloadInfo@@@Z 00000001400f24f4 f   Update.obj
 0001:000f153c       ?QueryConfirmation@CConEmuUpdate@@IEAAHW4UpdateStep@1@@Z 00000001400f253c f   Update.obj
 0001:000f165c       ?QueryConfirmationCallback@CConEmuUpdate@@KA_J_J@Z 00000001400f265c f   Update.obj
 0001:000f168c       ?QueryConfirmationDownload@CConEmuUpdate@@IEAAHXZ 00000001400f268c f   Update.obj
 0001:000f1ab8       ?QueryConfirmationNoNewVer@CConEmuUpdate@@IEAAHXZ 00000001400f2ab8 f   Update.obj
 0001:000f1e5c       ?QueryConfirmationUpdate@CConEmuUpdate@@IEAAHXZ 00000001400f2e5c f   Update.obj
 0001:000f2120       ?QueryRetryVersionCheck@CConEmuUpdate@@KA_J_J@Z 00000001400f3120 f   Update.obj
 0001:000f2310       ?ReportBrokenIni@CConEmuUpdate@@IEAAXPEB_W000@Z 00000001400f3310 f   Update.obj
 0001:000f244c       ?ReportError@CConEmuUpdate@@IEAAXPEB_W00K@Z 00000001400f344c f   Update.obj
 0001:000f2518       ?ReportError@CConEmuUpdate@@IEAAXPEB_W0K@Z 00000001400f3518 f   Update.obj
 0001:000f25c4       ?ReportError@CConEmuUpdate@@IEAAXPEB_WK@Z 00000001400f35c4 f   Update.obj
 0001:000f2648       ?ReportErrorInt@CConEmuUpdate@@IEAAXPEA_W@Z 00000001400f3648 f   Update.obj
 0001:000f2840       ?RequestExitUpdate@CConEmuUpdate@@KA_J_J@Z 00000001400f3840 f   Update.obj
 0001:000f2888       ?RequestTerminate@CConEmuUpdate@@IEAAXXZ 00000001400f3888 f   Update.obj
 0001:000f28c8       ?SetCallback@wininet@CConEmuUpdate@@QEAAXW4CEDownloadCommand@@P6AXPEBUCEDownloadInfo@@@Z_J@Z 00000001400f38c8 f   Update.obj
 0001:000f28fc       ?ShowLastError@CConEmuUpdate@@KA_J_J@Z 00000001400f38fc f   Update.obj
 0001:000f2a30       ?StartCheckProcedure@CConEmuUpdate@@QEAAXI@Z 00000001400f3a30 f   Update.obj
 0001:000f2ce4       ?StartLocalUpdate@CConEmuUpdate@@IEAA_NPEB_W@Z 00000001400f3ce4 f   Update.obj
 0001:000f31f8       ?StopChecking@CConEmuUpdate@@QEAAXXZ 00000001400f41f8 f   Update.obj
 0001:000f3314       ?WaitAllInstances@CConEmuUpdate@@IEAAXXZ 00000001400f4314 f   Update.obj
 0001:000f347c       ??0ConEmuUpdateSettings@@QEAA@XZ 00000001400f447c f   UpdateSet.obj
 0001:000f34bc       ??1ConEmuUpdateSettings@@QEAA@XZ 00000001400f44bc f   UpdateSet.obj
 0001:000f3504       ?CheckHourlyUpdate@ConEmuUpdateSettings@@QEAAXXZ 00000001400f4504 f   UpdateSet.obj
 0001:000f3548       ?FreePointers@ConEmuUpdateSettings@@QEAAXXZ 00000001400f4548 f   UpdateSet.obj
 0001:000f3600       ?GetDefaultUpdateChannel@ConEmuUpdateSettings@@SA?AW4Builds@1@XZ 00000001400f4600 f   UpdateSet.obj
 0001:000f3604       ?GetUpdateInetToolCmd@ConEmuUpdateSettings@@QEAAPEB_WXZ 00000001400f4604 f   UpdateSet.obj
 0001:000f3624       ?IsVerLocationDeprecated@ConEmuUpdateSettings@@QEAA_NPEB_W@Z 00000001400f4624 f   UpdateSet.obj
 0001:000f3714       ?LoadFrom@ConEmuUpdateSettings@@QEAAXPEAU1@@Z 00000001400f4714 f   UpdateSet.obj
 0001:000f3828       ?ResetToDefaults@ConEmuUpdateSettings@@QEAAXXZ 00000001400f4828 f   UpdateSet.obj
 0001:000f3b78       ?SetUpdateVerLocation@ConEmuUpdateSettings@@QEAAXPEB_W@Z 00000001400f4b78 f   UpdateSet.obj
 0001:000f3c28       ?UpdateArcCmdLine@ConEmuUpdateSettings@@QEAAPEB_WXZ 00000001400f4c28 f   UpdateSet.obj
 0001:000f3c4c       ?UpdateDownloadSetup@ConEmuUpdateSettings@@QEAAEXZ 00000001400f4c4c f   UpdateSet.obj
 0001:000f3e38       ?UpdateExeCmdLine@ConEmuUpdateSettings@@QEAAPEB_WAEAY03_W@Z 00000001400f4e38 f   UpdateSet.obj
 0001:000f3e94       ?UpdateVerLocation@ConEmuUpdateSettings@@QEAAPEB_WXZ 00000001400f4e94 f   UpdateSet.obj
 0001:000f3eac       ?UpdateVerLocationDefault@ConEmuUpdateSettings@@QEAAPEB_WXZ 00000001400f4eac f   UpdateSet.obj
 0001:000f3eb4       ?UpdatesAllowed@ConEmuUpdateSettings@@QEAA_NAEAY0IA@_W@Z 00000001400f4eb4 f   UpdateSet.obj
 0001:000f40e4       ??0CConEmuChild@@QEAA@PEAVCVirtualConsole@@@Z 00000001400f50e4 f   VConChild.obj
 0001:000f4294       ??1CConEmuChild@@MEAA@XZ   00000001400f5294 f   VConChild.obj
 0001:000f42e4       ??_GCConEmuChild@@MEAAPEAXI@Z 00000001400f52e4 f i VConChild.obj
 0001:000f42e4       ??_ECConEmuChild@@MEAAPEAXI@Z 00000001400f52e4 f i VConChild.obj
 0001:000f4318       ?BackWndProc@CConEmuChild@@SA_JPEAUHWND__@@I_K_J@Z 00000001400f5318 f   VConChild.obj
 0001:000f47f0       ?CalcDCMargins@CConEmuChild@@QEAA?AUtagRECT@@AEBU2@@Z 00000001400f57f0 f   VConChild.obj
 0001:000f4a18       ?CheckMouseOverScroll@CConEmuChild@@QEAA_NXZ 00000001400f5a18 f   VConChild.obj
 0001:000f4bd0       ?CheckPostRedraw@CConEmuChild@@QEAAXXZ 00000001400f5bd0 f   VConChild.obj
 0001:000f4c0c       ?ChildWndProc@CConEmuChild@@SA_JPEAUHWND__@@I_K_J@Z 00000001400f5c0c f   VConChild.obj
 0001:000f53b0       ?CreateView@CConEmuChild@@QEAAPEAUHWND__@@XZ 00000001400f63b0 f   VConChild.obj
 0001:000f55c8       ?DoDestroyDcWindow@CConEmuChild@@QEAAXXZ 00000001400f65c8 f   VConChild.obj
 0001:000f567c       ?GetBack@CConEmuChild@@QEAAPEAUHWND__@@XZ 00000001400f667c f   VConChild.obj
 0001:000f568c       ?GetView@CConEmuChild@@QEAAPEAUHWND__@@XZ 00000001400f668c f   VConChild.obj
 0001:000f569c       ?HideScroll@CConEmuChild@@IEAAX_N@Z 00000001400f669c f   VConChild.obj
 0001:000f5814       ?InScroll@CConEmuChild@@QEAA_NXZ 00000001400f6814 f   VConChild.obj
 0001:000f5854       ?Invalidate@CConEmuChild@@QEAAXXZ 00000001400f6854 f   VConChild.obj
 0001:000f5888       ?InvalidateBack@CConEmuChild@@IEAAXXZ 00000001400f6888 f   VConChild.obj
 0001:000f58a8       ?InvalidateView@CConEmuChild@@IEAAXXZ 00000001400f68a8 f   VConChild.obj
 0001:000f5a0c       ?IsDcLocked@CConEmuChild@@QEAAHPEAUtagRECT@@@Z 00000001400f6a0c f   VConChild.obj
 0001:000f5a5c       ?IsInvalidatePending@CConEmuChild@@QEAA_NXZ 00000001400f6a5c f   VConChild.obj
 0001:000f5a6c       ?LockDcRect@CConEmuChild@@QEAAX_NPEAUtagRECT@@@Z 00000001400f6a6c f   VConChild.obj
 0001:000f5bc8       ?MySetScrollInfo@CConEmuChild@@IEAAX_N0@Z 00000001400f6bc8 f   VConChild.obj
 0001:000f5cd0       ?OnAlwaysShowScrollbar@CConEmuChild@@QEAAX_N@Z 00000001400f6cd0 f   VConChild.obj
 0001:000f5dd4       ?OnMove@CConEmuChild@@IEAA_J_K_J@Z 00000001400f6dd4 f   VConChild.obj
 0001:000f5e74       ?OnPaint@CConEmuChild@@QEAA_JXZ 00000001400f6e74 f   VConChild.obj
 0001:000f60d8       ?OnPaintGaps@CConEmuChild@@QEAA_JPEAUHDC__@@@Z 00000001400f70d8 f   VConChild.obj
 0001:000f6418       ?OnSize@CConEmuChild@@IEAA_J_K_J@Z 00000001400f7418 f   VConChild.obj
 0001:000f64b8       ?OnVConSizePosChanged@CConEmuChild@@QEAAXXZ 00000001400f74b8 f   VConChild.obj
 0001:000f6508       ?PostDetach@CConEmuChild@@QEAAX_N@Z 00000001400f7508 f   VConChild.obj
 0001:000f6520       ?PostOnVConClosed@CConEmuChild@@IEAAXXZ 00000001400f7520 f   VConChild.obj
 0001:000f6584       ?PostRestoreChildFocus@CConEmuChild@@QEAAXXZ 00000001400f7584 f   VConChild.obj
 0001:000f65b8       ?ProcessVConClosed@CConEmuChild@@SAXPEAVCVirtualConsole@@_N@Z 00000001400f75b8 f   VConChild.obj
 0001:000f6648       ?Redraw@CConEmuChild@@QEAAX_N@Z 00000001400f7648 f   VConChild.obj
 0001:000f6730       ?RestoreChildFocusPending@CConEmuChild@@QEAAX_N@Z 00000001400f7730 f   VConChild.obj
 0001:000f6764       ?SetAutoCopyTimer@CConEmuChild@@QEAAX_N@Z 00000001400f7764 f   VConChild.obj
 0001:000f67ac       ?SetRedraw@CConEmuChild@@QEAAX_N@Z 00000001400f77ac f   VConChild.obj
 0001:000f67b8       ?SetScroll@CConEmuChild@@QEAAX_NHHH@Z 00000001400f77b8 f   VConChild.obj
 0001:000f68f8       ?SetVConSizePos@CConEmuChild@@QEAAXAEBUtagRECT@@0_N@Z 00000001400f78f8 f   VConChild.obj
 0001:000f69c8       ?SetVConSizePos@CConEmuChild@@QEAAXAEBUtagRECT@@_N@Z 00000001400f79c8 f   VConChild.obj
 0001:000f6a40       ?ShowScroll@CConEmuChild@@IEAAX_N@Z 00000001400f7a40 f   VConChild.obj
 0001:000f6be8       ?ShowView@CConEmuChild@@QEAA_NH@Z 00000001400f7be8 f   VConChild.obj
 0001:000f6e08       ?TrackMouse@CConEmuChild@@QEAA_NXZ 00000001400f7e08 f   VConChild.obj
 0001:000f6f14       ?UpdateScrollRgn@CConEmuChild@@IEAAX_N@Z 00000001400f7f14 f   VConChild.obj
 0001:000f707c       ?isAlreadyDestroyed@CConEmuChild@@QEAA_NXZ 00000001400f807c f   VConChild.obj
 0001:000f7084       ??0CGroupGuard@@QEAA@PEAVCVConGroup@@@Z 00000001400f8084 f   VConGroup.obj
 0001:000f70e0       ??0CVConGroup@@AEAA@PEAV0@@Z 00000001400f80e0 f   VConGroup.obj
 0001:000f71f8       ??1?$CRefGuard@VCVConGroup@@@@UEAA@XZ 00000001400f81f8 f i VConGroup.obj
 0001:000f7250       ??1CGroupGuard@@UEAA@XZ    00000001400f8250 f   VConGroup.obj
 0001:000f72a8       ??1CVConGroup@@MEAA@XZ     00000001400f82a8 f   VConGroup.obj
 0001:000f7314       ??_G?$CRefGuard@VCVConGroup@@@@UEAAPEAXI@Z 00000001400f8314 f i VConGroup.obj
 0001:000f7314       ??_E?$CRefGuard@VCVConGroup@@@@UEAAPEAXI@Z 00000001400f8314 f i VConGroup.obj
 0001:000f738c       ??_GCGroupGuard@@UEAAPEAXI@Z 00000001400f838c f i VConGroup.obj
 0001:000f738c       ??_ECGroupGuard@@UEAAPEAXI@Z 00000001400f838c f i VConGroup.obj
 0001:000f73c0       ??_ECVConGroup@@MEAAPEAXI@Z 00000001400f83c0 f i VConGroup.obj
 0001:000f73c0       ??_GCVConGroup@@MEAAPEAXI@Z 00000001400f83c0 f i VConGroup.obj
 0001:000f73f4       ?Activate@CVConGroup@@SA_NPEAVCVirtualConsole@@@Z 00000001400f83f4 f   VConGroup.obj
 0001:000f743c       ?ActivateNextPane@CVConGroup@@SA_NPEAVCVirtualConsole@@HH@Z 00000001400f843c f   VConGroup.obj
 0001:000f7514       ?ActiveConNum@CVConGroup@@SAHXZ 00000001400f8514 f   VConGroup.obj
 0001:000f7544       ?AllTextRect@CVConGroup@@SA?AUtagRECT@@PEAUtagSIZE@@_N@Z 00000001400f8544 f   VConGroup.obj
 0001:000f7670       ?Attach@CGroupGuard@@UEAA_NPEAVCVConGroup@@@Z 00000001400f8670 f   VConGroup.obj
 0001:000f7720       ?AttachRequested@CVConGroup@@SAHPEAUHWND__@@PEBUCESERVER_REQ_STARTSTOP@@AEAUCESERVER_REQ_SRVSTARTSTOPRET@@@Z 00000001400f8720 f   VConGroup.obj
 0001:000f7aa8       ?AttachRequestedGui@CVConGroup@@SAPEAVCRealConsole@@KPEB_WK@Z 00000001400f8aa8 f   VConGroup.obj
 0001:000f7cec       ?CalcRect@CVConGroup@@SA?AUtagRECT@@W4ConEmuRect@@U2@0PEAVCVirtualConsole@@W4ConEmuMargins@@@Z 00000001400f8cec f   VConGroup.obj
 0001:000f8190       ?CalcSplitRect@CVConGroup@@IEAAXIUtagRECT@@AEAU2@11@Z 00000001400f9190 f   VConGroup.obj
 0001:000f856c       ?CalcSplitRootRect@CVConGroup@@IEAAXUtagRECT@@AEAU2@PEAV1@@Z 00000001400f956c f   VConGroup.obj
 0001:000f8648       ?CheckProcesses@CVConGroup@@SAKXZ 00000001400f9648 f   VConGroup.obj
 0001:000f86a8       ?CloseAllButActive@CVConGroup@@SAXPEAVCVirtualConsole@@W4CloseConsoleMode@1@_N@Z 00000001400f96a8 f   VConGroup.obj
 0001:000f884c       ?CloseGroup@CVConGroup@@SAXPEAVCVirtualConsole@@_N@Z 00000001400f984c f   VConGroup.obj
 0001:000f8964       ?CloseQuery@CVConGroup@@CA_NPEAV?$MArray@PEAVCVConGuard@@@@PEA_N_N2@Z 00000001400f9964 f   VConGroup.obj
 0001:000f8d44       ?ConActivate@CVConGroup@@CA_NAEAVCVConGuard@@H@Z 00000001400f9d44 f   VConGroup.obj
 0001:000f8fe4       ?ConActivate@CVConGroup@@SA_NH@Z 00000001400f9fe4 f   VConGroup.obj
 0001:000f90ac       ?ConActivateByName@CVConGroup@@SA_NPEB_W@Z 00000001400fa0ac f   VConGroup.obj
 0001:000f9110       ?ConActivateNext@CVConGroup@@SA_N_N@Z 00000001400fa110 f   VConGroup.obj
 0001:000f91c0       ?CreateCon@CVConGroup@@SAPEAVCVirtualConsole@@PEAURConStartArgsEx@@_N1@Z 00000001400fa1c0 f   VConGroup.obj
 0001:000f9798       ?CreateVCon@CVConGroup@@CAPEAVCVirtualConsole@@PEAURConStartArgsEx@@AEAPEAV2@H@Z 00000001400fa798 f   VConGroup.obj
 0001:000f99a0       ?CreateVConGroup@CVConGroup@@CAPEAV1@XZ 00000001400fa9a0 f   VConGroup.obj
 0001:000f99d4       ?Deinitialize@CVConGroup@@SAXXZ 00000001400fa9d4 f   VConGroup.obj
 0001:000f99e0       ?DestroyAllVCon@CVConGroup@@SAXXZ 00000001400fa9e0 f   VConGroup.obj
 0001:000f9aa8       ?DoCloseAllVCon@CVConGroup@@SA_N_N@Z 00000001400faaa8 f   VConGroup.obj
 0001:000f9c6c       ?DoSrvCreated@CVConGroup@@SAPEAUHWND__@@KQEAU2@KAEAK1AEAHAEAUCESERVER_REQ_SRVSTARTSTOPRET@@@Z 00000001400fac6c f   VConGroup.obj
 0001:000f9d74       ?EnumVCon@CVConGroup@@SA_NW4EnumVConFlags@@P6A_NPEAVCVirtualConsole@@_J@Z2@Z 00000001400fad74 f   VConGroup.obj
 0001:000f9e70       ?ExchangePanes@CVConGroup@@SA_NPEAVCVirtualConsole@@HH@Z 00000001400fae70 f   VConGroup.obj
 0001:000fa000       ?ExportEnvVarAll@CVConGroup@@SAXPEAUCESERVER_REQ@@PEAVCRealConsole@@@Z 00000001400fb000 f   VConGroup.obj
 0001:000fa19c       ?FindNextPane@CVConGroup@@IEAAPEAV1@AEBUtagRECT@@HH@Z 00000001400fb19c f   VConGroup.obj
 0001:000fa3b0       ?FindSplitGroup@CVConGroup@@KAPEAV1@UtagPOINT@@PEAV1@@Z 00000001400fb3b0 f   VConGroup.obj
 0001:000fa4ec       ?FreePanesArray@CVConGroup@@SAXAEAV?$MArray@PEAVCVConGuard@@@@@Z 00000001400fb4ec f   VConGroup.obj
 0001:000fa5b8       ?GetActiveVCon@CVConGroup@@SAHPEAVCVConGuard@@PEAH@Z 00000001400fb5b8 f   VConGroup.obj
 0001:000fa668       ?GetAllTextSize@CVConGroup@@IEAAXAEAUtagSIZE@@0_N@Z 00000001400fb668 f   VConGroup.obj
 0001:000fa7f0       ?GetConCount@CVConGroup@@SAH_N@Z 00000001400fb7f0 f   VConGroup.obj
 0001:000fa850       ?GetExclusionRgn@CVConGroup@@SAPEAUHRGN__@@XZ 00000001400fb850 f   VConGroup.obj
 0001:000fa908       ?GetFarPID@CVConGroup@@SAK_N@Z 00000001400fb908 f   VConGroup.obj
 0001:000fa954       ?GetGroupPanes@CVConGroup@@QEAAHPEAV?$MArray@PEAVCVConGuard@@@@@Z 00000001400fb954 f   VConGroup.obj
 0001:000faa0c       ?GetProgressInfo@CVConGroup@@SA_NPEAFPEAH11@Z 00000001400fba0c f   VConGroup.obj
 0001:000faba0       ?GetRootOfVCon@CVConGroup@@KAPEAV1@PEAVCVirtualConsole@@@Z 00000001400fbba0 f   VConGroup.obj
 0001:000fabf0       ?GetTasks@CVConGroup@@SAPEA_WXZ 00000001400fbbf0 f   VConGroup.obj
 0001:000faf4c       ?GetVCon@CVConGroup@@SA_NHPEAVCVConGuard@@_N@Z 00000001400fbf4c f   VConGroup.obj
 0001:000faf98       ?GetVConByHWND@CVConGroup@@SA_NPEAUHWND__@@0PEAVCVConGuard@@@Z 00000001400fbf98 f   VConGroup.obj
 0001:000fafd0       ?GetVConByName@CVConGroup@@SA_NPEB_WPEAVCVConGuard@@@Z 00000001400fbfd0 f   VConGroup.obj
 0001:000fb0bc       ?GetVConBySrvPID@CVConGroup@@SA_NKKPEAVCVConGuard@@@Z 00000001400fc0bc f   VConGroup.obj
 0001:000fb20c       ?GetVConFromPoint@CVConGroup@@SA_NUtagPOINT@@PEAVCVConGuard@@@Z 00000001400fc20c f   VConGroup.obj
 0001:000fb330       ?GetVConIndex@CVConGroup@@SAHPEAVCVirtualConsole@@@Z 00000001400fc330 f   VConGroup.obj
 0001:000fb354       ?GroupInput@CVConGroup@@SAXPEAVCVirtualConsole@@W4GroupInputCmd@@@Z 00000001400fc354 f   VConGroup.obj
 0001:000fb474       ?GroupSelectedInput@CVConGroup@@SAXPEAVCVirtualConsole@@@Z 00000001400fc474 f   VConGroup.obj
 0001:000fb51c       ?InCreateGroup@CVConGroup@@SA_NXZ 00000001400fc51c f   VConGroup.obj
 0001:000fb524       ?Initialize@CVConGroup@@SAXXZ 00000001400fc524 f   VConGroup.obj
 0001:000fb560       ?InvalidateAll@CVConGroup@@SAXXZ 00000001400fc560 f   VConGroup.obj
 0001:000fb5d0       ?InvalidateGaps@CVConGroup@@SAXXZ 00000001400fc5d0 f   VConGroup.obj
 0001:000fb5f0       ?LogInput@CVConGroup@@SAXI_K_JPEB_W@Z 00000001400fc5f0 f   VConGroup.obj
 0001:000fb660       ?LogString@CVConGroup@@SAXPEBD@Z 00000001400fc660 f   VConGroup.obj
 0001:000fb6a0       ?LogString@CVConGroup@@SAXPEB_W@Z 00000001400fc6a0 f   VConGroup.obj
 0001:000fb6e0       ?MoveActiveTab@CVConGroup@@SAXPEAVCVirtualConsole@@_N@Z 00000001400fc6e0 f   VConGroup.obj
 0001:000fb778       ?MoveAllVCon@CVConGroup@@SAXPEAVCVirtualConsole@@UtagRECT@@@Z 00000001400fc778 f   VConGroup.obj
 0001:000fb8d8       ?MoveToParent@CVConGroup@@IEAAXPEAV1@@Z 00000001400fc8d8 f   VConGroup.obj
 0001:000fb96c       ?NotifyChildrenWindows@CVConGroup@@SAXXZ 00000001400fc96c f   VConGroup.obj
 0001:000fb9f0       ?OnAlwaysShowScrollbar@CVConGroup@@SAX_N@Z 00000001400fc9f0 f   VConGroup.obj
 0001:000fba08       ?OnCloseQuery@CVConGroup@@SA_NPEA_N@Z 00000001400fca08 f   VConGroup.obj
 0001:000fba68       ?OnConActivated@CVConGroup@@SAXPEAVCVirtualConsole@@@Z 00000001400fca68 f   VConGroup.obj
 0001:000fba8c       ?OnConsoleResize@CVConGroup@@SAX_N@Z 00000001400fca8c f   VConGroup.obj
 0001:000fbd5c       ?OnCreateGroupBegin@CVConGroup@@SAXXZ 00000001400fcd5c f   VConGroup.obj
 0001:000fbd88       ?OnCreateGroupEnd@CVConGroup@@SAXXZ 00000001400fcd88 f   VConGroup.obj
 0001:000fbdac       ?OnDestroyConEmu@CVConGroup@@SAXXZ 00000001400fcdac f   VConGroup.obj
 0001:000fbe58       ?OnFlashWindow@CVConGroup@@SA_NKKKPEAUHWND__@@@Z 00000001400fce58 f   VConGroup.obj
 0001:000fc048       ?OnGuiFocused@CVConGroup@@SAX_N0@Z 00000001400fd048 f   VConGroup.obj
 0001:000fc0dc       ?OnMouseEvent@CVConGroup@@SA_JPEAUHWND__@@I_K_J@Z 00000001400fd0dc f   VConGroup.obj
 0001:000fc334       ?OnPaintGaps@CVConGroup@@SAXPEAUHDC__@@@Z 00000001400fd334 f   VConGroup.obj
 0001:000fc508       ?OnPaintSplitter@CVConGroup@@IEAAXPEAUHDC__@@PEAUHBRUSH__@@@Z 00000001400fd508 f   VConGroup.obj
 0001:000fc620       ?OnPanelViewSettingsChanged@CVConGroup@@SAXXZ 00000001400fd620 f   VConGroup.obj
 0001:000fc650       ?OnRConTimerCheck@CVConGroup@@SAXXZ 00000001400fd650 f   VConGroup.obj
 0001:000fc6bc       ?OnTaskbarCreated@CVConGroup@@SAXXZ 00000001400fd6bc f   VConGroup.obj
 0001:000fc734       ?OnTaskbarSettingsChanged@CVConGroup@@SAXXZ 00000001400fd734 f   VConGroup.obj
 0001:000fc790       ?OnUpdateFarSettings@CVConGroup@@SAXXZ 00000001400fd790 f   VConGroup.obj
 0001:000fc7f8       ?OnUpdateGuiInfoMapping@CVConGroup@@SAXPEAUConEmuGuiMapping@@@Z 00000001400fd7f8 f   VConGroup.obj
 0001:000fc87c       ?OnUpdateProcessDisplay@CVConGroup@@SAXPEAUHWND__@@@Z 00000001400fd87c f   VConGroup.obj
 0001:000fca2c       ?OnUpdateScrollInfo@CVConGroup@@SAXXZ 00000001400fda2c f   VConGroup.obj
 0001:000fcaa8       ?OnUpdateTextColorSettings@CVConGroup@@SAX_N0PEBUAppSettings@@@Z 00000001400fdaa8 f   VConGroup.obj
 0001:000fcb38       ?OnVConClosed@CVConGroup@@SAXPEAVCVirtualConsole@@@Z 00000001400fdb38 f   VConGroup.obj
 0001:000fcdc0       ?OnVConCreated@CVConGroup@@SAXPEAVCVirtualConsole@@PEBURConStartArgsEx@@@Z 00000001400fddc0 f   VConGroup.obj
 0001:000fce1c       ?OnVConDestroyed@CVConGroup@@SAXPEAVCVirtualConsole@@@Z 00000001400fde1c f   VConGroup.obj
 0001:000fce64       ?PaneActivateNext@CVConGroup@@SA_N_N@Z 00000001400fde64 f   VConGroup.obj
 0001:000fcfb8       ?PaneMaximizeRestore@CVConGroup@@SAXPEAVCVirtualConsole@@@Z 00000001400fdfb8 f   VConGroup.obj
 0001:000fd0e8       ?PopulateSplitPanes@CVConGroup@@AEAAXIAEAIAEAV?$MArray@PEAVCVConGuard@@@@@Z 00000001400fe0e8 f   VConGroup.obj
 0001:000fd280       ?PreReSize@CVConGroup@@SA_NIUtagRECT@@W4ConEmuRect@@_N@Z 00000001400fe280 f   VConGroup.obj
 0001:000fd408       ?ReSizePanes@CVConGroup@@SAXUtagRECT@@@Z 00000001400fe408 f   VConGroup.obj
 0001:000fd45c       ?ReSizeSplitter@CVConGroup@@IEAA_NH@Z 00000001400fe45c f   VConGroup.obj
 0001:000fd780       ?ReSizeSplitter@CVConGroup@@SA_NPEAVCVirtualConsole@@HH@Z 00000001400fe780 f   VConGroup.obj
 0001:000fd93c       ?ReSizeSplitterHelper@CVConGroup@@KA_J_J@Z 00000001400fe93c f   VConGroup.obj
 0001:000fd96c       ?Redraw@CVConGroup@@SAXXZ  00000001400fe96c f   VConGroup.obj
 0001:000fd9e0       ?RemoveGroup@CVConGroup@@IEAAXXZ 00000001400fe9e0 f   VConGroup.obj
 0001:000fdab4       ?RepositionVCon@CVConGroup@@IEAAXUtagRECT@@_N@Z 00000001400feab4 f   VConGroup.obj
 0001:000fdd44       ?ResetGroupInput@CVConGroup@@SAXPEAVCConEmuMain@@W4GroupInputCmd@@@Z 00000001400fed44 f   VConGroup.obj
 0001:000fde0c       ?SetAllConsoleWindowsSize@CVConGroup@@SAXUtagRECT@@U_COORD@@_N@Z 00000001400fee0c f   VConGroup.obj
 0001:000fdf54       ?SetConsoleSizes@CVConGroup@@IEAAXAEBU_COORD@@AEBUtagRECT@@_N@Z 00000001400fef54 f   VConGroup.obj
 0001:000fe2f8       ?SetRedraw@CVConGroup@@SAX_N@Z 00000001400ff2f8 f   VConGroup.obj
 0001:000fe370       ?ShowActiveGroup@CVConGroup@@KAXPEAVCVirtualConsole@@@Z 00000001400ff370 f   VConGroup.obj
 0001:000fe474       ?ShowAllVCon@CVConGroup@@IEAAXH@Z 00000001400ff474 f   VConGroup.obj
 0001:000fe530       ?SplitVConGroup@CVConGroup@@AEAAPEAV1@W4SplitType@RConStartArgs@@I@Z 00000001400ff530 f   VConGroup.obj
 0001:000fe6c0       ?StopSignalAll@CVConGroup@@SAXXZ 00000001400ff6c0 f   VConGroup.obj
 0001:000fe6f8       ?StopSplitDragging@CVConGroup@@KAXXZ 00000001400ff6f8 f   VConGroup.obj
 0001:000fe830       ?StoreActiveVCon@CVConGroup@@IEAAXPEAVCVirtualConsole@@@Z 00000001400ff830 f   VConGroup.obj
 0001:000fe87c       ?SyncAllConsoles2Window@CVConGroup@@SAXUtagRECT@@_N@Z 00000001400ff87c f   VConGroup.obj
 0001:000fe968       ?SyncConsoleToWindow@CVConGroup@@SAXPEAUtagRECT@@_N@Z 00000001400ff968 f   VConGroup.obj
 0001:000fea4c       ?Update@CVConGroup@@SAX_N@Z 00000001400ffa4c f   VConGroup.obj
 0001:000feae8       ?UpdateWindowChild@CVConGroup@@SAXPEAVCVirtualConsole@@@Z 00000001400ffae8 f   VConGroup.obj
 0001:000fec2c       ?isActiveGroupVCon@CVConGroup@@SA_NPEAVCVirtualConsole@@@Z 00000001400ffc2c f   VConGroup.obj
 0001:000fecc0       ?isChildWindowVisible@CVConGroup@@SA_NXZ 00000001400ffcc0 f   VConGroup.obj
 0001:000fed68       ?isConSelectMode@CVConGroup@@SA_NXZ 00000001400ffd68 f   VConGroup.obj
 0001:000fedc0       ?isConsolePID@CVConGroup@@SA_NK@Z 00000001400ffdc0 f   VConGroup.obj
 0001:000fee5c       ?isDetached@CVConGroup@@SA_NXZ 00000001400ffe5c f   VConGroup.obj
 0001:000feed8       ?isFar@CVConGroup@@SA_N_N@Z 00000001400ffed8 f   VConGroup.obj
 0001:000fef44       ?isFarExist@CVConGroup@@SAHIPEA_WPEAVCVConGuard@@@Z 00000001400fff44 f   VConGroup.obj
 0001:000ff2dc       ?isFilePanel@CVConGroup@@SA_N_N@Z 00000001401002dc f   VConGroup.obj
 0001:000ff350       ?isGroup@CVConGroup@@SA_NPEAVCVirtualConsole@@PEAPEAV1@PEAVCVConGuard@@@Z 0000000140100350 f   VConGroup.obj
 0001:000ff3fc       ?isGroupVisible@CVConGroup@@KA_NPEAV1@@Z 00000001401003fc f   VConGroup.obj
 0001:000ff470       ?isInCreateRoot@CVConGroup@@SA_NXZ 0000000140100470 f   VConGroup.obj
 0001:000ff4ec       ?isNtvdm@CVConGroup@@SA_NH@Z 00000001401004ec f   VConGroup.obj
 0001:000ff59c       ?isOurConsoleWindow@CVConGroup@@SA_NPEAUHWND__@@@Z 000000014010059c f   VConGroup.obj
 0001:000ff628       ?isOurGuiChildWindow@CVConGroup@@SA_NPEAUHWND__@@@Z 0000000140100628 f   VConGroup.obj
 0001:000ff6f0       ?isOurWindow@CVConGroup@@SA_NPEAUHWND__@@@Z 00000001401006f0 f   VConGroup.obj
 0001:000ff7e8       ?isPictureView@CVConGroup@@SA_NXZ 00000001401007e8 f   VConGroup.obj
 0001:000ff96c       ?isSplitterDragging@CVConGroup@@SA?AW4SplitType@RConStartArgs@@XZ 000000014010096c f   VConGroup.obj
 0001:000ff9ac       ?isVConExists@CVConGroup@@SA_NH@Z 00000001401009ac f   VConGroup.obj
 0001:000ff9c8       ?isVConHWND@CVConGroup@@SA_NPEAUHWND__@@PEAVCVConGuard@@@Z 00000001401009c8 f   VConGroup.obj
 0001:000ffa94       ?isValid@CVConGroup@@SA_NPEAVCRealConsole@@@Z 0000000140100a94 f   VConGroup.obj
 0001:000ffb10       ?isValid@CVConGroup@@SA_NPEAVCVirtualConsole@@@Z 0000000140100b10 f   VConGroup.obj
 0001:000ffb38       ?setActiveVConAndFlags@CVConGroup@@KAXPEAVCVirtualConsole@@@Z 0000000140100b38 f   VConGroup.obj
 0001:000ffc48       ?setRef@CVConGroup@@KA_NAEAPEAVCVirtualConsole@@PEAV2@@Z 0000000140100c48 f   VConGroup.obj
 0001:000ffd10       ??0CVConGuard@@QEAA@PEAVCVirtualConsole@@@Z 0000000140100d10 f   VConRelease.obj
 0001:000ffd70       ??0CVConGuard@@QEAA@XZ     0000000140100d70 f   VConRelease.obj
 0001:000ffda8       ??0CVConRelease@@QEAA@PEAVCVirtualConsole@@@Z 0000000140100da8 f   VConRelease.obj
 0001:000ffdcc       ??1?$CRefGuard@VCVirtualConsole@@@@UEAA@XZ 0000000140100dcc f i VConRelease.obj
 0001:000ffe24       ??1CVConGuard@@UEAA@XZ     0000000140100e24 f   VConRelease.obj
 0001:000ffe7c       ??_G?$CRefGuard@VCVirtualConsole@@@@UEAAPEAXI@Z 0000000140100e7c f i VConRelease.obj
 0001:000ffe7c       ??_E?$CRefGuard@VCVirtualConsole@@@@UEAAPEAXI@Z 0000000140100e7c f i VConRelease.obj
 0001:000ffef4       ??_ECVConGuard@@UEAAPEAXI@Z 0000000140100ef4 f i VConRelease.obj
 0001:000ffef4       ??_GCVConGuard@@UEAAPEAXI@Z 0000000140100ef4 f i VConRelease.obj
 0001:000fff28       ??_ECVConRelease@@UEAAPEAXI@Z 0000000140100f28 f i VConRelease.obj
 0001:000fff28       ??_GCVConRelease@@UEAAPEAXI@Z 0000000140100f28 f i VConRelease.obj
 0001:000fff54       ?Attach@CVConGuard@@UEAA_NPEAVCVirtualConsole@@@Z 0000000140100f54 f   VConRelease.obj
 0001:000fffb8       ?DeleteFromMainThread@CVConRelease@@QEAAXXZ 0000000140100fb8 f   VConRelease.obj
 0001:000fffd8       ?FinalRelease@CVConRelease@@MEAAXXZ 0000000140100fd8 f   VConRelease.obj
 0001:00100024       ??0CVConLine@@QEAA@PEAVCRealConsole@@@Z 0000000140101024 f   VConText.obj
 0001:00100084       ??1CVConLine@@QEAA@XZ      0000000140101084 f   VConText.obj
 0001:0010009c       ??1Shrinker@@QEAA@XZ       000000014010109c f i VConText.obj
 0001:001000a8       ?AllocateMemory@CVConLine@@IEAA_NXZ 00000001401010a8 f   VConText.obj
 0001:00100104       ?CropParts@CVConLine@@IEAAXIII@Z 0000000140101104 f   VConText.obj
 0001:001001cc       ?DistributeParts@CVConLine@@IEAAXIII@Z 00000001401011cc f   VConText.obj
 0001:00100394       ?DoShrink@CVConLine@@IEAAXAEAIAEAH00@Z 0000000140101394 f   VConText.obj
 0001:001003e4       ?Done@VConTextPart@@QEAAXXZ 00000001401013e4 f   VConText.obj
 0001:00100408       ?ExpandPart@CVConLine@@IEAAXAEAUVConTextPart@@I@Z 0000000140101408 f   VConText.obj
 0001:00100468       ?GetNextPart@CVConLine@@QEAA_NAEAIAEAPEAUVConTextPart@@1@Z 0000000140101468 f   VConText.obj
 0001:00100538       ?ParseLine@CVConLine@@QEAA_N_NIIIPEA_WPEAUtag_CharAttr@@QEB_WQEBU2@@Z 0000000140101538 f   VConText.obj
 0001:00100dd8       ?PolishParts@CVConLine@@QEAAXPEAK@Z 0000000140101dd8 f   VConText.obj
 0001:00101024       ?ReleaseMemory@CVConLine@@IEAAXXZ 0000000140102024 f   VConText.obj
 0001:00101070       ?SetDialogs@CVConLine@@QEAAXHPEAU_SMALL_RECT@@PEAKKAEBU2@@Z 0000000140102070 f   VConText.obj
 0001:00101090       ?SetLen@VConTextPart@@QEAAXII@Z 0000000140102090 f   VConText.obj
 0001:00101164       ?eval_compression@Shrinker@@QEAA_NPEAUVConTextPart@@IIH@Z 0000000140102164 f i VConText.obj
 0001:001013b4       ?get_total@Shrinker@@QEAAXPEAUVConTextPart@@IIAEAMAEAH@Z 00000001401023b4 f i VConText.obj
 0001:001015dc       ?isCharAltFont@@YA_NH@Z    00000001401025dc f   VConText.obj
 0001:001015ec       ?isCharNonWord@@YA_NH@Z    00000001401025ec f   VConText.obj
 0001:00101658       ?isCharProgress@@YA_NH@Z   0000000140102658 f   VConText.obj
 0001:00101674       ?isCharPunctuation@@YA_NH@Z 0000000140102674 f   VConText.obj
 0001:001016b8       ?isCharScroll@@YA_NH@Z     00000001401026b8 f   VConText.obj
 0001:001016dc       ?isCharSeparate@@YA_NH@Z   00000001401026dc f   VConText.obj
 0001:00101724       ?isCharSpace@@YA_NH@Z      0000000140102724 f   VConText.obj
 0001:0010175c       ?isCharSpaceSingle@@YA_NH@Z 000000014010275c f   VConText.obj
 0001:0010178c       ?isDialogBorderCoord@CVConLine@@IEAAKI@Z 000000014010278c f   VConText.obj
 0001:0010191c       ??$SafeDelete@VCRealConsole@@@@YAXAEAPEAVCRealConsole@@@Z 000000014010291c f i VirtualConsole.obj
 0001:00101964       ??$_Buynode@AEBUpiecewise_construct_t@std@@V?$tuple@AEBH@2@V?$tuple@$$V@2@@?$_List_buy@U?$pair@$$CBHG@std@@V?$allocator@U?$pair@$$CBHG@std@@@2@@std@@QEAAPEAU?$_List_node@U?$pair@$$CBHG@std@@PEAX@1@PEAU21@0AEBUpiecewise_construct_t@1@$$QEAV?$tuple@AEBH@1@$$QEAV?$tuple@$$V@1@@Z 0000000140102964 f i VirtualConsole.obj
 0001:001019a0       ??$_Insert@AEAU?$pair@$$CBHG@std@@V?$_List_unchecked_iterator@V?$_List_val@U?$_List_simple_types@U?$pair@$$CBHG@std@@@std@@@std@@@2@@?$_Hash@V?$_Umap_traits@HGV?$_Uhash_compare@HU?$hash@H@std@@U?$equal_to@H@2@@std@@V?$allocator@U?$pair@$$CBHG@std@@@2@$0A@@std@@@std@@IEAA?AU?$pair@V?$_List_iterator@V?$_List_val@U?$_List_simple_types@U?$pair@$$CBHG@std@@@std@@@std@@@std@@_N@1@AEAU?$pair@$$CBHG@1@V?$_List_unchecked_iterator@V?$_List_val@U?$_List_simple_types@U?$pair@$$CBHG@std@@@std@@@std@@@1@@Z 00000001401029a0 f i VirtualConsole.obj
 0001:00101b14       ??$_Insert@AEBUpiecewise_construct_t@std@@V?$tuple@AEBH@2@V?$tuple@$$V@2@@?$list@U?$pair@$$CBHG@std@@V?$allocator@U?$pair@$$CBHG@std@@@2@@std@@QEAAXV?$_List_unchecked_const_iterator@V?$_List_val@U?$_List_simple_types@U?$pair@$$CBHG@std@@@std@@@std@@U_Iterator_base0@2@@1@AEBUpiecewise_construct_t@1@$$QEAV?$tuple@AEBH@1@$$QEAV?$tuple@$$V@1@@Z 0000000140102b14 f i VirtualConsole.obj
 0001:00101b8c       ??$_Try_emplace@AEBH$$V@?$unordered_map@HGU?$hash@H@std@@U?$equal_to@H@2@V?$allocator@U?$pair@$$CBHG@std@@@2@@std@@QEAA?AU?$pair@V?$_List_iterator@V?$_List_val@U?$_List_simple_types@U?$pair@$$CBHG@std@@@std@@@std@@@std@@_N@1@AEBH@Z 0000000140102b8c f i VirtualConsole.obj
 0001:00101c10       ??$erase@V?$_List_iterator@V?$_List_val@U?$_List_simple_types@U?$pair@$$CBHG@std@@@std@@@std@@@std@@X@?$_Hash@V?$_Umap_traits@HGV?$_Uhash_compare@HU?$hash@H@std@@U?$equal_to@H@2@@std@@V?$allocator@U?$pair@$$CBHG@std@@@2@$0A@@std@@@std@@QEAA?AV?$_List_iterator@V?$_List_val@U?$_List_simple_types@U?$pair@$$CBHG@std@@@std@@@std@@@1@V21@@Z 0000000140102c10 f i VirtualConsole.obj
 0001:00101c28       ??0CVirtualConsole@@IEAA@PEAVCConEmuMain@@H@Z 0000000140102c28 f   VirtualConsole.obj
 0001:00101fc0       ??1CEDC@@QEAA@XZ           0000000140102fc0 f i VirtualConsole.obj
 0001:00101fec       ??1CVirtualConsole@@MEAA@XZ 0000000140102fec f   VirtualConsole.obj
 0001:001021fc       ??_ECVirtualConsole@@OBI@EAAPEAXI@Z 00000001401031fc f i VirtualConsole.obj
 0001:00102208       ??_GCVirtualConsole@@MEAAPEAXI@Z 0000000140103208 f i VirtualConsole.obj
 0001:00102208       ??_ECVirtualConsole@@MEAAPEAXI@Z 0000000140103208 f i VirtualConsole.obj
 0001:0010223c       ?Blit@CVirtualConsole@@QEAA_NPEAUHDC__@@HHHH@Z 000000014010323c f   VirtualConsole.obj
 0001:00102298       ?CalcHighlightRowCol@CVirtualConsole@@IEAA_NPEAU_COORD@@@Z 0000000140103298 f   VirtualConsole.obj
 0001:00102450       ?ChangeHighlightMouse@CVirtualConsole@@QEAAXHH@Z 0000000140103450 f   VirtualConsole.obj
 0001:00102578       ?ChangePalette@CVirtualConsole@@QEAA_NH@Z 0000000140103578 f   VirtualConsole.obj
 0001:001025a0       ?ChangePalette@CVirtualConsole@@QEAA_NPEBUColorPalette@@@Z 00000001401035a0 f   VirtualConsole.obj
 0001:00102750       ?ChangePalette@CVirtualConsole@@QEAA_NPEB_W@Z 0000000140103750 f   VirtualConsole.obj
 0001:00102778       ?CharAttrFromConAttr@CVirtualConsole@@AEAAXGPEAUtag_CharAttr@@@Z 0000000140103778 f   VirtualConsole.obj
 0001:00102804       ?CharWidth@CVirtualConsole@@IEAAG_WAEBUtag_CharAttr@@@Z 0000000140103804 f   VirtualConsole.obj
 0001:00102998       ?CheckChangedTextAttr@CVirtualConsole@@IEAA_NXZ 0000000140103998 f   VirtualConsole.obj
 0001:00102b94       ?CheckDialogsChanged@CVirtualConsole@@AEAA_NXZ 0000000140103b94 f   VirtualConsole.obj
 0001:00102c64       ?CheckTransparent@CVirtualConsole@@QEAA_NXZ 0000000140103c64 f   VirtualConsole.obj
 0001:00102d30       ?CheckTransparentRgn@CVirtualConsole@@IEAA_N_N@Z 0000000140103d30 f   VirtualConsole.obj
 0001:001031a8       ?ClearPartBrushes@CVirtualConsole@@SAXXZ 00000001401041a8 f   VirtualConsole.obj
 0001:001031f0       ?ClientToConsole@CVirtualConsole@@QEAA?AU_COORD@@JJ_N@Z 00000001401041f0 f   VirtualConsole.obj
 0001:00103308       ?ConsoleToClient@CVirtualConsole@@QEAA?AUtagPOINT@@JJ@Z 0000000140104308 f   VirtualConsole.obj
 0001:001033e0       ?Constructor@CVirtualConsole@@IEAA_NPEAURConStartArgsEx@@@Z 00000001401043e0 f   VirtualConsole.obj
 0001:001036b8       ?CreateBackBrush@CVirtualConsole@@AEAAPEAUHBRUSH__@@_NAEA_NPEAK@Z 00000001401046b8 f   VirtualConsole.obj
 0001:00103740       ?Dump@CVirtualConsole@@QEAA_NPEB_W@Z 0000000140104740 f   VirtualConsole.obj
 0001:00103980       ?DumpConsole@CVirtualConsole@@QEAAXXZ 0000000140104980 f   VirtualConsole.obj
 0001:00103a68       ?FindChanges@CVirtualConsole@@IEAA_NHPEB_WPEBUtag_CharAttr@@01@Z 0000000140104a68 f   VirtualConsole.obj
 0001:00103b0c       ?FindOpaqueCell@CVirtualConsole@@QEAA?AU_COORD@@XZ 0000000140104b0c f   VirtualConsole.obj
 0001:00103c10       ?GetBackSize@CVirtualConsole@@QEAA?AUtagSIZE@@XZ 0000000140104c10 f   VirtualConsole.obj
 0001:00103c30       ?GetBackgroundObject@CVirtualConsole@@QEAAPEAVCBackgroundInfo@@XZ 0000000140104c30 f   VirtualConsole.obj
 0001:00103c5c       ?GetCellSize@CVirtualConsole@@QEAA?AUtagSIZE@@XZ 0000000140104c5c f   VirtualConsole.obj
 0001:00103c74       ?GetColors@CVirtualConsole@@QEAAPEAKXZ 0000000140104c74 f   VirtualConsole.obj
 0001:00103c80       ?GetColors@CVirtualConsole@@QEAAPEAK_N@Z 0000000140104c80 f   VirtualConsole.obj
 0001:00103d3c       ?GetCursor@CVirtualConsole@@QEAA?ATCECursorType@@_N@Z 0000000140104d3c f   VirtualConsole.obj
 0001:00103e08       ?GetDcClientRect@CVirtualConsole@@QEAA?AUtagRECT@@XZ 0000000140104e08 f   VirtualConsole.obj
 0001:00103e58       ?GetExclusionRgn@CVirtualConsole@@QEAAPEAUHRGN__@@XZ 0000000140104e58 f   VirtualConsole.obj
 0001:00103e94       ?GetIntDC@CVirtualConsole@@IEAAPEAUHDC__@@XZ 0000000140104e94 f   VirtualConsole.obj
 0001:00103e9c       ?GetPaletteIndex@CVirtualConsole@@QEAAHXZ 0000000140104e9c f   VirtualConsole.obj
 0001:00103f34       ?GetTextHeight@CVirtualConsole@@QEAAJXZ 0000000140104f34 f   VirtualConsole.obj
 0001:00103f3c       ?GetTextWidth@CVirtualConsole@@QEAAJXZ 0000000140104f3c f   VirtualConsole.obj
 0001:00103f44       ?GetUCharMapFontPtr@CVirtualConsole@@QEAA_NAEAVCFontPtr@@@Z 0000000140104f44 f   VirtualConsole.obj
 0001:00103f74       ?GetVConHeight@CVirtualConsole@@QEAAJXZ 0000000140104f74 f   VirtualConsole.obj
 0001:00103f7c       ?GetVConOffset@CVirtualConsole@@QEAA?AUtagPOINT@@XZ 0000000140104f7c f   VirtualConsole.obj
 0001:00103f9c       ?GetVConWidth@CVirtualConsole@@QEAAJXZ 0000000140104f9c f   VirtualConsole.obj
 0001:00103fa4       ?GhostWnd@CVirtualConsole@@QEAAPEAUHWND__@@XZ 0000000140104fa4 f   VirtualConsole.obj
 0001:00103fbc       ?GuiWnd@CVirtualConsole@@QEAAPEAUHWND__@@XZ 0000000140104fbc f   VirtualConsole.obj
 0001:00103fd4       ?HasBackgroundImage@CVirtualConsole@@QEAA_NPEAJ0@Z 0000000140104fd4 f   VirtualConsole.obj
 0001:0010402c       ?ID@CVirtualConsole@@QEAAHXZ 000000014010502c f   VirtualConsole.obj
 0001:00104034       ?Index@CVirtualConsole@@QEAAHXZ 0000000140105034 f   VirtualConsole.obj
 0001:0010403c       ?IndexStr@CVirtualConsole@@QEAAPEB_WXZ 000000014010503c f   VirtualConsole.obj
 0001:00104068       ?InitDC@CVirtualConsole@@QEAA_N_N0PEAVMSectionLock@@1@Z 0000000140105068 f   VirtualConsole.obj
 0001:00104384       ?InitGhost@CVirtualConsole@@QEAAXXZ 0000000140105384 f   VirtualConsole.obj
 0001:001043dc       ?InternalOpenCreate@?$MFileMapping@Utag_DetectedDialog@@@@IEAAPEAUtag_DetectedDialog@@HHH@Z 00000001401053dc f i VirtualConsole.obj
 0001:00104590       ?IsPanelViews@CVirtualConsole@@QEAA_NXZ 0000000140105590 f   VirtualConsole.obj
 0001:001045d8       ?LoadConsoleData@CVirtualConsole@@QEAA_NXZ 00000001401055d8 f   VirtualConsole.obj
 0001:00104900       ?LoadDumpConsole@CVirtualConsole@@QEAA_NXZ 0000000140105900 f   VirtualConsole.obj
 0001:00104a20       ?Log@VConCreateLogger@@YAXPEAVCVirtualConsole@@W4EventType@1@@Z 0000000140105a20 f   VirtualConsole.obj
 0001:00104a5c       ?NeedBackgroundUpdate@CVirtualConsole@@QEAAXXZ 0000000140105a5c f   VirtualConsole.obj
 0001:00104a7c       ?OnAppSettingsChanged@CVirtualConsole@@QEAAXH@Z 0000000140105a7c f   VirtualConsole.obj
 0001:00104b30       ?OnConsoleSizeChanged@CVirtualConsole@@QEAAXXZ 0000000140105b30 f   VirtualConsole.obj
 0001:00104b78       ?OnConsoleSizeReset@CVirtualConsole@@QEAAXGG@Z 0000000140105b78 f   VirtualConsole.obj
 0001:00104ba0       ?OnDestroy@CVirtualConsole@@MEAAXXZ 0000000140105ba0 f   VirtualConsole.obj
 0001:00104bd4       ?OnFontChanged@CVirtualConsole@@QEAAXXZ 0000000140105bd4 f   VirtualConsole.obj
 0001:00104be4       ?OnPanelViewSettingsChanged@CVirtualConsole@@QEAAXXZ 0000000140105be4 f   VirtualConsole.obj
 0001:00104ce0       ?OnTaskbarFocus@CVirtualConsole@@QEAAXXZ 0000000140105ce0 f   VirtualConsole.obj
 0001:00104cfc       ?OnTaskbarSettingsChanged@CVirtualConsole@@QEAAXXZ 0000000140105cfc f   VirtualConsole.obj
 0001:00104d4c       ?OnTitleChanged@CVirtualConsole@@QEAAXXZ 0000000140105d4c f   VirtualConsole.obj
 0001:00104d84       ?Owner@CVirtualConsole@@QEAAPEAVCConEmuMain@@XZ 0000000140105d84 f   VirtualConsole.obj
 0001:00104d94       ?PaintBackgroundImage@CVirtualConsole@@QEAAXPEAUHDC__@@AEBUtagRECT@@K_N@Z 0000000140105d94 f   VirtualConsole.obj
 0001:00104fd8       ?PaintVCon@CVirtualConsole@@QEAAXPEAUHDC__@@@Z 0000000140105fd8 f   VirtualConsole.obj
 0001:00105264       ?PaintVConDebug@CVirtualConsole@@IEAAXPEAUHDC__@@UtagRECT@@@Z 0000000140106264 f   VirtualConsole.obj
 0001:001056b8       ?PaintVConNormal@CVirtualConsole@@IEAAXPEAUHDC__@@UtagRECT@@@Z 00000001401066b8 f   VirtualConsole.obj
 0001:00105d98       ?PaintVConSimple@CVirtualConsole@@IEAAXPEAUHDC__@@UtagRECT@@_N@Z 0000000140106d98 f   VirtualConsole.obj
 0001:00105fa8       ?PartBrush@CVirtualConsole@@KAPEAUHBRUSH__@@_WKK@Z 0000000140106fa8 f   VirtualConsole.obj
 0001:001063d8       ?PatInvertRect@CVirtualConsole@@IEAAXPEAUHDC__@@AEBUtagRECT@@0_N@Z 00000001401073d8 f   VirtualConsole.obj
 0001:001064ec       ?PointersAlloc@CVirtualConsole@@AEAA_NXZ 00000001401074ec f   VirtualConsole.obj
 0001:00106660       ?PointersFree@CVirtualConsole@@AEAAXXZ 0000000140107660 f   VirtualConsole.obj
 0001:001067ec       ?PointersZero@CVirtualConsole@@AEAAXXZ 00000001401077ec f   VirtualConsole.obj
 0001:001068b4       ?PolishPanelViews@CVirtualConsole@@AEAAXXZ 00000001401078b4 f   VirtualConsole.obj
 0001:00106fa4       ?PrintClient@CVirtualConsole@@QEAA_NPEAUHDC__@@_NQEAUtagRECT@@@Z 0000000140107fa4 f   VirtualConsole.obj
 0001:0010710c       ?RCon@CVirtualConsole@@QEAAPEAVCRealConsole@@XZ 000000014010810c f   VirtualConsole.obj
 0001:00107134       ?RegisterPanelView@CVirtualConsole@@QEAA_NPEAUPanelViewInit@@@Z 0000000140108134 f   VirtualConsole.obj
 0001:0010727c       ?SavePaneSnapshot@CVirtualConsole@@QEAAXXZ 000000014010827c f   VirtualConsole.obj
 0001:001072cc       ?SelectBrush@CVirtualConsole@@QEAAXPEAUHBRUSH__@@@Z 00000001401082cc f   VirtualConsole.obj
 0001:00107344       ?SelectFont@CVirtualConsole@@IEAAXAEBVCFontPtr@@@Z 0000000140108344 f   VirtualConsole.obj
 0001:00107384       ?SelectFont@CVirtualConsole@@QEAAXW4CEFontStyles@@@Z 0000000140108384 f   VirtualConsole.obj
 0001:001073fc       ?SetBackgroundImageData@CVirtualConsole@@QEAAHPEAUCESERVER_REQ_SETBACKGROUND@@@Z 00000001401083fc f   VirtualConsole.obj
 0001:0010746c       ?SetFlags@CVirtualConsole@@IEAA_NKKH@Z 000000014010846c f   VirtualConsole.obj
 0001:001074e0       ?SetSelfPalette@CVirtualConsole@@QEAAXGGAEAY0BA@$$CBK@Z 00000001401084e0 f   VirtualConsole.obj
 0001:001077f8       ?StretchPaint@CVirtualConsole@@QEAA_NPEAUHDC__@@HHHH@Z 00000001401087f8 f   VirtualConsole.obj
 0001:001078ec       ?UndoHighlights@CVirtualConsole@@IEAAXXZ 00000001401088ec f   VirtualConsole.obj
 0001:001079e0       ?Update@CVirtualConsole@@QEAA_N_NPEAPEAUHDC__@@@Z 00000001401089e0 f   VirtualConsole.obj
 0001:00107dd4       ?UpdateCursor@CVirtualConsole@@QEAAXAEA_N@Z 0000000140108dd4 f   VirtualConsole.obj
 0001:001080bc       ?UpdateCursorDraw@CVirtualConsole@@IEAAXPEAUHDC__@@UtagRECT@@U_COORD@@I@Z 00000001401090bc f   VirtualConsole.obj
 0001:001085cc       ?UpdateCursorGroup@CVirtualConsole@@SA_NPEAV1@_J@Z 00000001401095cc f   VirtualConsole.obj
 0001:00108604       ?UpdateHighlights@CVirtualConsole@@IEAAXXZ 0000000140109604 f   VirtualConsole.obj
 0001:00108690       ?UpdateHighlightsHyperlink@CVirtualConsole@@IEAAXXZ 0000000140109690 f   VirtualConsole.obj
 0001:00108838       ?UpdateHighlightsRowCol@CVirtualConsole@@IEAAXXZ 0000000140109838 f   VirtualConsole.obj
 0001:00108aac       ?UpdateInfo@CVirtualConsole@@QEAAXXZ 0000000140109aac f   VirtualConsole.obj
 0001:00108d84       ?UpdatePanelRgn@CVirtualConsole@@AEAA_N_N00@Z 0000000140109d84 f   VirtualConsole.obj
 0001:0010926c       ?UpdatePanelView@CVirtualConsole@@AEAA_N_N0@Z 000000014010a26c f   VirtualConsole.obj
 0001:00109558       ?UpdatePrepare@CVirtualConsole@@IEAA_NPEAPEAUHDC__@@PEAVMSectionLock@@1@Z 000000014010a558 f   VirtualConsole.obj
 0001:00109b00       ?UpdateText@CVirtualConsole@@IEAAXXZ 000000014010ab00 f   VirtualConsole.obj
 0001:0010a624       ?UpdateThumbnail@CVirtualConsole@@QEAAX_N@Z 000000014010b624 f   VirtualConsole.obj
 0001:0010a678       ?WasHighlightRowColChanged@CVirtualConsole@@IEAA_NXZ 000000014010b678 f   VirtualConsole.obj
 0001:0010a7f4       ?_Check_size@?$_Hash@V?$_Umap_traits@HGV?$_Uhash_compare@HU?$hash@H@std@@U?$equal_to@H@2@@std@@V?$allocator@U?$pair@$$CBHG@std@@@2@$0A@@std@@@std@@IEAAXXZ 000000014010b7f4 f i VirtualConsole.obj
 0001:0010a8a4       ?_Destroy_if_node@?$_Hash@V?$_Umap_traits@HGV?$_Uhash_compare@HU?$hash@H@std@@U?$equal_to@H@2@@std@@V?$allocator@U?$pair@$$CBHG@std@@@2@$0A@@std@@@std@@IEAAXV?$_List_unchecked_iterator@V?$_List_val@U?$_List_simple_types@U?$pair@$$CBHG@std@@@std@@@std@@@2@@Z 000000014010b8a4 f i VirtualConsole.obj
 0001:0010a8d0       ?_Make_iter@?$_Hash@V?$_Umap_traits@HGV?$_Uhash_compare@HU?$hash@H@std@@U?$equal_to@H@2@@std@@V?$allocator@U?$pair@$$CBHG@std@@@2@$0A@@std@@@std@@QEBA?AV?$_List_iterator@V?$_List_val@U?$_List_simple_types@U?$pair@$$CBHG@std@@@std@@@std@@@2@V?$_List_unchecked_const_iterator@V?$_List_val@U?$_List_simple_types@U?$pair@$$CBHG@std@@@std@@@std@@U_Iterator_base0@2@@2@@Z 000000014010b8d0 f i VirtualConsole.obj
 0001:0010a8d8       ?erase@?$_Hash@V?$_Umap_traits@HGV?$_Uhash_compare@HU?$hash@H@std@@U?$equal_to@H@2@@std@@V?$allocator@U?$pair@$$CBHG@std@@@2@$0A@@std@@@std@@QEAA?AV?$_List_iterator@V?$_List_val@U?$_List_simple_types@U?$pair@$$CBHG@std@@@std@@@std@@@2@V?$_List_const_iterator@V?$_List_val@U?$_List_simple_types@U?$pair@$$CBHG@std@@@std@@@std@@@2@@Z 000000014010b8d8 f i VirtualConsole.obj
 0001:0010a9b8       ?isActive@CVirtualConsole@@QEAA_N_N@Z 000000014010b9b8 f   VirtualConsole.obj
 0001:0010a9d0       ?isGroupedInput@CVirtualConsole@@QEAA?AW4EnumVConFlags@@XZ 000000014010b9d0 f   VirtualConsole.obj
 0001:0010aa1c       ?isVisible@CVirtualConsole@@QEAA_NXZ 000000014010ba1c f   VirtualConsole.obj
 0001:0010aa38       ?lower_bound@?$_Hash@V?$_Umap_traits@HGV?$_Uhash_compare@HU?$hash@H@std@@U?$equal_to@H@2@@std@@V?$allocator@U?$pair@$$CBHG@std@@@2@$0A@@std@@@std@@QEAA?AV?$_List_iterator@V?$_List_val@U?$_List_simple_types@U?$pair@$$CBHG@std@@@std@@@std@@@2@AEBH@Z 000000014010ba38 f i VirtualConsole.obj
 0001:0010aadc       ?setFocus@CVirtualConsole@@QEAAXXZ 000000014010badc f   VirtualConsole.obj
 0001:0010ab34       ??0CWinObjBase@@QEAA@XZ    000000014010bb34 f   WinObjBase.obj
 0001:0010ab58       ??1CWinObjBase@@UEAA@XZ    000000014010bb58 f   WinObjBase.obj
 0001:0010ab64       ??_ECWinObjBase@@UEAAPEAXI@Z 000000014010bb64 f i WinObjBase.obj
 0001:0010ab64       ??_GCWinObjBase@@UEAAPEAXI@Z 000000014010bb64 f i WinObjBase.obj
 0001:0010ab90       ?GetObj@CWinObjBase@@KAPEAV1@PEAUHWND__@@PEAUTabPanelWinMap@@_N@Z 000000014010bb90 f   WinObjBase.obj
 0001:0010abf4       ?InitObjMap@CWinObjBase@@SA_NXZ 000000014010bbf4 f   WinObjBase.obj
 0001:0010ac70       ?SetObj@CWinObjBase@@KAXPEAUHWND__@@PEAV1@P6A_J0I_K_J@Z@Z 000000014010bc70 f   WinObjBase.obj
 0001:0010accb       GetFileVersionInfoSizeW    000000014010bccb f   version:VERSION.dll
 0001:0010acd1       GetFileVersionInfoW        000000014010bcd1 f   version:VERSION.dll
 0001:0010acd7       VerQueryValueW             000000014010bcd7 f   version:VERSION.dll
 0001:0010acdd       NetUserEnum                000000014010bcdd f   netapi32:NETAPI32.dll
 0001:0010ace3       NetApiBufferFree           000000014010bce3 f   netapi32:NETAPI32.dll
 0001:0010ace9       CreateToolhelp32Snapshot   000000014010bce9 f   kernel32:KERNEL32.dll
 0001:0010acef       Module32FirstW             000000014010bcef f   kernel32:KERNEL32.dll
 0001:0010acf5       Module32NextW              000000014010bcf5 f   kernel32:KERNEL32.dll
 0001:0010acfb       Process32FirstW            000000014010bcfb f   kernel32:KERNEL32.dll
 0001:0010ad01       Process32NextW             000000014010bd01 f   kernel32:KERNEL32.dll
 0001:0010ad08       ??2@YAPEAX_K@Z             000000014010bd08 f   common-kernel64:Memory.obj
 0001:0010ad3c       ??3@YAXPEAX@Z              000000014010bd3c f   common-kernel64:Memory.obj
 0001:0010ad3c       ??_V@YAXPEAX@Z             000000014010bd3c f   common-kernel64:Memory.obj
 0001:0010ad3c       ?xf_free@@YAXPEAX@Z        000000014010bd3c f   common-kernel64:Memory.obj
 0001:0010ad64       ??_U@YAPEAX_K@Z            000000014010bd64 f   common-kernel64:Memory.obj
 0001:0010ad64       ?xf_malloc@@YAPEAX_K@Z     000000014010bd64 f   common-kernel64:Memory.obj
 0001:0010ad78       ?HeapInitialize@@YA_NXZ    000000014010bd78 f   common-kernel64:Memory.obj
 0001:0010adac       ?xf_calloc@@YAPEAX_K0@Z    000000014010bdac f   common-kernel64:Memory.obj
 0001:0010adc8       ?xf_realloc@@YAPEAXPEAX_K@Z 000000014010bdc8 f   common-kernel64:Memory.obj
 0001:0010adfc       ?lstrcmpni@@YAHPEBD0H@Z    000000014010bdfc f   common-kernel64:MStrSafe.obj
 0001:0010aedc       ?lstrcmpni@@YAHPEB_W0H@Z   000000014010bedc f   common-kernel64:MStrSafe.obj
 0001:0010afec       ?msprintf@@YAPEB_WPEA_W_KPEB_WZZ 000000014010bfec f   common-kernel64:MStrSafe.obj
 0001:0010b408       ?sprintf_c@@YAHPEAD_JPEBDZZ 000000014010c408 f   common-kernel64:MStrSafe.obj
 0001:0010b448       ?startswith@@YAHPEB_W0_N@Z 000000014010c448 f   common-kernel64:MStrSafe.obj
 0001:0010b4d0       ?swprintf_c@@YAHPEA_W_JPEB_WZZ 000000014010c4d0 f   common-kernel64:MStrSafe.obj
 0001:0010b510       ?lstrdup@@YAPEA_WPEB_W_K@Z 000000014010c510 f   common-kernel64:MStrDup.obj
 0001:0010b584       ?lstrdupW@@YAPEA_WPEBDI@Z  000000014010c584 f   common-kernel64:MStrDup.obj
 0001:0010b610       ?lstrmerge@@YAPEA_WPEB_W00000000@Z 000000014010c610 f   common-kernel64:MStrDup.obj
 0001:0010b754       ?lstrmerge@@YA_NPEAPEA_WPEB_W1111111@Z 000000014010c754 f   common-kernel64:MStrDup.obj
 0001:0010b7cc       ??0CEStr@@QEAA@$$QEAPEA_W@Z 000000014010c7cc f   common-kernel64:CEStr.obj
 0001:0010b84c       ??0CEStr@@QEAA@PEB_W00000000@Z 000000014010c84c f   common-kernel64:CEStr.obj
 0001:0010b93c       ??0CEStr@@QEAA@XZ          000000014010c93c f   common-kernel64:CEStr.obj
 0001:0010b9a4       ??1CEStr@@QEAA@XZ          000000014010c9a4 f   common-kernel64:CEStr.obj
 0001:0010b9f0       ??4CEStr@@QEAAAEAU0@$$QEAPEA_W@Z 000000014010c9f0 f   common-kernel64:CEStr.obj
 0001:0010ba08       ??4CEStr@@QEAAAEAU0@$$QEAU0@@Z 000000014010ca08 f   common-kernel64:CEStr.obj
 0001:0010ba5c       ??4CEStr@@QEAAAEAU0@PEB_W@Z 000000014010ca5c f   common-kernel64:CEStr.obj
 0001:0010ba78       ??4CEStrA@@QEAAAEAU0@$$QEAPEAD@Z 000000014010ca78 f   common-kernel64:CEStr.obj
 0001:0010bab4       ??BCEStr@@QEBA_NXZ         000000014010cab4 f   common-kernel64:CEStr.obj
 0001:0010bac8       ?Append@CEStr@@QEAAPEB_WPEB_W0000000@Z 000000014010cac8 f   common-kernel64:CEStr.obj
 0001:0010bb20       ?Attach@CEStr@@QEAAPEB_W$$QEAPEA_W@Z 000000014010cb20 f   common-kernel64:CEStr.obj
 0001:0010bb28       ?AttachInt@CEStr@@AEAAPEB_WAEAPEA_W@Z 000000014010cb28 f   common-kernel64:CEStr.obj
 0001:0010bbb4       ?Clear@CEStr@@QEAAXXZ      000000014010cbb4 f   common-kernel64:CEStr.obj
 0001:0010bbd0       ?Compare@CEStr@@QEBAHPEB_W_N@Z 000000014010cbd0 f   common-kernel64:CEStr.obj
 0001:0010bc00       ?CompareSwitch@CEStr@@AEBA_NPEB_W@Z 000000014010cc00 f   common-kernel64:CEStr.obj
 0001:0010bca0       ?Detach@CEStr@@QEAAPEA_WXZ 000000014010cca0 f   common-kernel64:CEStr.obj
 0001:0010bcc4       ?Empty@CEStr@@QEAAXXZ      000000014010ccc4 f   common-kernel64:CEStr.obj
 0001:0010bce4       ?GetBuffer@CEStr@@QEAAPEA_W_J@Z 000000014010cce4 f   common-kernel64:CEStr.obj
 0001:0010bd9c       ?GetLen@CEStr@@QEBA_JXZ    000000014010cd9c f   common-kernel64:CEStr.obj
 0001:0010bdc0       ?GetMaxCount@CEStr@@QEAA_JXZ 000000014010cdc0 f   common-kernel64:CEStr.obj
 0001:0010bdec       ?GetPosFrom@CEStr@@QEAAXAEBU1@@Z 000000014010cdec f   common-kernel64:CEStr.obj
 0001:0010be08       ?IsEmpty@CEStr@@QEBA_NXZ   000000014010ce08 f   common-kernel64:CEStr.obj
 0001:0010be1c       ?IsPossibleSwitch@CEStr@@QEBA_NXZ 000000014010ce1c f   common-kernel64:CEStr.obj
 0001:0010be88       ?IsSwitch@CEStr@@QEBA_NPEB_W@Z 000000014010ce88 f   common-kernel64:CEStr.obj
 0001:0010bec8       ?Mid@CEStr@@QEBAPEB_W_J@Z  000000014010cec8 f   common-kernel64:CEStr.obj
 0001:0010bf00       ?OneOfSwitches@CEStr@@QEBA_NPEB_W000000000@Z 000000014010cf00 f   common-kernel64:CEStr.obj
 0001:0010bff8       ?SavePathVar@CEStr@@QEAAXPEB_W@Z 000000014010cff8 f   common-kernel64:CEStr.obj
 0001:0010c030       ?Set@CEStr@@QEAAPEB_WPEB_W_J@Z 000000014010d030 f   common-kernel64:CEStr.obj
 0001:0010c11c       ?StringCchCopyNW@@YAJPEA_W_KPEB_W1@Z 000000014010d11c f i common-kernel64:CEStr.obj
 0001:0010c1a4       ?c_str@CEStrA@@QEBAPEBDPEBD@Z 000000014010d1a4 f   common-kernel64:CEStr.obj
 0001:0010c1a4       ?c_str@CEStr@@QEBAPEB_WPEB_W@Z 000000014010d1a4 f   common-kernel64:CEStr.obj
 0001:0010c1b0       ?clear@CEStrA@@QEAAXXZ     000000014010d1b0 f   common-kernel64:CEStr.obj
 0001:0010c1d0       ?getbuffer@CEStrA@@QEAAPEAD_J@Z 000000014010d1d0 f   common-kernel64:CEStr.obj
 0001:0010c220       ?ApplyExportEnvVar@@YAXPEB_W@Z 000000014010d220 f   common-kernel64:WObjects.obj
 0001:0010c36c       ?CoordInSmallRect@@YA_NAEBU_COORD@@AEBU_SMALL_RECT@@@Z 000000014010d36c f   common-kernel64:WObjects.obj
 0001:0010c390       ?ExpandEnvStr@@YAPEA_WPEB_W@Z 000000014010d390 f   common-kernel64:WObjects.obj
 0001:0010c438       ?ExpandMacroValues@@YAPEA_WPEB_WPEAPEB_W_K@Z 000000014010d438 f   common-kernel64:WObjects.obj
 0001:0010c5b4       ?FileExists@@YA_NPEB_WPEAK@Z 000000014010d5b4 f   common-kernel64:WObjects.obj
 0001:0010c740       ?FileExistsSearch@@YA_NPEB_WAEAUCEStr@@_N2@Z 000000014010d740 f   common-kernel64:WObjects.obj
 0001:0010c84c       ?FileSearchInDir@@YA_NPEB_WAEAUCEStr@@@Z 000000014010d84c f   common-kernel64:WObjects.obj
 0001:0010c99c       ?GetComspec@@YAPEA_WPEBUConEmuComspec@@@Z 000000014010d99c f   common-kernel64:WObjects.obj
 0001:0010cae4       ?GetComspecFromEnvVar@@YAPEB_WPEA_WKW4ComSpecBits@@@Z 000000014010dae4 f   common-kernel64:WObjects.obj
 0001:0010cc94       ?GetCpFromString@@YAIPEB_WPEAPEB_W@Z 000000014010dc94 f   common-kernel64:WObjects.obj
 0001:0010cdf8       ?GetEnvVar@@YAPEA_WPEB_W@Z 000000014010ddf8 f   common-kernel64:WObjects.obj
 0001:0010ce9c       ?GetOsVersionInformational@@YA_NPEAU_OSVERSIONINFOW@@@Z 000000014010de9c f   common-kernel64:WObjects.obj
 0001:0010ceb0       ?GetShortFileName@@YA_NPEB_WHPEA_WH@Z 000000014010deb0 f   common-kernel64:WObjects.obj
 0001:0010cfc8       ?GetShortFileNameEx@@YAPEA_WPEB_WH@Z 000000014010dfc8 f   common-kernel64:WObjects.obj
 0001:0010d310       ?IsExportEnvVarAllowed@@YA_NPEB_W@Z 000000014010e310 f   common-kernel64:WObjects.obj
 0001:0010d3a8       ?IsHwFullScreenAvailable@@YA_NXZ 000000014010e3a8 f   common-kernel64:WObjects.obj
 0001:0010d460       ?IsWin10@@YA_NXZ           000000014010e460 f   common-kernel64:WObjects.obj
 0001:0010d500       ?IsWin6@@YA_NXZ            000000014010e500 f   common-kernel64:WObjects.obj
 0001:0010d534       ?IsWin7@@YA_NXZ            000000014010e534 f   common-kernel64:WObjects.obj
 0001:0010d568       ?IsWinDBCS@@YA_NXZ         000000014010e568 f   common-kernel64:WObjects.obj
 0001:0010d59c       ?IsWinPE@@YA_NXZ           000000014010e59c f   common-kernel64:WObjects.obj
 0001:0010d61c       ?IsWinVerOrHigher@@YA_NG@Z 000000014010e61c f   common-kernel64:WObjects.obj
 0001:0010d6b0       ?IsWinXP@@YA_NXZ           000000014010e6b0 f   common-kernel64:WObjects.obj
 0001:0010d760       ?IsWindows64@@YA_NXZ       000000014010e760 f   common-kernel64:WObjects.obj
 0001:0010d784       ?IsWine@@YA_NXZ            000000014010e784 f   common-kernel64:WObjects.obj
 0001:0010d800       ?_VerifyVersionInfo@@YA_NPEAU_OSVERSIONINFOEXW@@K_K@Z 000000014010e800 f   common-kernel64:WObjects.obj
 0001:0010d8b0       ?apiGetFullPathName@@YAHPEB_WAEAUCEStr@@@Z 000000014010e8b0 f   common-kernel64:WObjects.obj
 0001:0010d998       ?apiSearchPath@@YAHPEB_W00AEAUCEStr@@@Z 000000014010e998 f   common-kernel64:WObjects.obj
 0001:0010da9c       ??0MModule@@QEAA@PEAUHINSTANCE__@@@Z 000000014010ea9c f   common-kernel64:MModule.obj
 0001:0010daa8       ??0MModule@@QEAA@PEB_W@Z   000000014010eaa8 f   common-kernel64:MModule.obj
 0001:0010dac8       ??0MModule@@QEAA@XZ        000000014010eac8 f   common-kernel64:MModule.obj
 0001:0010dac8       ??0MSectionLockSimple@@QEAA@XZ 000000014010eac8 f   common-kernel64:MSectionSimple.obj
 0001:0010dad4       ??1MModule@@QEAA@XZ        000000014010ead4 f   common-kernel64:MModule.obj
 0001:0010dadc       ?Free@MModule@@QEAAXXZ     000000014010eadc f   common-kernel64:MModule.obj
 0001:0010db0c       ?Load@MModule@@QEAAPEAUHINSTANCE__@@PEB_W@Z 000000014010eb0c f   common-kernel64:MModule.obj
 0001:0010db44       ??_GMNullDesc@@QEAAPEAXI@Z 000000014010eb44 f i common-kernel64:MSecurity.obj
 0001:0010dbbc       ?LoadAdvApi@MNullDesc@@IEAAHXZ 000000014010ebbc f i common-kernel64:MSecurity.obj
 0001:0010dd70       ?LocalSecurity@@YAPEAU_SECURITY_ATTRIBUTES@@XZ 000000014010ed70 f   common-kernel64:MSecurity.obj
 0001:0010ddcc       ?LocalSecurity@MNullDesc@@QEAAPEAU_SECURITY_ATTRIBUTES@@XZ 000000014010edcc f i common-kernel64:MSecurity.obj
 0001:0010df48       ?ShutdownSecurity@@YAXXZ   000000014010ef48 f   common-kernel64:MSecurity.obj
 0001:0010df70       ?CheckProcessName@@YA_NPEB_WPEAPEB_W@Z 000000014010ef70 f   common-kernel64:CmdLine.obj
 0001:0010e08c       ?CompareFileMask@@YA_NPEB_W0@Z 000000014010f08c f   common-kernel64:CmdLine.obj
 0001:0010e224       ?CompareProcessNames@@YA_NPEB_W0@Z 000000014010f224 f   common-kernel64:CmdLine.obj
 0001:0010e3bc       ?GetDrive@@YAPEB_WPEB_WPEA_WH@Z 000000014010f3bc f   common-kernel64:CmdLine.obj
 0001:0010e4d8       ?GetParentPath@@YAPEA_WPEB_W@Z 000000014010f4d8 f   common-kernel64:CmdLine.obj
 0001:0010e578       ?IsCmdProcessor@@YA_NPEB_W@Z 000000014010f578 f   common-kernel64:CmdLine.obj
 0001:0010e5c4       ?IsConEmuGui@@YA_NPEB_W@Z  000000014010f5c4 f   common-kernel64:CmdLine.obj
 0001:0010e610       ?IsConsoleHelper@@YA_NPEB_W@Z 000000014010f610 f   common-kernel64:CmdLine.obj
 0001:0010e638       ?IsConsoleServer@@YA_NPEB_W@Z 000000014010f638 f   common-kernel64:CmdLine.obj
 0001:0010e684       ?IsConsoleService@@YA_NPEB_W@Z 000000014010f684 f   common-kernel64:CmdLine.obj
 0001:0010e6d0       ?IsExecutable@@YA_NPEB_WPEAPEA_W@Z 000000014010f6d0 f   common-kernel64:CmdLine.obj
 0001:0010e7b8       ?IsFarExe@@YA_NPEB_W@Z     000000014010f7b8 f   common-kernel64:CmdLine.obj
 0001:0010e804       ?IsFilePath@@YA_NPEB_W_N@Z 000000014010f804 f   common-kernel64:CmdLine.obj
 0001:0010e954       ?IsGitBashHelper@@YA_NPEB_W@Z 000000014010f954 f   common-kernel64:CmdLine.obj
 0001:0010e9a0       ?IsNeedCmd@@YA_NHPEB_WAEAUCEStr@@PEAPEB_WPEAH333@Z 000000014010f9a0 f   common-kernel64:CmdLine.obj
 0001:0010f1ec       ?IsNeedDequote@@YA_NPEB_W_NPEAPEB_W@Z 00000001401101ec f   common-kernel64:CmdLine.obj
 0001:0010f378       ?IsQuotationNeeded@@YA_NPEB_W@Z 0000000140110378 f   common-kernel64:CmdLine.obj
 0001:0010f3a0       ?IsTerminalServer@@YA_NPEB_W@Z 00000001401103a0 f   common-kernel64:CmdLine.obj
 0001:0010f410       ?JoinPath@@YAPEA_WPEB_W00@Z 0000000140110410 f   common-kernel64:CmdLine.obj
 0001:0010f528       ?MergeCmdLine@@YAPEA_WPEB_W0@Z 0000000140110528 f   common-kernel64:CmdLine.obj
 0001:0010f5e4       ?NextArg@@YAHPEAPEB_WAEAUCEStr@@0@Z 00000001401105e4 f   common-kernel64:CmdLine.obj
 0001:0010f98c       ?NextLine@@YAHPEAPEB_WAEAUCEStr@@K@Z 000000014011098c f   common-kernel64:CmdLine.obj
 0001:0010fab4       ?PointToExt@@YAPEB_WPEB_W@Z 0000000140110ab4 f   common-kernel64:CmdLine.obj
 0001:0010fad8       ?PointToName@@YAPEB_WPEB_W@Z 0000000140110ad8 f   common-kernel64:CmdLine.obj
 0001:0010fb34       ?SkipNonPrintable@@YAPEB_WPEB_W@Z 0000000140110b34 f   common-kernel64:CmdLine.obj
 0001:0010fb60       ?Unquote@@YAPEB_WPEA_W_N@Z 0000000140110b60 f   common-kernel64:CmdLine.obj
 0001:0010fbc8       ?ExecuteCmd@@YAPEAUCESERVER_REQ@@PEB_WPEAU1@KPEAUHWND__@@HKH@Z 0000000140110bc8 f   common-kernel64:ConEmuCheck.obj
 0001:0010fdb0       ?ExecuteFreeResult@@YAXAEAPEAUCESERVER_REQ@@@Z 0000000140110db0 f   common-kernel64:ConEmuCheck.obj
 0001:0010fdd0       ?ExecuteGuiCmd@@YAPEAUCESERVER_REQ@@PEAUHWND__@@PEAU1@0H@Z 0000000140110dd0 f   common-kernel64:ConEmuCheck.obj
 0001:0010fe90       ?ExecuteHkCmd@@YAPEAUCESERVER_REQ@@KPEAU1@PEAUHWND__@@HH@Z 0000000140110e90 f   common-kernel64:ConEmuCheck.obj
 0001:0010ff54       ?ExecuteNewCmd@@YAPEAUCESERVER_REQ@@K_K@Z 0000000140110f54 f   common-kernel64:ConEmuCheck.obj
 0001:0010ffb8       ?ExecuteNewCmd@@YA_NAEAPEAUCESERVER_REQ@@AEAKK_K@Z 0000000140110fb8 f   common-kernel64:ConEmuCheck.obj
 0001:00110050       ?ExecuteOpenPipe@@YAPEAXPEB_WAEAY0CAI@_W0KKHPEAXH@Z 0000000140111050 f   common-kernel64:ConEmuCheck.obj
 0001:00110200       ?ExecutePrepareCmd@@YAXPEAUCESERVER_REQ@@K_K@Z 0000000140111200 f   common-kernel64:ConEmuCheck.obj
 0001:0011023c       ?ExecutePrepareCmd@@YAXPEAUCESERVER_REQ_HDR@@K_K@Z 000000014011123c f   common-kernel64:ConEmuCheck.obj
 0001:001102ac       ?ExecuteSrvCmd@@YAPEAUCESERVER_REQ@@KPEAU1@PEAUHWND__@@HKH@Z 00000001401112ac f   common-kernel64:ConEmuCheck.obj
 0001:00110380       ?GuiMessageBox@@YAHPEAUHWND__@@PEB_W1H@Z 0000000140111380 f   common-kernel64:ConEmuCheck.obj
 0001:001104f0       ?LoadSrvMapping@@YAHPEAUHWND__@@AEAUCESERVER_CONSOLE_MAPPING_HDR@@@Z 00000001401114f0 f   common-kernel64:ConEmuCheck.obj
 0001:00110640       ?ModuleName@@YAPEB_WPEB_W@Z 0000000140111640 f   common-kernel64:ConEmuCheck.obj
 0001:00110704       ?isConsoleClass@@YA_NPEB_W@Z 0000000140111704 f   common-kernel64:ConEmuCheck.obj
 0001:00110754       ?isConsoleWindow@@YA_NPEAUHWND__@@@Z 0000000140111754 f   common-kernel64:ConEmuCheck.obj
 0001:00110844       ?myGetConsoleWindow@@YAPEAUHWND__@@XZ 0000000140111844 f   common-kernel64:ConEmuCheck.obj
 0001:001108e0       ?GetProcessBits@@YAHKPEAX@Z 00000001401118e0 f   common-kernel64:MProcessBits.obj
 0001:00110a00       ??$sprintf_c@$0CI@@@YAHAEAY0CI@DPEBDZZ 0000000140111a00 f i common-kernel64:WThreads.obj
 0001:00110a2c       ?SetThreadName@@YAXKPEAD@Z 0000000140111a2c f   common-kernel64:WThreads.obj
 0001:00110a64       ?apiCreateThread@@YAPEAXP6AKPEAX@Z0PEAKPEBDH@Z 0000000140111a64 f   common-kernel64:WThreads.obj
 0001:00110bb8       ?apiTerminateThreadEx@@YAHPEAXKPEBDH@Z 0000000140111bb8 f   common-kernel64:WThreads.obj
 0001:00110cc0       ?apiThreadHelper@@YAKPEAX@Z 0000000140111cc0 f   common-kernel64:WThreads.obj
 0001:00110ecc       ?wasTerminateThreadCalled@@YA_NXZ 0000000140111ecc f   common-kernel64:WThreads.obj
 0001:00110ed8       ??8@YA_NAEBU_COORD@@0@Z    0000000140111ed8 f   common-kernel64:MRect.obj
 0001:00110ef0       ??8@YA_NAEBUtagRECT@@0@Z   0000000140111ef0 f   common-kernel64:MRect.obj
 0001:00110f14       ??9@YA_NAEBU_COORD@@0@Z    0000000140111f14 f   common-kernel64:MRect.obj
 0001:00110f2c       ??9@YA_NAEBUtagRECT@@0@Z   0000000140111f2c f   common-kernel64:MRect.obj
 0001:00110f50       ?CoordCompare@@YAHAEBU_COORD@@0@Z 0000000140111f50 f   common-kernel64:MRect.obj
 0001:00110f88       ?CoordInRect@@YA_NAEBU_COORD@@AEBUtagRECT@@@Z 0000000140111f88 f   common-kernel64:MRect.obj
 0001:00110fa8       ?IntersectSmallRect@@YA_NAEBUtagRECT@@AEBU_SMALL_RECT@@PEAU1@@Z 0000000140111fa8 f   common-kernel64:MRect.obj
 0001:0011101c       ?MakeCoord@@YA?AU_COORD@@HH@Z 000000014011201c f   common-kernel64:MRect.obj
 0001:0011102c       ?MakePoint@@YA?AUtagPOINT@@HH@Z 000000014011202c f   common-kernel64:MRect.obj
 0001:0011103c       ?MakeRect@@YA?AUtagRECT@@HH@Z 000000014011203c f   common-kernel64:MRect.obj
 0001:00111050       ?MakeRect@@YA?AUtagRECT@@HHHH@Z 0000000140112050 f   common-kernel64:MRect.obj
 0001:00111068       ?MakeShort@@YAFH@Z         0000000140112068 f   common-kernel64:MRect.obj
 0001:00111068       ?MakeUShort@@YAGI@Z        0000000140112068 f   common-kernel64:MRect.obj
 0001:0011106c       ?MakeSmallRect@@YA?AU_SMALL_RECT@@HHHH@Z 000000014011206c f   common-kernel64:MRect.obj
 0001:00111090       ?PtDiffTest@@YA_NHHHHII@Z  0000000140112090 f   common-kernel64:MRect.obj
 0001:001110bc       ?PtDiffTest@@YA_NUtagPOINT@@HHI@Z 00000001401120bc f   common-kernel64:MRect.obj
 0001:001110e4       ??0MSection@@QEAA@XZ       00000001401120e4 f   common-kernel64:MSection.obj
 0001:0011116c       ??0MSectionLock@@QEAA@XZ   000000014011216c f   common-kernel64:MSection.obj
 0001:0011117c       ??1MSection@@QEAA@XZ       000000014011217c f   common-kernel64:MSection.obj
 0001:001111f0       ??1MSectionLock@@QEAA@XZ   00000001401121f0 f   common-kernel64:MSection.obj
 0001:00111214       ?AddRef@MSection@@IEAAXK@Z 0000000140112214 f   common-kernel64:MSection.obj
 0001:001112a8       ?Lock@MSection@@IEAAHHK@Z  00000001401122a8 f   common-kernel64:MSection.obj
 0001:001113a4       ?Lock@MSectionLock@@QEAAHPEAVMSection@@HK@Z 00000001401123a4 f   common-kernel64:MSection.obj
 0001:001113f8       ?MyEnterCriticalSection@MSection@@IEAA_NK@Z 00000001401123f8 f   common-kernel64:MSection.obj
 0001:00111528       ?ReleaseRef@MSection@@IEAAHK@Z 0000000140112528 f   common-kernel64:MSection.obj
 0001:001115c8       ?RelockExclusive@MSectionLock@@QEAAHK@Z 00000001401125c8 f   common-kernel64:MSection.obj
 0001:00111618       ?Unlock@MSection@@IEAAXH@Z 0000000140112618 f   common-kernel64:MSection.obj
 0001:00111670       ?Unlock@MSectionLock@@QEAAXXZ 0000000140112670 f   common-kernel64:MSection.obj
 0001:0011169c       ?WaitUnlocked@MSection@@IEAAXKK@Z 000000014011269c f   common-kernel64:MSection.obj
 0001:00111730       ?isLocked@MSectionLock@@QEAAHH@Z 0000000140112730 f   common-kernel64:MSection.obj
 0001:0011174c       ?CommonShutdown@@YAXXZ     000000014011274c f   common-kernel64:Common.obj
 0001:0011175c       ?GetCommand@CESERVER_REQ_NEWCMD@@QEAAPEA_WXZ 000000014011275c f   common-kernel64:Common.obj
 0001:0011177c       ?GetEnvStrings@CESERVER_REQ_NEWCMD@@QEAAPEA_WXZ 000000014011277c f   common-kernel64:Common.obj
 0001:0011179c       ?IsEnvBlockVariableValid@@YA_NPEB_W@Z 000000014011279c f   common-kernel64:Common.obj
 0001:001117d0       ?Mangle@STRPTR2@@QEAAPEAEPEAE@Z 00000001401127d0 f   common-kernel64:Common.obj
 0001:00111848       ?PackInputRecord@@YAHPEBU_INPUT_RECORD@@PEAUMsgStr@MSG64@@@Z 0000000140112848 f   common-kernel64:Common.obj
 0001:001119a0       ?Set@STRPTR2@@QEAAX$$QEAPEA_WH@Z 00000001401129a0 f   common-kernel64:Common.obj
 0001:001119d8       ?SetCommand@CESERVER_REQ_NEWCMD@@QEAAXPEB_W@Z 00000001401129d8 f   common-kernel64:Common.obj
 0001:00111a40       ?TranslateKeyPress@@YAXGK_WHPEAU_INPUT_RECORD@@1@Z 0000000140112a40 f   common-kernel64:Common.obj
 0001:00111bd0       ?GetImageSubsystem@@YA_NPEB_WAEAK11@Z 0000000140112bd0 f   common-kernel64:execute.obj
 0001:00111e64       ?IsFileBatch@@YA_NPEB_W@Z  0000000140112e64 f   common-kernel64:execute.obj
 0001:00111efc       ??0MSectionLockSimple@@QEAA@AEAUMSectionSimple@@@Z 0000000140112efc f   common-kernel64:MSectionSimple.obj
 0001:00111f20       ??0MSectionSimple@@QEAA@_N@Z 0000000140112f20 f   common-kernel64:MSectionSimple.obj
 0001:00111f58       ??1MSectionLockSimple@@QEAA@XZ 0000000140112f58 f   common-kernel64:MSectionSimple.obj
 0001:00111f6c       ??1MSectionSimple@@QEAA@XZ 0000000140112f6c f   common-kernel64:MSectionSimple.obj
 0001:00111f6c       ?Close@MSectionSimple@@QEAAXXZ 0000000140112f6c f   common-kernel64:MSectionSimple.obj
 0001:00111f8c       ?Enter@MSectionSimple@@QEAAXXZ 0000000140112f8c f   common-kernel64:MSectionSimple.obj
 0001:00111f94       ?Init@MSectionSimple@@QEAAXXZ 0000000140112f94 f   common-kernel64:MSectionSimple.obj
 0001:00111fb4       ?Leave@MSectionSimple@@QEAAXXZ 0000000140112fb4 f   common-kernel64:MSectionSimple.obj
 0001:00111fbc       ?Lock@MSectionLockSimple@@QEAAHPEAUMSectionSimple@@K@Z 0000000140112fbc f   common-kernel64:MSectionSimple.obj
 0001:00112058       ?RecreateAndLock@MSectionSimple@@QEAA_NXZ 0000000140113058 f   common-kernel64:MSectionSimple.obj
 0001:001120c8       ?TryEnter@MSectionSimple@@QEAA_NXZ 00000001401130c8 f   common-kernel64:MSectionSimple.obj
 0001:001120f0       ?Unlock@MSectionLockSimple@@QEAAXXZ 00000001401130f0 f   common-kernel64:MSectionSimple.obj
 0001:00112118       ??0MFileLog@@QEAA@PEB_W0K@Z 0000000140113118 f   common-kernel64:MFileLog.obj
 0001:001121c8       ??1MFileLog@@UEAA@XZ       00000001401131c8 f   common-kernel64:MFileLog.obj
 0001:0011222c       ??_GMFileLog@@UEAAPEAXI@Z  000000014011322c f i common-kernel64:MFileLog.obj
 0001:0011222c       ??_EMFileLog@@UEAAPEAXI@Z  000000014011322c f i common-kernel64:MFileLog.obj
 0001:00112260       ?CloseLogFile@MFileLog@@QEAAXXZ 0000000140113260 f   common-kernel64:MFileLog.obj
 0001:001122d8       ?CreateLogFile@MFileLog@@QEAAJPEB_WKK@Z 00000001401132d8 f   common-kernel64:MFileLog.obj
 0001:00112778       ?GetLogFileName@MFileLog@@QEAAPEB_WXZ 0000000140113778 f   common-kernel64:MFileLog.obj
 0001:00112798       ?InitFileName@MFileLog@@IEAAJPEB_WK@Z 0000000140113798 f   common-kernel64:MFileLog.obj
 0001:0011283c       ?LogString@MFileLog@@QEAAXPEBD_N01I@Z 000000014011383c f   common-kernel64:MFileLog.obj
 0001:00112978       ?LogString@MFileLog@@QEAAXPEB_W_N01@Z 0000000140113978 f   common-kernel64:MFileLog.obj
 0001:00112c40       ??1?$MToolHelp@UtagPROCESSENTRY32W@@$1?Process32FirstW@@YAHPEAXPEAU1@@Z$1?Process32NextW@@YAH01@Z@@UEAA@XZ 0000000140113c40 f i common-kernel64:MProcess.obj
 0001:00112cd8       ??_G?$MToolHelp@UtagPROCESSENTRY32W@@$1?Process32FirstW@@YAHPEAXPEAU1@@Z$1?Process32NextW@@YAH01@Z@@UEAAPEAXI@Z 0000000140113cd8 f i common-kernel64:MProcess.obj
 0001:00112cd8       ??_GMToolHelpProcess@@UEAAPEAXI@Z 0000000140113cd8 f i common-kernel64:MProcess.obj
 0001:00112cd8       ??_E?$MToolHelp@UtagPROCESSENTRY32W@@$1?Process32FirstW@@YAHPEAXPEAU1@@Z$1?Process32NextW@@YAH01@Z@@UEAAPEAXI@Z 0000000140113cd8 f i common-kernel64:MProcess.obj
 0001:00112cd8       ??_EMToolHelpProcess@@UEAAPEAXI@Z 0000000140113cd8 f i common-kernel64:MProcess.obj
 0001:00112d0c       ?Find@?$MToolHelp@UtagPROCESSENTRY32W@@$1?Process32FirstW@@YAHPEAXPEAU1@@Z$1?Process32NextW@@YAH01@Z@@QEAA_NP6A_NPEAUtagPROCESSENTRY32W@@_J@Z10@Z 0000000140113d0c f i common-kernel64:MProcess.obj
 0001:00112dec       ?GetProcessInfo@@YA_NKPEAUtagPROCESSENTRY32W@@@Z 0000000140113dec f   common-kernel64:MProcess.obj
 0001:00112ed4       ?GetProcessInfo@@YA_NPEB_WPEAUtagPROCESSENTRY32W@@@Z 0000000140113ed4 f   common-kernel64:MProcess.obj
 0001:00112fcc       ?Open@?$MToolHelp@UtagPROCESSENTRY32W@@$1?Process32FirstW@@YAHPEAXPEAU1@@Z$1?Process32NextW@@YAH01@Z@@QEAA_NXZ 0000000140113fcc f i common-kernel64:MProcess.obj
 0001:00113084       ?getNext@?$MToolHelp@UtagPROCESSENTRY32W@@$1?Process32FirstW@@YAHPEAXPEAU1@@Z$1?Process32NextW@@YAH01@Z@@IEAA_NXZ 0000000140114084 f i common-kernel64:MProcess.obj
 0001:00113124       ?StripSourceRoot@@YAPEB_WPEB_W@Z 0000000140114124 f   common-kernel64:MAssert.obj
 0001:0011319c       ??0RConStartArgs@@QEAA@XZ  000000014011419c f   common-kernel64:RConStartArgs.obj
 0001:00113244       ??1RConStartArgs@@UEAA@XZ  0000000140114244 f   common-kernel64:RConStartArgs.obj
 0001:00113310       ??_ERConStartArgs@@UEAAPEAXI@Z 0000000140114310 f i common-kernel64:RConStartArgs.obj
 0001:00113310       ??_GRConStartArgs@@UEAAPEAXI@Z 0000000140114310 f i common-kernel64:RConStartArgs.obj
 0001:00113344       ?AppendServerArgs@RConStartArgs@@QEAAXPEA_W_J@Z 0000000140114344 f   common-kernel64:RConStartArgs.obj
 0001:001133d4       ?CleanSecure@RConStartArgs@@QEAAXXZ 00000001401143d4 f   common-kernel64:RConStartArgs.obj
 0001:00113448       ?ProcessNewConArg@RConStartArgs@@QEAAH_N@Z 0000000140114448 f   common-kernel64:RConStartArgs.obj
 0001:0011420c       ??0CEHandle@@QEAA@AEBQEAX@Z 000000014011520c f   common-kernel64:CEHandle.obj
 0001:00114218       ??1CEHandle@@QEAA@XZ       0000000140115218 f   common-kernel64:CEHandle.obj
 0001:00114220       ??4CEHandle@@QEAAAEBV0@$$QEAPEAX@Z 0000000140115220 f   common-kernel64:CEHandle.obj
 0001:00114258       ??BCEHandle@@QEBA_NXZ      0000000140115258 f   common-kernel64:CEHandle.obj
 0001:00114268       ?Close@CEHandle@@QEAAXXZ   0000000140115268 f   common-kernel64:CEHandle.obj
 0001:0011428c       ?GetRowIdFromAttrs@@YAGPEBG@Z 000000014011528c f   common-kernel64:ConsoleMixAttr.obj
 0001:001143d8       ?Init@HkFunc@@QEAA_NPEB_WPEAUHINSTANCE__@@@Z 00000001401153d8 f   common-kernel64:HkFunc.obj
 0001:00114468       ?isConEmuHk@HkFunc@@QEAA_NXZ 0000000140115468 f   common-kernel64:HkFunc.obj
 0001:00114470       ??0MSetter@@QEAA@PEAJ@Z    0000000140115470 f   common-user64:MSetter.obj
 0001:00114484       ??0MSetter@@QEAA@PEA_N@Z   0000000140115484 f   common-user64:MSetter.obj
 0001:001144a0       ??1MSetter@@QEAA@XZ        00000001401154a0 f   common-user64:MSetter.obj
 0001:001144a8       ?Unlock@MSetter@@QEAAXXZ   00000001401154a8 f   common-user64:MSetter.obj
 0001:001144ec       ?apiGetConsoleSessionID@@YAKXZ 00000001401154ec f   common-user64:WSession.obj
 0001:00114548       ?apiQuerySessionID@@YAHKAEAK@Z 0000000140115548 f   common-user64:WSession.obj
 0001:001145c8       ?apiQuerySessionID@@YAPEB_WXZ 00000001401155c8 f   common-user64:WSession.obj
 0001:0011462c       ?ucs32_from_wchar@@YAHPEB_WAEA_N@Z 000000014011562c f   common-user64:wcchars.obj
 0001:00114680       ?wchar_from_ucs32@@YAPEB_WHAEAY02_W@Z 0000000140115680 f   common-user64:wcchars.obj
 0001:001146b0       ?FindComspec@@YAXPEAUConEmuComspec@@_N@Z 00000001401156b0 f   common-user64:WUser.obj
 0001:00114d8c       ?IsUserAdmin@@YA_NXZ       0000000140115d8c f   common-user64:WUser.obj
 0001:00114ea4       ?SetEnvVarExpanded@@YAXPEB_W0@Z 0000000140115ea4 f   common-user64:WUser.obj
 0001:00114f88       ?UpdateComspec@@YAXPEAUConEmuComspec@@_N@Z 0000000140115f88 f   common-user64:WUser.obj
 0001:0011522c       ?apiSetForegroundWindow@@YA_NPEAUHWND__@@@Z 000000014011622c f   common-user64:WUser.obj
 0001:00115240       ?apiShowWindow@@YA_NPEAUHWND__@@H@Z 0000000140116240 f   common-user64:WUser.obj
 0001:00115254       ?getWindowInfo@@YAXPEAUHWND__@@AEAY0EAA@_W_NPEAK@Z 0000000140116254 f   common-user64:WUser.obj
 0001:0011541c       ??0RConStartArgsEx@@QEAA@XZ 000000014011641c f   common-user64:RConStartArgsEx.obj
 0001:00115454       ??1RConStartArgsEx@@UEAA@XZ 0000000140116454 f   common-user64:RConStartArgsEx.obj
 0001:001154b4       ??_GRConStartArgsEx@@UEAAPEAXI@Z 00000001401164b4 f i common-user64:RConStartArgsEx.obj
 0001:001154b4       ??_ERConStartArgsEx@@UEAAPEAXI@Z 00000001401164b4 f i common-user64:RConStartArgsEx.obj
 0001:001154e8       ?AssignFrom@RConStartArgsEx@@QEAA_NPEBU1@_N@Z 00000001401164e8 f   common-user64:RConStartArgsEx.obj
 0001:00115848       ?AssignInheritedArgs@RConStartArgsEx@@QEAA_NPEBU1@_N@Z 0000000140116848 f   common-user64:RConStartArgsEx.obj
 0001:0011585c       ?AssignUserArgs@RConStartArgsEx@@QEAA_NPEBU1@_N@Z 000000014011685c f   common-user64:RConStartArgsEx.obj
 0001:00115938       ?CheckUserToken@RConStartArgsEx@@QEAAPEAXXZ 0000000140116938 f   common-user64:RConStartArgsEx.obj
 0001:0011599c       ?CheckUserToken@RConStartArgsEx@@QEAA_NPEAUHWND__@@@Z 000000014011699c f   common-user64:RConStartArgsEx.obj
 0001:00115a80       ?CreateCommandLine@RConStartArgsEx@@QEBAPEA_W_N@Z 0000000140116a80 f   common-user64:RConStartArgsEx.obj
 0001:0011641c       ?HasInheritedArgs@RConStartArgsEx@@QEBA_NXZ 000000014011741c f   common-user64:RConStartArgsEx.obj
 0001:0011643c       ?MD5_Final@@YAXPEAEPEAUMD5_CTX@@@Z 000000014011743c f   common-user64:md5.obj
 0001:0011657c       ?MD5_Init@@YAXPEAUMD5_CTX@@@Z 000000014011757c f   common-user64:md5.obj
 0001:001165a0       ?MD5_Update@@YAXPEAUMD5_CTX@@PEBXK@Z 00000001401175a0 f   common-user64:md5.obj
 0001:001170f0       ??0MFileLogEx@@QEAA@PEB_W0K@Z 00000001401180f0 f   common-user64:MFileLogEx.obj
 0001:00117114       ??_GMFileLogEx@@UEAAPEAXI@Z 0000000140118114 f i common-user64:MFileLogEx.obj
 0001:00117114       ??_EMFileLogEx@@UEAAPEAXI@Z 0000000140118114 f i common-user64:MFileLogEx.obj
 0001:00117154       ?LogStartEnv@MFileLogEx@@QEAAXPEAUCEStartupEnv@@@Z 0000000140118154 f   common-user64:MFileLogEx.obj
 0001:00117194       ?LogStartEnvInt@MFileLogEx@@KAXPEB_W_J_N2@Z 0000000140118194 f   common-user64:MFileLogEx.obj
 0001:001171b4       ??1_FindAllMonitors@@QEAA@XZ 00000001401181b4 f i common-user64:Monitors.obj
 0001:001171ec       ?EnumAllMonitors@@YAHPEAUHMONITOR__@@PEAUHDC__@@PEAUtagRECT@@_J@Z 00000001401181ec f   common-user64:Monitors.obj
 0001:00117310       ?FindPrimaryMonitor@@YAHPEAUHMONITOR__@@PEAUHDC__@@PEAUtagRECT@@_J@Z 0000000140118310 f   common-user64:Monitors.obj
 0001:001173a4       ?FindTaskbarWindow@@YAPEAUHWND__@@PEAUtagRECT@@@Z 00000001401183a4 f   common-user64:Monitors.obj
 0001:0011742c       ?GetMonitorInfoSafe@@YA_NPEAUHMONITOR__@@AEAUtagMONITORINFO@@@Z 000000014011842c f   common-user64:Monitors.obj
 0001:0011746c       ?GetNearestMonitorInfo@@YAPEAUHMONITOR__@@PEAUtagMONITORINFO@@PEAU1@PEBUtagRECT@@PEAUHWND__@@@Z 000000014011846c f   common-user64:Monitors.obj
 0001:0011756c       ?GetNextMonitorInfo@@YAPEAUHMONITOR__@@PEAUtagMONITORINFO@@PEBUtagRECT@@_N@Z 000000014011856c f   common-user64:Monitors.obj
 0001:00117708       ?GetPrimaryMonitorInfo@@YAPEAUHMONITOR__@@PEAUtagMONITORINFO@@@Z 0000000140118708 f   common-user64:Monitors.obj
 0001:001177cc       ?GetStartupMonitor@@YAPEAUHMONITOR__@@XZ 00000001401187cc f   common-user64:Monitors.obj
 0001:001178b4       ?IsTaskbarAutoHidden@@YA_NPEAUtagRECT@@PEAIPEAPEAUHWND__@@@Z 00000001401188b4 f   common-user64:Monitors.obj
 0001:00117998       ?MonitorFromParam@@YAPEAUHMONITOR__@@PEB_W@Z 0000000140118998 f   common-user64:Monitors.obj
 0001:00117ab8       ?MonitorSortCallback@@YAHAEAU_FindAllMonitorsItem@@0@Z 0000000140118ab8 f   common-user64:Monitors.obj
 0001:00117adc       ?sort@?$MArray@U_FindAllMonitorsItem@@@@QEAAXP6AHAEAU_FindAllMonitorsItem@@0@Z@Z 0000000140118adc f i common-user64:Monitors.obj
 0001:00117bf4       ??0CToolTip@@QEAA@XZ       0000000140118bf4 f   common-user64:MToolTip.obj
 0001:00117c3c       ??1CToolTip@@UEAA@XZ       0000000140118c3c f   common-user64:MToolTip.obj
 0001:00117cbc       ??_GCToolTip@@UEAAPEAXI@Z  0000000140118cbc f i common-user64:MToolTip.obj
 0001:00117cbc       ??_ECToolTip@@UEAAPEAXI@Z  0000000140118cbc f i common-user64:MToolTip.obj
 0001:00117cf0       ?HideTip@CToolTip@@QEAAXXZ 0000000140118cf0 f   common-user64:MToolTip.obj
 0001:00117d34       ?ShowTip@CToolTip@@QEAAXPEAUHWND__@@0PEB_WHUtagPOINT@@PEAUHINSTANCE__@@@Z 0000000140118d34 f   common-user64:MToolTip.obj
 0001:00118004       ??0CProcessEnvCmd@@QEAA@XZ 0000000140119004 f   common-user64:ProcessSetEnv.obj
 0001:0011803c       ??0CStartEnvTitle@@QEAA@PEAUCEStr@@@Z 000000014011903c f   common-user64:ProcessSetEnv.obj
 0001:00118054       ??1CProcessEnvCmd@@QEAA@XZ 0000000140119054 f   common-user64:ProcessSetEnv.obj
 0001:00118110       ??_ECStartEnvTitle@@UEAAPEAXI@Z 0000000140119110 f i common-user64:ProcessSetEnv.obj
 0001:00118110       ??_GCStartEnvTitle@@UEAAPEAXI@Z 0000000140119110 f i common-user64:ProcessSetEnv.obj
 0001:0011813c       ?Add@CProcessEnvCmd@@IEAAPEAUCommand@1@PEB_W00_J@Z 000000014011913c f   common-user64:ProcessSetEnv.obj
 0001:0011830c       ?AddCommands@CProcessEnvCmd@@QEAA_NPEB_WPEAPEB_W_N_J@Z 000000014011930c f   common-user64:ProcessSetEnv.obj
 0001:00118aac       ?AddLines@CProcessEnvCmd@@QEAAXPEB_W_N@Z 0000000140119aac f   common-user64:ProcessSetEnv.obj
 0001:00118be0       ?AddZeroedPairs@CProcessEnvCmd@@QEAAXPEB_W@Z 0000000140119be0 f   common-user64:ProcessSetEnv.obj
 0001:00118c84       ?Allocate@CProcessEnvCmd@@QEAAPEA_WPEA_K@Z 0000000140119c84 f   common-user64:ProcessSetEnv.obj
 0001:00118eec       ?Apply@CProcessEnvCmd@@QEAA_NPEAVCStartEnvBase@@@Z 0000000140119eec f   common-user64:ProcessSetEnv.obj
 0001:00119044       ?ProcessSetEnvCmd@@YA_NAEAPEB_WPEAVCProcessEnvCmd@@PEAVCStartEnvBase@@@Z 000000014011a044 f   common-user64:ProcessSetEnv.obj
 0001:00119110       ?Title@CStartEnvTitle@@UEAAXPEB_W@Z 000000014011a110 f   common-user64:ProcessSetEnv.obj
 0001:00119184       ?cpyadv@CProcessEnvCmd@@IEAAXAEAPEA_WPEB_W@Z 000000014011a184 f   common-user64:ProcessSetEnv.obj
 0001:001191d0       ?DirectoryExists@@YA_NPEB_W@Z 000000014011a1d0 f   common-user64:WFiles.obj
 0001:00119338       ?DropZoneIdentifier@@YA_NPEB_WAEAK@Z 000000014011a338 f   common-user64:WFiles.obj
 0001:00119420       ?FileExistSubDir@@YA_NPEB_W0HAEAUCEStr@@@Z 000000014011a420 f   common-user64:WFiles.obj
 0001:001195fc       ?FilesExists@@YA_NPEB_W0_NH@Z 000000014011a5fc f   common-user64:WFiles.obj
 0001:00119748       ?FindFileName@@YA_NPEB_WAEAUCEStr@@@Z 000000014011a748 f   common-user64:WFiles.obj
 0001:001198b0       ?GetFullPathNameEx@@YAPEA_WPEB_W@Z 000000014011a8b0 f   common-user64:WFiles.obj
 0001:00119980       ?HasZoneIdentifier@@YA_NPEB_WAEAH@Z 000000014011a980 f   common-user64:WFiles.obj
 0001:00119a94       ?IsDotsName@@YA_NPEB_W@Z   000000014011aa94 f   common-user64:WFiles.obj
 0001:00119ab8       ?MakePathProperCase@@YA_NAEAUCEStr@@@Z 000000014011aab8 f   common-user64:WFiles.obj
 0001:00119ca4       ?MyCreateDirectory@@YA_NPEA_W@Z 000000014011aca4 f   common-user64:WFiles.obj
 0001:00119da0       ?ReadTextFile@@YAHPEB_WKAEAPEADAEAK2@Z 000000014011ada0 f   common-user64:WFiles.obj
 0001:00119dd8       ?ReadTextFile@@YAHPEB_WKAEAPEA_WAEAK2K@Z 000000014011add8 f   common-user64:WFiles.obj
 0001:0011a0bc       ?SearchAppPaths@@YA_NPEB_WAEAUCEStr@@_NPEAU1@@Z 000000014011b0bc f   common-user64:WFiles.obj
 0001:0011a4bc       ?WriteTextFile@@YAHPEB_W0HK_NPEAK@Z 000000014011b4bc f   common-user64:WFiles.obj
 0001:0011a6d4       ?CheckStrForSpecials@@YA_NPEB_WPEA_N1@Z 000000014011b6d4 f   common-user64:MStrEsc.obj
 0001:0011a788       ?EscapeChar@@YAXAEAPEB_WAEAPEA_W@Z 000000014011b788 f   common-user64:MStrEsc.obj
 0001:0011a8e8       ?UnescapeChar@@YAXAEAPEB_WAEAPEA_W@Z 000000014011b8e8 f   common-user64:MStrEsc.obj
 0001:0011aa9c       ?RegDeleteKeyRecursive@@YA_NPEAUHKEY__@@PEB_W1@Z 000000014011ba9c f   common-user64:WRegistry.obj
 0001:0011ac04       ?RegEnumKeys@@YAHPEAUHKEY__@@PEB_WP6A_N01_J@Z2@Z 000000014011bc04 f   common-user64:WRegistry.obj
 0001:0011adc8       ?RegEnumValues@@YAHPEAUHKEY__@@PEB_WP6A_N01K_J@Z2@Z 000000014011bdc8 f   common-user64:WRegistry.obj
 0001:0011af90       ?RegGetStringValue@@YAHPEAUHKEY__@@PEB_W1AEAUCEStr@@K@Z 000000014011bf90 f   common-user64:WRegistry.obj
 0001:0011b148       ?RegSetStringValue@@YAJPEAUHKEY__@@PEB_W11K@Z 000000014011c148 f   common-user64:WRegistry.obj
 0001:0011b21c       ??$sprintf_s@$0IA@@@YAHAEAY0IA@DPEBDZZ 000000014011c21c f i common-user64:MJsonReader.obj
 0001:0011b270       ??0MJsonValue@@QEAA@XZ     000000014011c270 f   common-user64:MJsonReader.obj
 0001:0011b280       ??1MJsonValue@@QEAA@XZ     000000014011c280 f   common-user64:MJsonReader.obj
 0001:0011b298       ?FreeData@MJsonValue@@AEAAXXZ 000000014011c298 f   common-user64:MJsonReader.obj
 0001:0011b2dc       ?ParseJson@MJsonValue@@QEAA_NPEB_W@Z 000000014011c2dc f   common-user64:MJsonReader.obj
 0001:0011b40c       ??3@YAXPEAX_K@Z            000000014011c40c f   LIBCMT:delete_scalar_size.obj
 0001:0011b414       ?getInt@MJsonValue@@QEAA_JXZ 000000014011c414 f   common-user64:MJsonReader.obj
 0001:0011b41c       ?getItem@MJsonValue@@QEAA_NPEB_WAEAV1@@Z 000000014011c41c f   common-user64:MJsonReader.obj
 0001:0011b4c8       ?getItem@MJsonValue@@QEAA_N_KAEAV1@@Z 000000014011c4c8 f   common-user64:MJsonReader.obj
 0001:0011b550       ?getLength@MJsonValue@@QEAA_KXZ 000000014011c550 f   common-user64:MJsonReader.obj
 0001:0011b56c       ?getObjectName@MJsonValue@@QEAAPEB_W_K@Z 000000014011c56c f   common-user64:MJsonReader.obj
 0001:0011b57c       ?getString@MJsonValue@@QEAAPEB_WXZ 000000014011c57c f   common-user64:MJsonReader.obj
 0001:0011b584       ?getType@MJsonValue@@QEAA?AW4JSON_TYPE@1@XZ 000000014011c584 f   common-user64:MJsonReader.obj
 0001:0011b798       json_parse_ex              000000014011c798 f   common-user64:MJsonReader.obj
 0001:0011c8a8       json_value_free            000000014011d8a8 f   common-user64:MJsonReader.obj
 0001:0011c8e0       json_value_free_ex         000000014011d8e0 f   common-user64:MJsonReader.obj
 0001:0011c96c       ?CreateRootInfoXml@@YAPEB_WPEB_WPEAUCESERVER_ROOT_INFO@@AEAUCEStr@@@Z 000000014011d96c f   common-user64:MGuiMacro.obj
 0001:0011cc00       ?bisearch@@YA_NHPEBUinterval@@H@Z 000000014011dc00 f   common-user64:wcwidth.obj
 0001:0011cc4c       ?get_wcwidth@@YAHH@Z       000000014011dc4c f   common-user64:wcwidth.obj
 0001:0011cc9c       ?is_char_cjk@@YA_NH@Z      000000014011dc9c f   common-user64:wcwidth.obj
 0001:0011cd48       ??0MGlobal@@QEAA@I_K@Z     000000014011dd48 f   common-user64:MGlobal.obj
 0001:0011cd68       ??0MGlobal@@QEAA@XZ        000000014011dd68 f   common-user64:MGlobal.obj
 0001:0011cd78       ??1MGlobal@@QEAA@XZ        000000014011dd78 f   common-user64:MGlobal.obj
 0001:0011cd80       ??BMGlobal@@QEAAPEAXXZ     000000014011dd80 f   common-user64:MGlobal.obj
 0001:0011cd98       ?Alloc@MGlobal@@QEAAPEAXI_K@Z 000000014011dd98 f   common-user64:MGlobal.obj
 0001:0011cdd8       ?Detach@MGlobal@@QEAAPEAXXZ 000000014011ddd8 f   common-user64:MGlobal.obj
 0001:0011cdf4       ?Free@MGlobal@@QEAAXXZ     000000014011ddf4 f   common-user64:MGlobal.obj
 0001:0011ce20       ?Lock@MGlobal@@QEAAPEAXXZ  000000014011de20 f   common-user64:MGlobal.obj
 0001:0011ce54       ?Unlock@MGlobal@@QEAAXXZ   000000014011de54 f   common-user64:MGlobal.obj
 0001:0011ce78       ??0CRgnDetect@@QEAA@XZ     000000014011de78 f   common-user64:RgnDetect.obj
 0001:0011cf38       ??0CRgnRects@@QEAA@XZ      000000014011df38 f   common-user64:RgnDetect.obj
 0001:0011cf78       ??1CRgnDetect@@QEAA@XZ     000000014011df78 f   common-user64:RgnDetect.obj
 0001:0011cfe0       ??1CRgnRects@@QEAA@XZ      000000014011dfe0 f   common-user64:RgnDetect.obj
 0001:0011d004       ?DetectDialog@CRgnDetect@@IEAA_NPEA_WPEAUtag_CharAttr@@HHHHPEAH2@Z 000000014011e004 f   common-user64:RgnDetect.obj
 0001:0011d39c       ?Diff@CRgnRects@@QEAAHPEAUtagRECT@@@Z 000000014011e39c f   common-user64:RgnDetect.obj
 0001:0011d4f0       ?DiffSmall@CRgnRects@@QEAAHPEAU_SMALL_RECT@@@Z 000000014011e4f0 f   common-user64:RgnDetect.obj
 0001:0011d520       ?ExpandDialogFrame@CRgnDetect@@IEAA_NPEA_WPEAUtag_CharAttr@@HHAEAH2HH22@Z 000000014011e520 f   common-user64:RgnDetect.obj
 0001:0011d868       ?FindByBackground@CRgnDetect@@IEAA_NPEA_WPEAUtag_CharAttr@@HHAEAH222AEA_N@Z 000000014011e868 f   common-user64:RgnDetect.obj
 0001:0011d990       ?FindDialog_Any@CRgnDetect@@IEAA_NPEA_WPEAUtag_CharAttr@@HHAEAH222AEA_N@Z 000000014011e990 f   common-user64:RgnDetect.obj
 0001:0011dc2c       ?FindDialog_Inner@CRgnDetect@@IEAA_NPEA_WPEAUtag_CharAttr@@HHAEAH2@Z 000000014011ec2c f   common-user64:RgnDetect.obj
 0001:0011dd9c       ?FindDialog_Left@CRgnDetect@@IEAA_NPEA_WPEAUtag_CharAttr@@HHAEAH222AEA_N@Z 000000014011ed9c f   common-user64:RgnDetect.obj
 0001:0011df98       ?FindDialog_Right@CRgnDetect@@IEAA_NPEA_WPEAUtag_CharAttr@@HHAEAH222AEA_N@Z 000000014011ef98 f   common-user64:RgnDetect.obj
 0001:0011e100       ?FindDialog_TopLeft@CRgnDetect@@IEAA_NPEA_WPEAUtag_CharAttr@@HHAEAH222AEA_N@Z 000000014011f100 f   common-user64:RgnDetect.obj
 0001:0011e20c       ?FindDialog_TopRight@CRgnDetect@@IEAA_NPEA_WPEAUtag_CharAttr@@HHAEAH222AEA_N@Z 000000014011f20c f   common-user64:RgnDetect.obj
 0001:0011e324       ?FindFrameBottom_ByLeft@CRgnDetect@@IEAA_NPEA_WPEAUtag_CharAttr@@HHAEAH22@Z 000000014011f324 f   common-user64:RgnDetect.obj
 0001:0011e3b8       ?FindFrameBottom_ByRight@CRgnDetect@@IEAA_NPEA_WPEAUtag_CharAttr@@HHAEAH22@Z 000000014011f3b8 f   common-user64:RgnDetect.obj
 0001:0011e46c       ?FindFrameLeft_ByBottom@CRgnDetect@@IEAA_NPEA_WPEAUtag_CharAttr@@HHAEAH22@Z 000000014011f46c f   common-user64:RgnDetect.obj
 0001:0011e530       ?FindFrameLeft_ByTop@CRgnDetect@@IEAA_NPEA_WPEAUtag_CharAttr@@HHAEAH22@Z 000000014011f530 f   common-user64:RgnDetect.obj
 0001:0011e6bc       ?FindFrameRight_ByBottom@CRgnDetect@@IEAA_NPEA_WPEAUtag_CharAttr@@HHAEAH22@Z 000000014011f6bc f   common-user64:RgnDetect.obj
 0001:0011e78c       ?FindFrameRight_ByTop@CRgnDetect@@IEAA_NPEA_WPEAUtag_CharAttr@@HHAEAH22@Z 000000014011f78c f   common-user64:RgnDetect.obj
 0001:0011e8ec       ?FindFrameTop_ByLeft@CRgnDetect@@IEAA_NPEA_WPEAUtag_CharAttr@@HHAEAH22@Z 000000014011f8ec f   common-user64:RgnDetect.obj
 0001:0011e970       ?FindFrameTop_ByRight@CRgnDetect@@IEAA_NPEA_WPEAUtag_CharAttr@@HHAEAH22@Z 000000014011f970 f   common-user64:RgnDetect.obj
 0001:0011ea18       ?FindFrame_TopLeft@CRgnDetect@@IEAA_NPEA_WPEAUtag_CharAttr@@HHAEAH222@Z 000000014011fa18 f   common-user64:RgnDetect.obj
 0001:0011eb20       ?GetDetectedDialogs@CRgnDetect@@QEBAHHPEAU_SMALL_RECT@@PEAKKK@Z 000000014011fb20 f   common-user64:RgnDetect.obj
 0001:0011ec1c       ?GetDetectedDialogsPtr@CRgnDetect@@QEBAPEBUtag_DetectedDialog@@XZ 000000014011fc1c f   common-user64:RgnDetect.obj
 0001:0011ec24       ?GetDialog@CRgnDetect@@QEBAKKPEAU_SMALL_RECT@@@Z 000000014011fc24 f   common-user64:RgnDetect.obj
 0001:0011ec80       ?GetFlags@CRgnDetect@@QEBAKXZ 000000014011fc80 f   common-user64:RgnDetect.obj
 0001:0011ec88       ?Init@CRgnRects@@QEAAXPEAUtagRECT@@@Z 000000014011fc88 f   common-user64:RgnDetect.obj
 0001:0011ed64       ?LoadFrom@CRgnRects@@QEAA_NPEAV1@@Z 000000014011fd64 f   common-user64:RgnDetect.obj
 0001:0011ee2c       ?MarkDialog@CRgnDetect@@IEAAHPEA_WPEAUtag_CharAttr@@HHHHHHI_NK@Z 000000014011fe2c f   common-user64:RgnDetect.obj
 0001:0011f700       ?PrepareTransparent@CRgnDetect@@QEAAXPEBUCEFAR_INFO_MAPPING@@PEBKPEBU_CONSOLE_SCREEN_BUFFER_INFO@@PEA_WPEAUtag_CharAttr@@HH@Z 0000000140120700 f   common-user64:RgnDetect.obj
 0001:0011ff2c       ?Reset@CRgnRects@@QEAAXXZ  0000000140120f2c f   common-user64:RgnDetect.obj
 0001:0011ff3c       ?SetFarRect@CRgnDetect@@QEAAXPEAU_SMALL_RECT@@@Z 0000000140120f3c f   common-user64:RgnDetect.obj
 0001:0011ffac       ?SetNeedTransparency@CRgnDetect@@QEAAX_N@Z 0000000140120fac f   common-user64:RgnDetect.obj
 0001:0011ffb0       ?ChangeScreenBufferSize@@YAXAEAU_CONSOLE_SCREEN_BUFFER_INFO@@FFFF@Z 0000000140120fb0 f   common-user64:WConsoleInfo.obj
 0001:00120028       ??0MEvent@@QEAA@XZ         0000000140121028 f   common-user64:MEvent.obj
 0001:00120044       ??1MEvent@@QEAA@XZ         0000000140121044 f   common-user64:MEvent.obj
 0001:0012005c       ?Close@MEvent@@QEAAXXZ     000000014012105c f   common-user64:MEvent.obj
 0001:001200a0       ?Create@MEvent@@QEAAPEAXPEAU_SECURITY_ATTRIBUTES@@_N1PEB_W@Z 00000001401210a0 f   common-user64:MEvent.obj
 0001:00120124       ?InitName@MEvent@@QEAAXPEB_WK@Z 0000000140121124 f   common-user64:MEvent.obj
 0001:00120184       ?Open@MEvent@@QEAAPEAX_NPEAU_SECURITY_ATTRIBUTES@@00@Z 0000000140121184 f   common-user64:MEvent.obj
 0001:00120254       ?Reset@MEvent@@QEAA_NXZ    0000000140121254 f   common-user64:MEvent.obj
 0001:00120284       ?Set@MEvent@@QEAA_NXZ      0000000140121284 f   common-user64:MEvent.obj
 0001:001202b4       ?Wait@MEvent@@QEAAKKH@Z    00000001401212b4 f   common-user64:MEvent.obj
 0001:00120310       ?SetConEmuEnvHWND@@YAXPEB_WPEAUHWND__@@@Z 0000000140121310 f   common-user64:SetEnvVar.obj
 0001:00120368       ?SetConEmuEnvVar@@YAXPEAUHWND__@@@Z 0000000140121368 f   common-user64:SetEnvVar.obj
 0001:001203ec       ?SetConEmuEnvVarChild@@YAXPEAUHWND__@@0@Z 00000001401213ec f   common-user64:SetEnvVar.obj
 0001:00120418       ??0MBSTR@@QEAA@PEB_W@Z     0000000140121418 f   common-user64:MBSTR.obj
 0001:00120440       ??1MBSTR@@QEAA@XZ          0000000140121440 f   common-user64:MBSTR.obj
 0001:00120464       ??4MBSTR@@QEAAAEAV0@PEB_W@Z 0000000140121464 f   common-user64:MBSTR.obj
 0001:001204b8       ??0CTimer@@QEAA@XZ         00000001401214b8 f   common-user64:MTimer.obj
 0001:001204cc       ??1CTimer@@QEAA@XZ         00000001401214cc f   common-user64:MTimer.obj
 0001:001204cc       ?Stop@CTimer@@QEAAXXZ      00000001401214cc f   common-user64:MTimer.obj
 0001:001204ec       ?Init@CTimer@@QEAAXPEAUHWND__@@_KI@Z 00000001401214ec f   common-user64:MTimer.obj
 0001:00120544       ?IsStarted@CTimer@@QEAA_NXZ 0000000140121544 f   common-user64:MTimer.obj
 0001:00120548       ?Start@CTimer@@QEAAXI@Z    0000000140121548 f   common-user64:MTimer.obj
 0001:0012057c       ??0length_error@std@@QEAA@AEBV01@@Z 000000014012157c f i libcpmt:xthrow.obj
 0001:001205bc       ??0length_error@std@@QEAA@PEBD@Z 00000001401215bc f i libcpmt:xthrow.obj
 0001:00120608       ??0logic_error@std@@QEAA@AEBV01@@Z 0000000140121608 f i libcpmt:xthrow.obj
 0001:00120648       ??_Gbad_cast@std@@UEAAPEAXI@Z 0000000140121648 f i libvcruntime:rtti.obj
 0001:00120648       ??_G__non_rtti_object@std@@UEAAPEAXI@Z 0000000140121648 f i libvcruntime:rtti.obj
 0001:00120648       ??_Ebad_exception@std@@UEAAPEAXI@Z 0000000140121648 f i libvcruntime:frame.obj
 0001:00120648       ??_Elength_error@std@@UEAAPEAXI@Z 0000000140121648 f i libcpmt:xthrow.obj
 0001:00120648       ??_Ebad_cast@std@@UEAAPEAXI@Z 0000000140121648 f i libvcruntime:rtti.obj
 0001:00120648       ??_Glogic_error@std@@UEAAPEAXI@Z 0000000140121648 f i libcpmt:xthrow.obj
 0001:00120648       ??_Glength_error@std@@UEAAPEAXI@Z 0000000140121648 f i libcpmt:xthrow.obj
 0001:00120648       ??_E__non_rtti_object@std@@UEAAPEAXI@Z 0000000140121648 f i libvcruntime:rtti.obj
 0001:00120648       ??_Ebad_typeid@std@@UEAAPEAXI@Z 0000000140121648 f i libvcruntime:rtti.obj
 0001:00120648       ??_Gbad_typeid@std@@UEAAPEAXI@Z 0000000140121648 f i libvcruntime:rtti.obj
 0001:00120648       ??_Gbad_exception@std@@UEAAPEAXI@Z 0000000140121648 f i libvcruntime:frame.obj
 0001:00120648       ??_Elogic_error@std@@UEAAPEAXI@Z 0000000140121648 f i libcpmt:xthrow.obj
 0001:0012068c       ?_Xlength_error@std@@YAXPEBD@Z 000000014012168c f   libcpmt:xthrow.obj
 0001:00120900       WinMainCRTStartup          0000000140121900 f   LIBCMT:exe_winmain.obj
 0001:00120914       __GSHandlerCheck           0000000140121914 f   LIBCMT:_gshandler_.obj
 0001:00120934       __GSHandlerCheckCommon     0000000140121934 f   LIBCMT:_gshandler_.obj
 0001:00120990       __GSHandlerCheck_EH        0000000140121990 f   LIBCMT:gshandlereh.obj
 0001:00120a20       _alloca_probe              0000000140121a20 f   LIBCMT:_chkstk_.obj
 0001:00120a20       __chkstk                   0000000140121a20 f   LIBCMT:_chkstk_.obj
 0001:00120a90       __security_check_cookie    0000000140121a90 f   LIBCMT:_amdsecgs_.obj
 0001:00120c24       _Init_thread_abort         0000000140121c24 f   LIBCMT:thread_safe_statics.obj
 0001:00120c54       _Init_thread_footer        0000000140121c54 f   LIBCMT:thread_safe_statics.obj
 0001:00120cb4       _Init_thread_header        0000000140121cb4 f   LIBCMT:thread_safe_statics.obj
 0001:00120d1c       _Init_thread_notify        0000000140121d1c f   LIBCMT:thread_safe_statics.obj
 0001:00120d6c       _Init_thread_wait          0000000140121d6c f   LIBCMT:thread_safe_statics.obj
 0001:00120de4       __scrt_acquire_startup_lock 0000000140121de4 f   LIBCMT:utility.obj
 0001:00120e20       __scrt_initialize_crt      0000000140121e20 f   LIBCMT:utility.obj
 0001:00120e6c       __scrt_initialize_onexit_tables 0000000140121e6c f   LIBCMT:utility.obj
 0001:00120f48       __scrt_is_nonwritable_in_current_image 0000000140121f48 f   LIBCMT:utility.obj
 0001:00120fe4       __scrt_release_startup_lock 0000000140121fe4 f   LIBCMT:utility.obj
 0001:00121008       __scrt_uninitialize_crt    0000000140122008 f   LIBCMT:utility.obj
 0001:00121034       _onexit                    0000000140122034 f   LIBCMT:utility.obj
 0001:00121084       atexit                     0000000140122084 f   LIBCMT:utility.obj
 0001:0012109c       ??_Etype_info@@UEAAPEAXI@Z 000000014012209c f i LIBCMT:std_type_info_static.obj
 0001:0012109c       ??_Gtype_info@@UEAAPEAXI@Z 000000014012209c f i LIBCMT:std_type_info_static.obj
 0001:001210c8       __raise_securityfailure    00000001401220c8 f   LIBCMT:gs_report.obj
 0001:001210fc       __report_gsfailure         00000001401220fc f   LIBCMT:gs_report.obj
 0001:001211d0       __report_rangecheckfailure 00000001401221d0 f   LIBCMT:gs_report.obj
 0001:001211e4       __report_securityfailure   00000001401221e4 f   LIBCMT:gs_report.obj
 0001:00121364       ??_L@YAXPEAX_K1P6AX0@Z2@Z  0000000140122364 f   LIBCMT:ehvecctr.obj
 0001:001213d4       ??_M@YAXPEAX_K1P6AX0@Z@Z   00000001401223d4 f   LIBCMT:ehvecdtr.obj
 0001:00121440       ?__ArrayUnwind@@YAXPEAX_K1P6AX0@Z@Z 0000000140122440 f   LIBCMT:ehvecdtr.obj
 0001:001214a4       __security_init_cookie     00000001401224a4 f   LIBCMT:gs_support.obj
 0001:00121554       _get_startup_file_mode     0000000140122554 f   LIBCMT:file_mode.obj
 0001:0012155c       ?__scrt_initialize_type_info@@YAXXZ 000000014012255c f   LIBCMT:tncleanup.obj
 0001:0012156c       __local_stdio_scanf_options 000000014012256c f i LIBCMT:default_local_stdio_options.obj
 0001:00121574       __scrt_initialize_default_local_stdio_options 0000000140122574 f   LIBCMT:default_local_stdio_options.obj
 0001:00121590       __scrt_is_user_matherr_present 0000000140122590 f   LIBCMT:matherr_detection.obj
 0001:0012159c       __scrt_get_dyn_tls_init_callback 000000014012259c f   LIBCMT:dyn_tls_init.obj
 0001:001215a4       __scrt_get_dyn_tls_dtor_callback 00000001401225a4 f   LIBCMT:dyn_tls_dtor.obj
 0001:001215ac       __crt_debugger_hook        00000001401225ac f   LIBCMT:utility_desktop.obj
 0001:001215b4       __scrt_fastfail            00000001401225b4 f   LIBCMT:utility_desktop.obj
 0001:00121700       __scrt_get_show_window_mode 0000000140122700 f   LIBCMT:utility_desktop.obj
 0001:0012173c       __scrt_is_managed_app      000000014012273c f   LIBCMT:utility_desktop.obj
 0001:00121790       __scrt_set_unhandled_exception_filter 0000000140122790 f   LIBCMT:utility_desktop.obj
 0001:001217a0       __scrt_unhandled_exception_filter 00000001401227a0 f   LIBCMT:utility_desktop.obj
 0001:001217d8       _RTC_Initialize            00000001401227d8 f   LIBCMT:_initsect_.obj
 0001:00121814       _RTC_Terminate             0000000140122814 f   LIBCMT:_initsect_.obj
 0001:00121850       __isa_available_init       0000000140122850 f   LIBCMT:_cpu_disp_.obj
 0001:00121a0c       __scrt_is_ucrt_dll_in_use  0000000140122a0c f   LIBCMT:ucrt_detection.obj
 0001:00121a20       wcschr                     0000000140122a20 f   libvcruntime:wcschr.obj
 0001:00121ab4       ?_ExecutionInCatch@@YAHPEAU_xDISPATCHER_CONTEXT@@PEBU_s_FuncInfo@@@Z 0000000140122ab4 f   libvcruntime:risctrnsctrl.obj
 0001:00121b28       ?_GetEstablisherFrame@@YAPEA_KPEA_KPEAU_xDISPATCHER_CONTEXT@@PEBU_s_FuncInfo@@0@Z 0000000140122b28 f   libvcruntime:risctrnsctrl.obj
 0001:00121bf4       ?_GetRangeOfTrysToCheck@@YAPEBU_s_TryBlockMapEntry@@PEA_KPEBU_s_FuncInfo@@HHPEAI2PEAU_xDISPATCHER_CONTEXT@@@Z 0000000140122bf4 f   libvcruntime:risctrnsctrl.obj
 0001:00121d20       ?__FrameUnwindToEmptyState@@YAXPEA_KPEAU_xDISPATCHER_CONTEXT@@PEBU_s_FuncInfo@@@Z 0000000140122d20 f   libvcruntime:risctrnsctrl.obj
 0001:00121db4       _CallSETranslator          0000000140122db4 f   libvcruntime:risctrnsctrl.obj
 0001:00121e08       _CreateFrameInfo           0000000140122e08 f   libvcruntime:risctrnsctrl.obj
 0001:00121e44       _FindAndUnlinkFrame        0000000140122e44 f   libvcruntime:risctrnsctrl.obj
 0001:00121e98       _GetImageBase              0000000140122e98 f   libvcruntime:risctrnsctrl.obj
 0001:00121eac       _GetThrowImageBase         0000000140122eac f   libvcruntime:risctrnsctrl.obj
 0001:00121ec0       _SetImageBase              0000000140122ec0 f   libvcruntime:risctrnsctrl.obj
 0001:00121ed8       _SetThrowImageBase         0000000140122ed8 f   libvcruntime:risctrnsctrl.obj
 0001:00121ef0       _UnwindNestedFrames        0000000140122ef0 f   libvcruntime:risctrnsctrl.obj
 0001:00122014       __CxxFrameHandler3         0000000140123014 f   libvcruntime:risctrnsctrl.obj
 0001:001220b0       memset                     00000001401230b0 f   libvcruntime:memset.obj
 0001:00122260       __DestructExceptionObject  0000000140123260 f   libvcruntime:ehhelpers.obj
 0001:001222d4       ?_CallMemberFunction0@@YAXQEAX0@Z 00000001401232d4 f i libvcruntime:ehhelpers.obj
 0001:001222d8       _IsExceptionObjectToBeDestroyed 00000001401232d8 f   libvcruntime:ehhelpers.obj
 0001:00122308       __AdjustPointer            0000000140123308 f   libvcruntime:ehhelpers.obj
 0001:0012232c       __FrameUnwindFilter        000000014012332c f   libvcruntime:ehhelpers.obj
 0001:00122378       __std_terminate            0000000140123378 f   libvcruntime:ehhelpers.obj
 0001:001223a0       memmove                    00000001401233a0 f   libvcruntime:memcpy.obj
 0001:001223a0       memcpy                     00000001401233a0 f   libvcruntime:memcpy.obj
 0001:001227e8       _purecall                  00000001401237e8 f   libvcruntime:purevirt.obj
 0001:00122818       wcsrchr                    0000000140123818 f   libvcruntime:wcsrchr.obj
 0001:001228cc       wcsstr                     00000001401238cc f   libvcruntime:wcsstr.obj
 0001:00122ae8       ??0__non_rtti_object@std@@QEAA@AEBV01@@Z 0000000140123ae8 f i libvcruntime:rtti.obj
 0001:00122b28       ??0bad_cast@std@@QEAA@AEBV01@@Z 0000000140123b28 f i libvcruntime:rtti.obj
 0001:00122b68       ??0bad_typeid@std@@QEAA@AEBV01@@Z 0000000140123b68 f i libvcruntime:rtti.obj
 0001:0012309c       ?__construct_from_string_literal@__non_rtti_object@std@@SA?AV12@QEBD@Z 000000014012409c f i libvcruntime:rtti.obj
 0001:001230b4       ?__construct_from_string_literal@bad_cast@std@@SA?AV12@QEBD@Z 00000001401240b4 f i libvcruntime:rtti.obj
 0001:001230cc       __RTDynamicCast            00000001401240cc f   libvcruntime:rtti.obj
 0001:00123250       memcmp                     0000000140124250 f   libvcruntime:memcmp.obj
 0001:00123318       strchr                     0000000140124318 f   libvcruntime:strchr.obj
 0001:001233a4       _CxxThrowException         00000001401243a4 f   libvcruntime:throw.obj
 0001:00123464       __std_exception_copy       0000000140124464 f   libvcruntime:std_exception.obj
 0001:001234f4       __std_exception_destroy    00000001401244f4 f   libvcruntime:std_exception.obj
 0001:0012351c       strrchr                    000000014012451c f   libvcruntime:strrchr.obj
 0001:00123668       __C_specific_handler       0000000140124668 f   libvcruntime:_riscchandler_.obj
 0001:00123890       memchr                     0000000140124890 f   libvcruntime:memchr.obj
 0001:00123900       __vcrt_initialize          0000000140124900 f   libvcruntime:initialization.obj
 0001:00123934       __vcrt_uninitialize        0000000140124934 f   libvcruntime:initialization.obj
 0001:00123954       __std_type_info_compare    0000000140124954 f   libvcruntime:std_type_info.obj
 0001:0012397c       __vcrt_freefls             000000014012497c f   libvcruntime:per_thread_data.obj
 0001:0012399c       __vcrt_getptd              000000014012499c f   libvcruntime:per_thread_data.obj
 0001:001239b8       __vcrt_getptd_noexit       00000001401249b8 f   libvcruntime:per_thread_data.obj
 0001:00123a70       __vcrt_initialize_ptd      0000000140124a70 f   libvcruntime:per_thread_data.obj
 0001:00123ac0       __vcrt_uninitialize_ptd    0000000140124ac0 f   libvcruntime:per_thread_data.obj
 0001:00123ae4       ?__GetCurrentState@@YAHPEA_KPEAU_xDISPATCHER_CONTEXT@@PEBU_s_FuncInfo@@@Z 0000000140124ae4 f   libvcruntime:riscehstate.obj
 0001:00123b0c       ?__GetUnwindTryBlock@@YAHPEA_KPEAU_xDISPATCHER_CONTEXT@@PEBU_s_FuncInfo@@@Z 0000000140124b0c f   libvcruntime:riscehstate.obj
 0001:00123b38       ?__SetState@@YAXPEA_KPEAU_xDISPATCHER_CONTEXT@@PEBU_s_FuncInfo@@H@Z 0000000140124b38 f   libvcruntime:riscehstate.obj
 0001:00123b44       ?__SetUnwindTryBlock@@YAXPEA_KPEAU_xDISPATCHER_CONTEXT@@PEBU_s_FuncInfo@@H@Z 0000000140124b44 f   libvcruntime:riscehstate.obj
 0001:00123b80       ?__StateFromControlPc@@YAHPEBU_s_FuncInfo@@PEAU_xDISPATCHER_CONTEXT@@@Z 0000000140124b80 f   libvcruntime:riscehstate.obj
 0001:00123b88       ?__StateFromIp@@YAHPEBU_s_FuncInfo@@PEAU_xDISPATCHER_CONTEXT@@_K@Z 0000000140124b88 f   libvcruntime:riscehstate.obj
 0001:00123bf0       ??0bad_exception@std@@QEAA@AEBV01@@Z 0000000140124bf0 f i libvcruntime:frame.obj
 0001:00123c30       ??0bad_exception@std@@QEAA@XZ 0000000140124c30 f i libvcruntime:frame.obj
 0001:00124578       ?_CallMemberFunction1@@YAXQEAX00@Z 0000000140125578 f i libvcruntime:frame.obj
 0001:00124584       ?_CallMemberFunction2@@YAXQEAX00H@Z 0000000140125584 f i libvcruntime:frame.obj
 0001:00124594       __BuildCatchObject         0000000140125594 f   libvcruntime:frame.obj
 0001:00124654       __BuildCatchObjectHelper   0000000140125654 f   libvcruntime:frame.obj
 0001:00124854       __CxxCallCatchBlock        0000000140125854 f   libvcruntime:frame.obj
 0001:00124a40       __FrameUnwindToState       0000000140125a40 f   libvcruntime:frame.obj
 0001:00124bd4       __InternalCxxFrameHandler  0000000140125bd4 f   libvcruntime:frame.obj
 0001:00124e18       __TypeMatch                0000000140125e18 f   libvcruntime:frame.obj
 0001:00124f5c       __vcrt_initialize_pure_virtual_call_handler 0000000140125f5c f   libvcruntime:purevirt_data.obj
 0001:00124f80       _local_unwind              0000000140125f80 f   libvcruntime:_jmpuwind_.obj
 0001:00124fb0       _NLG_Notify                0000000140125fb0 f   libvcruntime:_jmpuwind_.obj
 0001:00124fd0       __NLG_Dispatch2            0000000140125fd0 f   libvcruntime:_jmpuwind_.obj
 0001:00124fe0       __NLG_Return2              0000000140125fe0 f   libvcruntime:_jmpuwind_.obj
 0001:00124fe4       __except_validate_context_record 0000000140125fe4 f   libvcruntime:jbcxrval.obj
 0001:0012501c       __vcrt_initialize_locks    000000014012601c f   libvcruntime:locks.obj
 0001:00125064       __vcrt_uninitialize_locks  0000000140126064 f   libvcruntime:locks.obj
 0001:00125274       __vcrt_FlsAlloc            0000000140126274 f   libvcruntime:winapi_downlevel.obj
 0001:001252bc       __vcrt_FlsFree             00000001401262bc f   libvcruntime:winapi_downlevel.obj
 0001:00125304       __vcrt_FlsGetValue         0000000140126304 f   libvcruntime:winapi_downlevel.obj
 0001:0012534c       __vcrt_FlsSetValue         000000014012634c f   libvcruntime:winapi_downlevel.obj
 0001:001253a0       __vcrt_InitializeCriticalSectionEx 00000001401263a0 f   libvcruntime:winapi_downlevel.obj
 0001:00125404       __vcrt_initialize_winapi_thunks 0000000140126404 f   libvcruntime:winapi_downlevel.obj
 0001:00125434       __vcrt_uninitialize_winapi_thunks 0000000140126434 f   libvcruntime:winapi_downlevel.obj
 0001:00125490       _CallSettingFrame          0000000140126490 f   libvcruntime:handlers.obj
 0001:00125724       _itow_s                    0000000140126724 f   libucrt:xtoa.obj
 0001:00125724       _ltow_s                    0000000140126724 f   libucrt:xtoa.obj
 0001:00125744       _ui64tow_s                 0000000140126744 f   libucrt:xtoa.obj
 0001:00125ab4       ??$ensure_buffer_is_big_enough@D@formatting_buffer@__crt_stdio_output@@QEAA_N_K@Z 0000000140126ab4 f i libucrt:output.obj
 0001:00125b60       ??$is_wide_character_specifier@D@__crt_stdio_output@@YA_N_KDW4length_modifier@0@@Z 0000000140126b60 f i libucrt:output.obj
 0001:00125b90       ??$is_wide_character_specifier@_W@__crt_stdio_output@@YA_N_K_WW4length_modifier@0@@Z 0000000140126b90 f i libucrt:output.obj
 0001:00125bd4       ??$type_case_integer_parse_into_buffer@I@?$output_processor@DV?$string_output_adapter@D@__crt_stdio_output@@V?$format_validation_base@DV?$string_output_adapter@D@__crt_stdio_output@@@2@@__crt_stdio_output@@AEAAXII_N@Z 0000000140126bd4 f i libucrt:output.obj
 0001:00125bd4       ??$type_case_integer_parse_into_buffer@I@?$output_processor@_WV?$string_output_adapter@_W@__crt_stdio_output@@V?$format_validation_base@_WV?$string_output_adapter@_W@__crt_stdio_output@@@2@@__crt_stdio_output@@AEAAXII_N@Z 0000000140126bd4 f i libucrt:output.obj
 0001:00125bd4       ??$type_case_integer_parse_into_buffer@I@?$output_processor@DV?$string_output_adapter@D@__crt_stdio_output@@V?$standard_base@DV?$string_output_adapter@D@__crt_stdio_output@@@2@@__crt_stdio_output@@AEAAXII_N@Z 0000000140126bd4 f i libucrt:output.obj
 0001:00125bd4       ??$type_case_integer_parse_into_buffer@I@?$output_processor@_WV?$string_output_adapter@_W@__crt_stdio_output@@V?$standard_base@_WV?$string_output_adapter@_W@__crt_stdio_output@@@2@@__crt_stdio_output@@AEAAXII_N@Z 0000000140126bd4 f i libucrt:output.obj
 0001:00125c70       ??$type_case_integer_parse_into_buffer@_K@?$output_processor@_WV?$string_output_adapter@_W@__crt_stdio_output@@V?$standard_base@_WV?$string_output_adapter@_W@__crt_stdio_output@@@2@@__crt_stdio_output@@AEAAX_KI_N@Z 0000000140126c70 f i libucrt:output.obj
 0001:00125c70       ??$type_case_integer_parse_into_buffer@_K@?$output_processor@_WV?$string_output_adapter@_W@__crt_stdio_output@@V?$format_validation_base@_WV?$string_output_adapter@_W@__crt_stdio_output@@@2@@__crt_stdio_output@@AEAAX_KI_N@Z 0000000140126c70 f i libucrt:output.obj
 0001:00125c70       ??$type_case_integer_parse_into_buffer@_K@?$output_processor@DV?$string_output_adapter@D@__crt_stdio_output@@V?$standard_base@DV?$string_output_adapter@D@__crt_stdio_output@@@2@@__crt_stdio_output@@AEAAX_KI_N@Z 0000000140126c70 f i libucrt:output.obj
 0001:00125c70       ??$type_case_integer_parse_into_buffer@_K@?$output_processor@DV?$string_output_adapter@D@__crt_stdio_output@@V?$format_validation_base@DV?$string_output_adapter@D@__crt_stdio_output@@@2@@__crt_stdio_output@@AEAAX_KI_N@Z 0000000140126c70 f i libucrt:output.obj
 0001:00125d0c       ??$write_multiple_characters@V?$string_output_adapter@D@__crt_stdio_output@@D@__crt_stdio_output@@YAXAEBV?$string_output_adapter@D@0@DHQEAH@Z 0000000140126d0c f i libucrt:output.obj
 0001:00125d68       ??$write_multiple_characters@V?$string_output_adapter@_W@__crt_stdio_output@@D@__crt_stdio_output@@YAXAEBV?$string_output_adapter@_W@0@DHQEAH@Z 0000000140126d68 f i libucrt:output.obj
 0001:00125dd8       ??0?$output_processor@DV?$string_output_adapter@D@__crt_stdio_output@@V?$standard_base@DV?$string_output_adapter@D@__crt_stdio_output@@@2@@__crt_stdio_output@@QEAA@AEBV?$string_output_adapter@D@1@_KQEBDQEAU__crt_locale_pointers@@QEAD@Z 0000000140126dd8 f i libucrt:output.obj
 0001:00125dd8       ??0?$output_processor@DV?$string_output_adapter@D@__crt_stdio_output@@V?$format_validation_base@DV?$string_output_adapter@D@__crt_stdio_output@@@2@@__crt_stdio_output@@QEAA@AEBV?$string_output_adapter@D@1@_KQEBDQEAU__crt_locale_pointers@@QEAD@Z 0000000140126dd8 f i libucrt:output.obj
 0001:00125e54       ??0?$output_processor@_WV?$string_output_adapter@_W@__crt_stdio_output@@V?$format_validation_base@_WV?$string_output_adapter@_W@__crt_stdio_output@@@2@@__crt_stdio_output@@QEAA@AEBV?$string_output_adapter@_W@1@_KQEB_WQEAU__crt_locale_pointers@@QEAD@Z 0000000140126e54 f i libucrt:output.obj
 0001:00125e54       ??0?$output_processor@_WV?$string_output_adapter@_W@__crt_stdio_output@@V?$standard_base@_WV?$string_output_adapter@_W@__crt_stdio_output@@@2@@__crt_stdio_output@@QEAA@AEBV?$string_output_adapter@_W@1@_KQEB_WQEAU__crt_locale_pointers@@QEAD@Z 0000000140126e54 f i libucrt:output.obj
 0001:00125ed4       ??0_LocaleUpdate@@QEAA@QEAU__crt_locale_pointers@@@Z 0000000140126ed4 f i libucrt:output.obj
 0001:00125f64       ?force_decimal_point@__crt_stdio_output@@YAXPEADQEAU__crt_locale_pointers@@@Z 0000000140126f64 f i libucrt:output.obj
 0001:00125fd4       ?parse_int_from_format_string@?$output_processor@DV?$string_output_adapter@D@__crt_stdio_output@@V?$format_validation_base@DV?$string_output_adapter@D@__crt_stdio_output@@@2@@__crt_stdio_output@@AEAA_NQEAH@Z 0000000140126fd4 f i libucrt:output.obj
 0001:00125fd4       ?parse_int_from_format_string@?$output_processor@DV?$string_output_adapter@D@__crt_stdio_output@@V?$standard_base@DV?$string_output_adapter@D@__crt_stdio_output@@@2@@__crt_stdio_output@@AEAA_NQEAH@Z 0000000140126fd4 f i libucrt:output.obj
 0001:00126058       ?parse_int_from_format_string@?$output_processor@_WV?$string_output_adapter@_W@__crt_stdio_output@@V?$format_validation_base@_WV?$string_output_adapter@_W@__crt_stdio_output@@@2@@__crt_stdio_output@@AEAA_NQEAH@Z 0000000140127058 f i libucrt:output.obj
 0001:00126058       ?parse_int_from_format_string@?$output_processor@_WV?$string_output_adapter@_W@__crt_stdio_output@@V?$standard_base@_WV?$string_output_adapter@_W@__crt_stdio_output@@@2@@__crt_stdio_output@@AEAA_NQEAH@Z 0000000140127058 f i libucrt:output.obj
 0001:001260d8       ?process@?$output_processor@DV?$string_output_adapter@D@__crt_stdio_output@@V?$format_validation_base@DV?$string_output_adapter@D@__crt_stdio_output@@@2@@__crt_stdio_output@@QEAAHXZ 00000001401270d8 f i libucrt:output.obj
 0001:001262ec       ?process@?$output_processor@DV?$string_output_adapter@D@__crt_stdio_output@@V?$standard_base@DV?$string_output_adapter@D@__crt_stdio_output@@@2@@__crt_stdio_output@@QEAAHXZ 00000001401272ec f i libucrt:output.obj
 0001:001264f0       ?process@?$output_processor@_WV?$string_output_adapter@_W@__crt_stdio_output@@V?$format_validation_base@_WV?$string_output_adapter@_W@__crt_stdio_output@@@2@@__crt_stdio_output@@QEAAHXZ 00000001401274f0 f i libucrt:output.obj
 0001:00126778       ?process@?$output_processor@_WV?$string_output_adapter@_W@__crt_stdio_output@@V?$standard_base@_WV?$string_output_adapter@_W@__crt_stdio_output@@@2@@__crt_stdio_output@@QEAAHXZ 0000000140127778 f i libucrt:output.obj
 0001:001269f4       ?state_case_normal@?$output_processor@DV?$string_output_adapter@D@__crt_stdio_output@@V?$standard_base@DV?$string_output_adapter@D@__crt_stdio_output@@@2@@__crt_stdio_output@@AEAA_NXZ 00000001401279f4 f i libucrt:output.obj
 0001:001269f4       ?state_case_normal@?$output_processor@DV?$string_output_adapter@D@__crt_stdio_output@@V?$format_validation_base@DV?$string_output_adapter@D@__crt_stdio_output@@@2@@__crt_stdio_output@@AEAA_NXZ 00000001401279f4 f i libucrt:output.obj
 0001:00126a68       ?state_case_normal_tchar@?$output_processor@DV?$string_output_adapter@D@__crt_stdio_output@@V?$format_validation_base@DV?$string_output_adapter@D@__crt_stdio_output@@@2@@__crt_stdio_output@@AEAA_ND@Z 0000000140127a68 f i libucrt:output.obj
 0001:00126a68       ?state_case_normal_tchar@?$output_processor@DV?$string_output_adapter@D@__crt_stdio_output@@V?$standard_base@DV?$string_output_adapter@D@__crt_stdio_output@@@2@@__crt_stdio_output@@AEAA_ND@Z 0000000140127a68 f i libucrt:output.obj
 0001:00126b00       ?state_case_size@?$output_processor@DV?$string_output_adapter@D@__crt_stdio_output@@V?$format_validation_base@DV?$string_output_adapter@D@__crt_stdio_output@@@2@@__crt_stdio_output@@AEAA_NXZ 0000000140127b00 f i libucrt:output.obj
 0001:00126b00       ?state_case_size@?$output_processor@DV?$string_output_adapter@D@__crt_stdio_output@@V?$standard_base@DV?$string_output_adapter@D@__crt_stdio_output@@@2@@__crt_stdio_output@@AEAA_NXZ 0000000140127b00 f i libucrt:output.obj
 0001:00126c7c       ?state_case_size@?$output_processor@_WV?$string_output_adapter@_W@__crt_stdio_output@@V?$format_validation_base@_WV?$string_output_adapter@_W@__crt_stdio_output@@@2@@__crt_stdio_output@@AEAA_NXZ 0000000140127c7c f i libucrt:output.obj
 0001:00126c7c       ?state_case_size@?$output_processor@_WV?$string_output_adapter@_W@__crt_stdio_output@@V?$standard_base@_WV?$string_output_adapter@_W@__crt_stdio_output@@@2@@__crt_stdio_output@@AEAA_NXZ 0000000140127c7c f i libucrt:output.obj
 0001:00126e20       ?state_case_type@?$output_processor@DV?$string_output_adapter@D@__crt_stdio_output@@V?$format_validation_base@DV?$string_output_adapter@D@__crt_stdio_output@@@2@@__crt_stdio_output@@AEAA_NXZ 0000000140127e20 f i libucrt:output.obj
 0001:00126e20       ?state_case_type@?$output_processor@DV?$string_output_adapter@D@__crt_stdio_output@@V?$standard_base@DV?$string_output_adapter@D@__crt_stdio_output@@@2@@__crt_stdio_output@@AEAA_NXZ 0000000140127e20 f i libucrt:output.obj
 0001:0012709c       ?state_case_type@?$output_processor@_WV?$string_output_adapter@_W@__crt_stdio_output@@V?$format_validation_base@_WV?$string_output_adapter@_W@__crt_stdio_output@@@2@@__crt_stdio_output@@AEAA_NXZ 000000014012809c f i libucrt:output.obj
 0001:0012709c       ?state_case_type@?$output_processor@_WV?$string_output_adapter@_W@__crt_stdio_output@@V?$standard_base@_WV?$string_output_adapter@_W@__crt_stdio_output@@@2@@__crt_stdio_output@@AEAA_NXZ 000000014012809c f i libucrt:output.obj
 0001:00127368       ?type_case_Z@?$output_processor@DV?$string_output_adapter@D@__crt_stdio_output@@V?$format_validation_base@DV?$string_output_adapter@D@__crt_stdio_output@@@2@@__crt_stdio_output@@AEAA_NXZ 0000000140128368 f i libucrt:output.obj
 0001:00127368       ?type_case_Z@?$output_processor@DV?$string_output_adapter@D@__crt_stdio_output@@V?$standard_base@DV?$string_output_adapter@D@__crt_stdio_output@@@2@@__crt_stdio_output@@AEAA_NXZ 0000000140128368 f i libucrt:output.obj
 0001:001273e8       ?type_case_Z@?$output_processor@_WV?$string_output_adapter@_W@__crt_stdio_output@@V?$format_validation_base@_WV?$string_output_adapter@_W@__crt_stdio_output@@@2@@__crt_stdio_output@@AEAA_NXZ 00000001401283e8 f i libucrt:output.obj
 0001:001273e8       ?type_case_Z@?$output_processor@_WV?$string_output_adapter@_W@__crt_stdio_output@@V?$standard_base@_WV?$string_output_adapter@_W@__crt_stdio_output@@@2@@__crt_stdio_output@@AEAA_NXZ 00000001401283e8 f i libucrt:output.obj
 0001:00127468       ?type_case_a@?$output_processor@DV?$string_output_adapter@D@__crt_stdio_output@@V?$format_validation_base@DV?$string_output_adapter@D@__crt_stdio_output@@@2@@__crt_stdio_output@@AEAA_NXZ 0000000140128468 f i libucrt:output.obj
 0001:00127468       ?type_case_a@?$output_processor@DV?$string_output_adapter@D@__crt_stdio_output@@V?$standard_base@DV?$string_output_adapter@D@__crt_stdio_output@@@2@@__crt_stdio_output@@AEAA_NXZ 0000000140128468 f i libucrt:output.obj
 0001:00127684       ?type_case_a@?$output_processor@_WV?$string_output_adapter@_W@__crt_stdio_output@@V?$standard_base@_WV?$string_output_adapter@_W@__crt_stdio_output@@@2@@__crt_stdio_output@@AEAA_NXZ 0000000140128684 f i libucrt:output.obj
 0001:00127684       ?type_case_a@?$output_processor@_WV?$string_output_adapter@_W@__crt_stdio_output@@V?$format_validation_base@_WV?$string_output_adapter@_W@__crt_stdio_output@@@2@@__crt_stdio_output@@AEAA_NXZ 0000000140128684 f i libucrt:output.obj
 0001:001278c8       ?type_case_c_tchar@?$output_processor@DV?$string_output_adapter@D@__crt_stdio_output@@V?$standard_base@DV?$string_output_adapter@D@__crt_stdio_output@@@2@@__crt_stdio_output@@AEAA_ND@Z 00000001401288c8 f i libucrt:output.obj
 0001:001278c8       ?type_case_c_tchar@?$output_processor@DV?$string_output_adapter@D@__crt_stdio_output@@V?$format_validation_base@DV?$string_output_adapter@D@__crt_stdio_output@@@2@@__crt_stdio_output@@AEAA_ND@Z 00000001401288c8 f i libucrt:output.obj
 0001:0012797c       ?type_case_c_tchar@?$output_processor@_WV?$string_output_adapter@_W@__crt_stdio_output@@V?$standard_base@_WV?$string_output_adapter@_W@__crt_stdio_output@@@2@@__crt_stdio_output@@AEAA_N_W@Z 000000014012897c f i libucrt:output.obj
 0001:0012797c       ?type_case_c_tchar@?$output_processor@_WV?$string_output_adapter@_W@__crt_stdio_output@@V?$format_validation_base@_WV?$string_output_adapter@_W@__crt_stdio_output@@@2@@__crt_stdio_output@@AEAA_N_W@Z 000000014012897c f i libucrt:output.obj
 0001:00127a24       ?type_case_integer@?$output_processor@_WV?$string_output_adapter@_W@__crt_stdio_output@@V?$standard_base@_WV?$string_output_adapter@_W@__crt_stdio_output@@@2@@__crt_stdio_output@@AEAA_NI_N@Z 0000000140128a24 f i libucrt:output.obj
 0001:00127a24       ?type_case_integer@?$output_processor@DV?$string_output_adapter@D@__crt_stdio_output@@V?$format_validation_base@DV?$string_output_adapter@D@__crt_stdio_output@@@2@@__crt_stdio_output@@AEAA_NI_N@Z 0000000140128a24 f i libucrt:output.obj
 0001:00127a24       ?type_case_integer@?$output_processor@_WV?$string_output_adapter@_W@__crt_stdio_output@@V?$format_validation_base@_WV?$string_output_adapter@_W@__crt_stdio_output@@@2@@__crt_stdio_output@@AEAA_NI_N@Z 0000000140128a24 f i libucrt:output.obj
 0001:00127a24       ?type_case_integer@?$output_processor@DV?$string_output_adapter@D@__crt_stdio_output@@V?$standard_base@DV?$string_output_adapter@D@__crt_stdio_output@@@2@@__crt_stdio_output@@AEAA_NI_N@Z 0000000140128a24 f i libucrt:output.obj
 0001:00127bc4       ?type_case_n@?$output_processor@DV?$string_output_adapter@D@__crt_stdio_output@@V?$format_validation_base@DV?$string_output_adapter@D@__crt_stdio_output@@@2@@__crt_stdio_output@@AEAA_NXZ 0000000140128bc4 f i libucrt:output.obj
 0001:00127bc4       ?type_case_n@?$output_processor@DV?$string_output_adapter@D@__crt_stdio_output@@V?$standard_base@DV?$string_output_adapter@D@__crt_stdio_output@@@2@@__crt_stdio_output@@AEAA_NXZ 0000000140128bc4 f i libucrt:output.obj
 0001:00127bc4       ?type_case_n@?$output_processor@_WV?$string_output_adapter@_W@__crt_stdio_output@@V?$format_validation_base@_WV?$string_output_adapter@_W@__crt_stdio_output@@@2@@__crt_stdio_output@@AEAA_NXZ 0000000140128bc4 f i libucrt:output.obj
 0001:00127bc4       ?type_case_n@?$output_processor@_WV?$string_output_adapter@_W@__crt_stdio_output@@V?$standard_base@_WV?$string_output_adapter@_W@__crt_stdio_output@@@2@@__crt_stdio_output@@AEAA_NXZ 0000000140128bc4 f i libucrt:output.obj
 0001:00127ca0       ?type_case_s@?$output_processor@DV?$string_output_adapter@D@__crt_stdio_output@@V?$format_validation_base@DV?$string_output_adapter@D@__crt_stdio_output@@@2@@__crt_stdio_output@@AEAA_NXZ 0000000140128ca0 f i libucrt:output.obj
 0001:00127ca0       ?type_case_s@?$output_processor@DV?$string_output_adapter@D@__crt_stdio_output@@V?$standard_base@DV?$string_output_adapter@D@__crt_stdio_output@@@2@@__crt_stdio_output@@AEAA_NXZ 0000000140128ca0 f i libucrt:output.obj
 0001:00127d30       ?type_case_s@?$output_processor@_WV?$string_output_adapter@_W@__crt_stdio_output@@V?$format_validation_base@_WV?$string_output_adapter@_W@__crt_stdio_output@@@2@@__crt_stdio_output@@AEAA_NXZ 0000000140128d30 f i libucrt:output.obj
 0001:00127d30       ?type_case_s@?$output_processor@_WV?$string_output_adapter@_W@__crt_stdio_output@@V?$standard_base@_WV?$string_output_adapter@_W@__crt_stdio_output@@@2@@__crt_stdio_output@@AEAA_NXZ 0000000140128d30 f i libucrt:output.obj
 0001:00127df8       ?write_stored_string_tchar@?$output_processor@DV?$string_output_adapter@D@__crt_stdio_output@@V?$standard_base@DV?$string_output_adapter@D@__crt_stdio_output@@@2@@__crt_stdio_output@@AEAA_ND@Z 0000000140128df8 f i libucrt:output.obj
 0001:00127df8       ?write_stored_string_tchar@?$output_processor@DV?$string_output_adapter@D@__crt_stdio_output@@V?$format_validation_base@DV?$string_output_adapter@D@__crt_stdio_output@@@2@@__crt_stdio_output@@AEAA_ND@Z 0000000140128df8 f i libucrt:output.obj
 0001:00127ed0       ?write_stored_string_tchar@?$output_processor@_WV?$string_output_adapter@_W@__crt_stdio_output@@V?$standard_base@_WV?$string_output_adapter@_W@__crt_stdio_output@@@2@@__crt_stdio_output@@AEAA_N_W@Z 0000000140128ed0 f i libucrt:output.obj
 0001:00127ed0       ?write_stored_string_tchar@?$output_processor@_WV?$string_output_adapter@_W@__crt_stdio_output@@V?$format_validation_base@_WV?$string_output_adapter@_W@__crt_stdio_output@@@2@@__crt_stdio_output@@AEAA_N_W@Z 0000000140128ed0 f i libucrt:output.obj
 0001:00127fc0       ?write_string@?$string_output_adapter@D@__crt_stdio_output@@QEBAXQEBDHQEAH1@Z 0000000140128fc0 f i libucrt:output.obj
 0001:0012807c       ?write_string@?$string_output_adapter@_W@__crt_stdio_output@@QEBAXQEB_WHQEAH1@Z 000000014012907c f i libucrt:output.obj
 0001:0012813c       __stdio_common_vsprintf    000000014012913c f   libucrt:output.obj
 0001:00128370       __stdio_common_vsprintf_s  0000000140129370 f   libucrt:output.obj
 0001:001283d4       __stdio_common_vswprintf   00000001401293d4 f   libucrt:output.obj
 0001:0012860c       __stdio_common_vswprintf_s 000000014012960c f   libucrt:output.obj
 0001:0012867c       wcspbrk                    000000014012967c f   libucrt:wcspbrk.obj
 0001:001286b4       ??$is_overflow_condition@K@__crt_strtox@@YA_NIK@Z 00000001401296b4 f i libucrt:strtox.obj
 0001:001286e0       ??$is_overflow_condition@_K@__crt_strtox@@YA_NI_K@Z 00000001401296e0 f i libucrt:strtox.obj
 0001:00128718       ??$make_c_string_character_source@_W$$T@__crt_strtox@@YA?AV?$c_string_character_source@_W@0@QEB_W$$T@Z 0000000140129718 f i libucrt:atox.obj
 0001:00128718       ??$make_c_string_character_source@_WPEAPEA_W@__crt_strtox@@YA?AV?$c_string_character_source@_W@0@QEB_WQEAPEA_W@Z 0000000140129718 f i libucrt:strtox.obj
 0001:00128718       ??$make_c_string_character_source@DPEAPEAD@__crt_strtox@@YA?AV?$c_string_character_source@D@0@QEBDQEAPEAD@Z 0000000140129718 f i libucrt:strtox.obj
 0001:0012872c       ??$parse_integer@KV?$c_string_character_source@D@__crt_strtox@@@__crt_strtox@@YAKQEAU__crt_locale_pointers@@V?$c_string_character_source@D@0@H_N@Z 000000014012972c f i libucrt:strtox.obj
 0001:00128a40       ??$parse_integer@KV?$c_string_character_source@_W@__crt_strtox@@@__crt_strtox@@YAKQEAU__crt_locale_pointers@@V?$c_string_character_source@_W@0@H_N@Z 0000000140129a40 f i libucrt:strtox.obj
 0001:00129114       ??$parse_integer@_KV?$c_string_character_source@_W@__crt_strtox@@@__crt_strtox@@YA_KQEAU__crt_locale_pointers@@V?$c_string_character_source@_W@0@H_N@Z 000000014012a114 f i libucrt:strtox.obj
 0001:001298cc       _wcstoui64                 000000014012a8cc f   libucrt:strtox.obj
 0001:001298fc       strtol                     000000014012a8fc f   libucrt:strtox.obj
 0001:0012992c       strtoul                    000000014012a92c f   libucrt:strtox.obj
 0001:0012995c       wcstol                     000000014012a95c f   libucrt:strtox.obj
 0001:0012998c       wcstoul                    000000014012a98c f   libucrt:strtox.obj
 0001:001299bc       atan2                      000000014012a9bc f   libucrt:atan2.obj
 0001:0012a110       cos                        000000014012b110 f   libucrt:cos.obj
 0001:0012a690       exp                        000000014012b690 f   libucrt:exp.obj
 0001:0012aa90       pow                        000000014012ba90 f   libucrt:pow.obj
 0001:0012c130       sin                        000000014012d130 f   libucrt:sin.obj
 0001:0012c69c       sqrt                       000000014012d69c f   libucrt:sqrt.obj
 0001:0012c770       wcsncmp                    000000014012d770 f   libucrt:wcsncmp.obj
 0001:0012c79c       wcscmp                     000000014012d79c f   libucrt:wcscmp.obj
 0001:0012c7d4       rand                       000000014012d7d4 f   libucrt:rand.obj
 0001:0012c800       srand                      000000014012d800 f   libucrt:rand.obj
 0001:0012c868       _tolower_l                 000000014012d868 f   libucrt:tolower_toupper.obj
 0001:0012c9a8       tolower                    000000014012d9a8 f   libucrt:tolower_toupper.obj
 0001:0012c9d4       _wtoi                      000000014012d9d4 f   libucrt:atox.obj
 0001:0012c9d4       _wtol                      000000014012d9d4 f   libucrt:atox.obj
 0001:0012ca00       wcscat_s                   000000014012da00 f   libucrt:wcscat_s.obj
 0001:0012ca80       wcscpy_s                   000000014012da80 f   libucrt:wcscpy_s.obj
 0001:0012cae8       wmemmove_s                 000000014012dae8 f   libucrt:wmemmove_s.obj
 0001:0012cb3c       __acrt_call_reportfault    000000014012db3c f   libucrt:invalid_parameter.obj
 0001:0012cc98       __acrt_initialize_invalid_parameter_handler 000000014012dc98 f   libucrt:invalid_parameter.obj
 0001:0012cca0       _invalid_parameter         000000014012dca0 f   libucrt:invalid_parameter.obj
 0001:0012cd48       _invalid_parameter_noinfo  000000014012dd48 f   libucrt:invalid_parameter.obj
 0001:0012cd68       _invalid_parameter_noinfo_noreturn 000000014012dd68 f   libucrt:invalid_parameter.obj
 0001:0012cd98       _invoke_watson             000000014012dd98 f   libucrt:invalid_parameter.obj
 0001:0012cde0       bsearch                    000000014012dde0 f   libucrt:bsearch.obj
 0001:0012cfc0       qsort                      000000014012dfc0 f   libucrt:qsort.obj
